(dp1
S'a'
(ipmx.model
Model
p2
(dp3
S'box'
p4
(lp5
(lp6
I0
aI0
aI0
aa(lp7
I0
aI0
aI0
aa(lp8
I0
aI0
aI0
aasS'name'
p9
NsS'title'
p10
S'PMX MODEL'
p11
sS'chdic'
p12
(dp13
S'A'
(ipmx.chain
Chain
p14
(dp15
S'residues'
p16
(lp17
(ipmx.molecule
Molecule
p18
(dp19
S'natoms'
p20
I0
sS'chain'
p21
g14
sS'real_resname'
p22
S''
sS'orig_id'
p23
I1
sS'chain_id'
p24
S'A'
sS'next'
p25
NsS'unity'
p26
S'A'
sS'resname'
p27
S'DT'
p28
sS'model'
p29
g2
sS'atoms'
p30
(lp31
(ipmx.atom
Atom
p32
(dp33
S'neighbors'
p34
(lp35
sS'code'
p36
I0
sg21
g14
sS'm'
F0
sS'ptype'
p37
S''
sS'long_name'
p38
S' P  '
p39
sS'altloc'
p40
S' '
sS'atomtypeB'
p41
S''
sS'typeB'
p42
S''
sS'id'
p43
I1
sS'mB'
p44
F0
sS'resnr'
p45
I1
sS'occ'
p46
F1
sS'vdw14'
p47
F0
sg24
S'A'
sS'b14'
p48
(lp49
sS'b13'
p50
(lp51
sS'cgnr'
p52
F0
sS'type'
p53
S''
sS'bfac'
p54
F0
sS'bonds'
p55
(lp56
sS'symbol'
p57
S'P'
sS'molecule'
p58
g18
sg26
S'A'
sS'qB'
p59
F0
sS'connected'
p60
(lp61
sS'boxid'
p62
I0
sS'hyb'
p63
S''
sg9
S'P'
sS'vdw'
p64
F0
sS'f'
(lp65
sS'atype'
p66
S''
sS'order'
p67
I0
sS'q'
F0
sS'race'
p68
S'ATOM  '
p69
sS'grpnr'
p70
S' '
sS'atomtype'
p71
S''
sS'v'
(lp72
I0
aI0
aI0
asg27
g28
sS'x'
(lp73
F-8.1809999999999992
aF3.77
aF-13.834
asg29
g2
sg23
I1
sba(ipmx.atom
Atom
p74
(dp75
g34
(lp76
sg36
I0
sg21
g14
sS'm'
F0
sg37
S''
sg38
S' O1P'
p77
sg40
S' '
sg41
S''
sg42
S''
sg43
I2
sg44
F0
sg45
I1
sg46
F1
sg47
F0
sg24
S'A'
sg48
(lp78
sg50
(lp79
sg52
F0
sg53
S''
sg54
F0
sg55
(lp80
sg57
S'O'
sg58
g18
sg26
S'A'
sg59
F0
sg60
(lp81
sg62
I0
sg63
S''
sg9
S'O1P'
p82
sg64
F0
sS'f'
(lp83
sg66
S''
sg67
I0
sS'q'
F0
sg68
S'ATOM  '
p84
sg70
S' '
sg71
S''
sS'v'
(lp85
I0
aI0
aI0
asg27
S'DT'
p86
sS'x'
(lp87
F-8.8859999999999992
aF5.0629999999999997
aF-14.000999999999999
asg29
g2
sg23
I2
sba(ipmx.atom
Atom
p88
(dp89
g34
(lp90
sg36
I0
sg21
g14
sS'm'
F0
sg37
S''
sg38
S' O2P'
p91
sg40
S' '
sg41
S''
sg42
S''
sg43
I3
sg44
F0
sg45
I1
sg46
F1
sg47
F0
sg24
S'A'
sg48
(lp92
sg50
(lp93
sg52
F0
sg53
S''
sg54
F0
sg55
(lp94
sg57
S'O'
sg58
g18
sg26
S'A'
sg59
F0
sg60
(lp95
sg62
I0
sg63
S''
sg9
S'O2P'
p96
sg64
F0
sS'f'
(lp97
sg66
S''
sg67
I0
sS'q'
F0
sg68
S'ATOM  '
p98
sg70
S' '
sg71
S''
sS'v'
(lp99
I0
aI0
aI0
asg27
S'DT'
p100
sS'x'
(lp101
F-8.5359999999999996
aF2.6080000000000001
aF-14.667999999999999
asg29
g2
sg23
I3
sba(ipmx.atom
Atom
p102
(dp103
g34
(lp104
sg36
I0
sg21
g14
sS'm'
F0
sg37
S''
sg38
S" O5'"
p105
sg40
S' '
sg41
S''
sg42
S''
sg43
I4
sg44
F0
sg45
I1
sg46
F1
sg47
F0
sg24
S'A'
sg48
(lp106
sg50
(lp107
sg52
F0
sg53
S''
sg54
F0
sg55
(lp108
sg57
S'O'
sg58
g18
sg26
S'A'
sg59
F0
sg60
(lp109
sg62
I0
sg63
S''
sg9
S"O5'"
p110
sg64
F0
sS'f'
(lp111
sg66
S''
sg67
I0
sS'q'
F0
sg68
S'ATOM  '
p112
sg70
S' '
sg71
S''
sS'v'
(lp113
I0
aI0
aI0
asg27
S'DT'
p114
sS'x'
(lp115
F-6.641
aF4.0949999999999998
aF-14.022
asg29
g2
sg23
I4
sba(ipmx.atom
Atom
p116
(dp117
g34
(lp118
sg36
I0
sg21
g14
sS'm'
F0
sg37
S''
sg38
S" C5'"
p119
sg40
S' '
sg41
S''
sg42
S''
sg43
I5
sg44
F0
sg45
I1
sg46
F1
sg47
F0
sg24
S'A'
sg48
(lp120
sg50
(lp121
sg52
F0
sg53
S''
sg54
F0
sg55
(lp122
sg57
S'C'
sg58
g18
sg26
S'A'
sg59
F0
sg60
(lp123
sg62
I0
sg63
S''
sg9
S"C5'"
p124
sg64
F0
sS'f'
(lp125
sg66
S''
sg67
I0
sS'q'
F0
sg68
S'ATOM  '
p126
sg70
S' '
sg71
S''
sS'v'
(lp127
I0
aI0
aI0
asg27
S'DT'
p128
sS'x'
(lp129
F-5.9619999999999997
aF4.931
aF-13.101000000000001
asg29
g2
sg23
I5
sba(ipmx.atom
Atom
p130
(dp131
g34
(lp132
sg36
I0
sg21
g14
sS'm'
F0
sg37
S''
sg38
S"1H5'"
p133
sg40
S' '
sg41
S''
sg42
S''
sg43
I6
sg44
F0
sg45
I1
sg46
F1
sg47
F0
sg24
S'A'
sg48
(lp134
sg50
(lp135
sg52
F0
sg53
S''
sg54
F0
sg55
(lp136
sg57
S'H'
sg58
g18
sg26
S'A'
sg59
F0
sg60
(lp137
sg62
I0
sg63
S''
sg9
S"H5'1"
p138
sg64
F0
sS'f'
(lp139
sg66
S''
sg67
I0
sS'q'
F0
sg68
S'ATOM  '
p140
sg70
S' '
sg71
S''
sS'v'
(lp141
I0
aI0
aI0
asg27
S'DT'
p142
sS'x'
(lp143
F-6.6799999999999997
aF5.6390000000000002
aF-12.686999999999999
asg29
g2
sg23
I6
sba(ipmx.atom
Atom
p144
(dp145
g34
(lp146
sg36
I0
sg21
g14
sS'm'
F0
sg37
S''
sg38
S"2H5'"
p147
sg40
S' '
sg41
S''
sg42
S''
sg43
I7
sg44
F0
sg45
I1
sg46
F1
sg47
F0
sg24
S'A'
sg48
(lp148
sg50
(lp149
sg52
F0
sg53
S''
sg54
F0
sg55
(lp150
sg57
S'H'
sg58
g18
sg26
S'A'
sg59
F0
sg60
(lp151
sg62
I0
sg63
S''
sg9
S"H5'2"
p152
sg64
F0
sS'f'
(lp153
sg66
S''
sg67
I0
sS'q'
F0
sg68
S'ATOM  '
p154
sg70
S' '
sg71
S''
sS'v'
(lp155
I0
aI0
aI0
asg27
S'DT'
p156
sS'x'
(lp157
F-5.6029999999999998
aF4.3230000000000004
aF-12.268000000000001
asg29
g2
sg23
I7
sba(ipmx.atom
Atom
p158
(dp159
g34
(lp160
sg36
I0
sg21
g14
sS'm'
F0
sg37
S''
sg38
S" C4'"
p161
sg40
S' '
sg41
S''
sg42
S''
sg43
I8
sg44
F0
sg45
I1
sg46
F1
sg47
F0
sg24
S'A'
sg48
(lp162
sg50
(lp163
sg52
F0
sg53
S''
sg54
F0
sg55
(lp164
sg57
S'C'
sg58
g18
sg26
S'A'
sg59
F0
sg60
(lp165
sg62
I0
sg63
S''
sg9
S"C4'"
p166
sg64
F0
sS'f'
(lp167
sg66
S''
sg67
I0
sS'q'
F0
sg68
S'ATOM  '
p168
sg70
S' '
sg71
S''
sS'v'
(lp169
I0
aI0
aI0
asg27
S'DT'
p170
sS'x'
(lp171
F-4.7930000000000001
aF5.702
aF-13.739000000000001
asg29
g2
sg23
I8
sba(ipmx.atom
Atom
p172
(dp173
g34
(lp174
sg36
I0
sg21
g14
sS'm'
F0
sg37
S''
sg38
S" H4'"
p175
sg40
S' '
sg41
S''
sg42
S''
sg43
I9
sg44
F0
sg45
I1
sg46
F1
sg47
F0
sg24
S'A'
sg48
(lp176
sg50
(lp177
sg52
F0
sg53
S''
sg54
F0
sg55
(lp178
sg57
S'H'
sg58
g18
sg26
S'A'
sg59
F0
sg60
(lp179
sg62
I0
sg63
S''
sg9
S"H4'"
p180
sg64
F0
sS'f'
(lp181
sg66
S''
sg67
I0
sS'q'
F0
sg68
S'ATOM  '
p182
sg70
S' '
sg71
S''
sS'v'
(lp183
I0
aI0
aI0
asg27
S'DT'
p184
sS'x'
(lp185
F-4.5899999999999999
aF6.548
aF-13.089
asg29
g2
sg23
I9
sba(ipmx.atom
Atom
p186
(dp187
g34
(lp188
sg36
I0
sg21
g14
sS'm'
F0
sg37
S''
sg38
S" O4'"
p189
sg40
S' '
sg41
S''
sg42
S''
sg43
I10
sg44
F0
sg45
I1
sg46
F1
sg47
F0
sg24
S'A'
sg48
(lp190
sg50
(lp191
sg52
F0
sg53
S''
sg54
F0
sg55
(lp192
sg57
S'O'
sg58
g18
sg26
S'A'
sg59
F0
sg60
(lp193
sg62
I0
sg63
S''
sg9
S"O4'"
p194
sg64
F0
sS'f'
(lp195
sg66
S''
sg67
I0
sS'q'
F0
sg68
S'ATOM  '
p196
sg70
S' '
sg71
S''
sS'v'
(lp197
I0
aI0
aI0
asg27
S'DT'
p198
sS'x'
(lp199
F-3.6640000000000001
aF4.8319999999999999
aF-13.747999999999999
asg29
g2
sg23
I10
sba(ipmx.atom
Atom
p200
(dp201
g34
(lp202
sg36
I0
sg21
g14
sS'm'
F0
sg37
S''
sg38
S" C1'"
p203
sg40
S' '
sg41
S''
sg42
S''
sg43
I11
sg44
F0
sg45
I1
sg46
F1
sg47
F0
sg24
S'A'
sg48
(lp204
sg50
(lp205
sg52
F0
sg53
S''
sg54
F0
sg55
(lp206
sg57
S'C'
sg58
g18
sg26
S'A'
sg59
F0
sg60
(lp207
sg62
I0
sg63
S''
sg9
S"C1'"
p208
sg64
F0
sS'f'
(lp209
sg66
S''
sg67
I0
sS'q'
F0
sg68
S'ATOM  '
p210
sg70
S' '
sg71
S''
sS'v'
(lp211
I0
aI0
aI0
asg27
S'DT'
p212
sS'x'
(lp213
F-3.472
aF4.351
aF-15.067
asg29
g2
sg23
I11
sba(ipmx.atom
Atom
p214
(dp215
g34
(lp216
sg36
I0
sg21
g14
sS'm'
F0
sg37
S''
sg38
S" H1'"
p217
sg40
S' '
sg41
S''
sg42
S''
sg43
I12
sg44
F0
sg45
I1
sg46
F1
sg47
F0
sg24
S'A'
sg48
(lp218
sg50
(lp219
sg52
F0
sg53
S''
sg54
F0
sg55
(lp220
sg57
S'H'
sg58
g18
sg26
S'A'
sg59
F0
sg60
(lp221
sg62
I0
sg63
S''
sg9
S"H1'"
p222
sg64
F0
sS'f'
(lp223
sg66
S''
sg67
I0
sS'q'
F0
sg68
S'ATOM  '
p224
sg70
S' '
sg71
S''
sS'v'
(lp225
I0
aI0
aI0
asg27
S'DT'
p226
sS'x'
(lp227
F-2.5310000000000001
aF4.7629999999999999
aF-15.444000000000001
asg29
g2
sg23
I12
sba(ipmx.atom
Atom
p228
(dp229
g34
(lp230
sg36
I0
sg21
g14
sS'm'
F0
sg37
S''
sg38
S' N1 '
p231
sg40
S' '
sg41
S''
sg42
S''
sg43
I13
sg44
F0
sg45
I1
sg46
F1
sg47
F0
sg24
S'A'
sg48
(lp232
sg50
(lp233
sg52
F0
sg53
S''
sg54
F0
sg55
(lp234
sg57
S'N'
sg58
g18
sg26
S'A'
sg59
F0
sg60
(lp235
sg62
I0
sg63
S''
sg9
S'N1'
p236
sg64
F0
sS'f'
(lp237
sg66
S''
sg67
I0
sS'q'
F0
sg68
S'ATOM  '
p238
sg70
S' '
sg71
S''
sS'v'
(lp239
I0
aI0
aI0
asg27
S'DT'
p240
sS'x'
(lp241
F-3.3849999999999998
aF2.863
aF-15.071
asg29
g2
sg23
I13
sba(ipmx.atom
Atom
p242
(dp243
g34
(lp244
sg36
I0
sg21
g14
sS'm'
F0
sg37
S''
sg38
S' C6 '
p245
sg40
S' '
sg41
S''
sg42
S''
sg43
I14
sg44
F0
sg45
I1
sg46
F1
sg47
F0
sg24
S'A'
sg48
(lp246
sg50
(lp247
sg52
F0
sg53
S''
sg54
F0
sg55
(lp248
sg57
S'C'
sg58
g18
sg26
S'A'
sg59
F0
sg60
(lp249
sg62
I0
sg63
S''
sg9
S'C6'
p250
sg64
F0
sS'f'
(lp251
sg66
S''
sg67
I0
sS'q'
F0
sg68
S'ATOM  '
p252
sg70
S' '
sg71
S''
sS'v'
(lp253
I0
aI0
aI0
asg27
S'DT'
p254
sS'x'
(lp255
F-4.508
aF2.0539999999999998
aF-15.103
asg29
g2
sg23
I14
sba(ipmx.atom
Atom
p256
(dp257
g34
(lp258
sg36
I0
sg21
g14
sS'm'
F0
sg37
S''
sg38
S' H6 '
p259
sg40
S' '
sg41
S''
sg42
S''
sg43
I15
sg44
F0
sg45
I1
sg46
F1
sg47
F0
sg24
S'A'
sg48
(lp260
sg50
(lp261
sg52
F0
sg53
S''
sg54
F0
sg55
(lp262
sg57
S'H'
sg58
g18
sg26
S'A'
sg59
F0
sg60
(lp263
sg62
I0
sg63
S''
sg9
S'H6'
p264
sg64
F0
sS'f'
(lp265
sg66
S''
sg67
I0
sS'q'
F0
sg68
S'ATOM  '
p266
sg70
S' '
sg71
S''
sS'v'
(lp267
I0
aI0
aI0
asg27
S'DT'
p268
sS'x'
(lp269
F-5.4900000000000002
aF2.4929999999999999
aF-15.111000000000001
asg29
g2
sg23
I15
sba(ipmx.atom
Atom
p270
(dp271
g34
(lp272
sg36
I0
sg21
g14
sS'm'
F0
sg37
S''
sg38
S' C5 '
p273
sg40
S' '
sg41
S''
sg42
S''
sg43
I16
sg44
F0
sg45
I1
sg46
F1
sg47
F0
sg24
S'A'
sg48
(lp274
sg50
(lp275
sg52
F0
sg53
S''
sg54
F0
sg55
(lp276
sg57
S'C'
sg58
g18
sg26
S'A'
sg59
F0
sg60
(lp277
sg62
I0
sg63
S''
sg9
S'C5'
p278
sg64
F0
sS'f'
(lp279
sg66
S''
sg67
I0
sS'q'
F0
sg68
S'ATOM  '
p280
sg70
S' '
sg71
S''
sS'v'
(lp281
I0
aI0
aI0
asg27
S'DT'
p282
sS'x'
(lp283
F-4.4050000000000002
aF0.70099999999999996
aF-15.134
asg29
g2
sg23
I16
sba(ipmx.atom
Atom
p284
(dp285
g34
(lp286
sg36
I0
sg21
g14
sS'm'
F0
sg37
S''
sg38
S' C7 '
p287
sg40
S' '
sg41
S''
sg42
S''
sg43
I17
sg44
F0
sg45
I1
sg46
F1
sg47
F0
sg24
S'A'
sg48
(lp288
sg50
(lp289
sg52
F0
sg53
S''
sg54
F0
sg55
(lp290
sg57
S'C'
sg58
g18
sg26
S'A'
sg59
F0
sg60
(lp291
sg62
I0
sg63
S''
sg9
S'C7'
p292
sg64
F0
sS'f'
(lp293
sg66
S''
sg67
I0
sS'q'
F0
sg68
S'ATOM  '
p294
sg70
S' '
sg71
S''
sS'v'
(lp295
I0
aI0
aI0
asg27
S'DT'
p296
sS'x'
(lp297
F-5.6310000000000002
aF-0.19900000000000001
aF-15.195
asg29
g2
sg23
I17
sba(ipmx.atom
Atom
p298
(dp299
g34
(lp300
sg36
I0
sg21
g14
sS'm'
F0
sg37
S''
sg38
S' H71'
p301
sg40
S' '
sg41
S''
sg42
S''
sg43
I18
sg44
F0
sg45
I1
sg46
F1
sg47
F0
sg24
S'A'
sg48
(lp302
sg50
(lp303
sg52
F0
sg53
S''
sg54
F0
sg55
(lp304
sg57
S'H'
sg58
g18
sg26
S'A'
sg59
F0
sg60
(lp305
sg62
I0
sg63
S''
sg9
S'H71'
p306
sg64
F0
sS'f'
(lp307
sg66
S''
sg67
I0
sS'q'
F0
sg68
S'ATOM  '
p308
sg70
S' '
sg71
S''
sS'v'
(lp309
I0
aI0
aI0
asg27
S'DT'
p310
sS'x'
(lp311
F-6.0069999999999997
aF-0.251
aF-16.207999999999998
asg29
g2
sg23
I18
sba(ipmx.atom
Atom
p312
(dp313
g34
(lp314
sg36
I0
sg21
g14
sS'm'
F0
sg37
S''
sg38
S' H72'
p315
sg40
S' '
sg41
S''
sg42
S''
sg43
I19
sg44
F0
sg45
I1
sg46
F1
sg47
F0
sg24
S'A'
sg48
(lp316
sg50
(lp317
sg52
F0
sg53
S''
sg54
F0
sg55
(lp318
sg57
S'H'
sg58
g18
sg26
S'A'
sg59
F0
sg60
(lp319
sg62
I0
sg63
S''
sg9
S'H72'
p320
sg64
F0
sS'f'
(lp321
sg66
S''
sg67
I0
sS'q'
F0
sg68
S'ATOM  '
p322
sg70
S' '
sg71
S''
sS'v'
(lp323
I0
aI0
aI0
asg27
S'DT'
p324
sS'x'
(lp325
F-6.4640000000000004
aF0.14699999999999999
aF-14.625999999999999
asg29
g2
sg23
I19
sba(ipmx.atom
Atom
p326
(dp327
g34
(lp328
sg36
I0
sg21
g14
sS'm'
F0
sg37
S''
sg38
S' H73'
p329
sg40
S' '
sg41
S''
sg42
S''
sg43
I20
sg44
F0
sg45
I1
sg46
F1
sg47
F0
sg24
S'A'
sg48
(lp330
sg50
(lp331
sg52
F0
sg53
S''
sg54
F0
sg55
(lp332
sg57
S'H'
sg58
g18
sg26
S'A'
sg59
F0
sg60
(lp333
sg62
I0
sg63
S''
sg9
S'H73'
p334
sg64
F0
sS'f'
(lp335
sg66
S''
sg67
I0
sS'q'
F0
sg68
S'ATOM  '
p336
sg70
S' '
sg71
S''
sS'v'
(lp337
I0
aI0
aI0
asg27
S'DT'
p338
sS'x'
(lp339
F-5.3780000000000001
aF-1.1819999999999999
aF-14.795999999999999
asg29
g2
sg23
I20
sba(ipmx.atom
Atom
p340
(dp341
g34
(lp342
sg36
I0
sg21
g14
sS'm'
F0
sg37
S''
sg38
S' C4 '
p343
sg40
S' '
sg41
S''
sg42
S''
sg43
I21
sg44
F0
sg45
I1
sg46
F1
sg47
F0
sg24
S'A'
sg48
(lp344
sg50
(lp345
sg52
F0
sg53
S''
sg54
F0
sg55
(lp346
sg57
S'C'
sg58
g18
sg26
S'A'
sg59
F0
sg60
(lp347
sg62
I0
sg63
S''
sg9
S'C4'
p348
sg64
F0
sS'f'
(lp349
sg66
S''
sg67
I0
sS'q'
F0
sg68
S'ATOM  '
p350
sg70
S' '
sg71
S''
sS'v'
(lp351
I0
aI0
aI0
asg27
S'DT'
p352
sS'x'
(lp353
F-3.1030000000000002
aF0.072999999999999995
aF-15.111000000000001
asg29
g2
sg23
I21
sba(ipmx.atom
Atom
p354
(dp355
g34
(lp356
sg36
I0
sg21
g14
sS'm'
F0
sg37
S''
sg38
S' O4 '
p357
sg40
S' '
sg41
S''
sg42
S''
sg43
I22
sg44
F0
sg45
I1
sg46
F1
sg47
F0
sg24
S'A'
sg48
(lp358
sg50
(lp359
sg52
F0
sg53
S''
sg54
F0
sg55
(lp360
sg57
S'O'
sg58
g18
sg26
S'A'
sg59
F0
sg60
(lp361
sg62
I0
sg63
S''
sg9
S'O4'
p362
sg64
F0
sS'f'
(lp363
sg66
S''
sg67
I0
sS'q'
F0
sg68
S'ATOM  '
p364
sg70
S' '
sg71
S''
sS'v'
(lp365
I0
aI0
aI0
asg27
S'DT'
p366
sS'x'
(lp367
F-2.9089999999999998
aF-1.1339999999999999
aF-15.112
asg29
g2
sg23
I22
sba(ipmx.atom
Atom
p368
(dp369
g34
(lp370
sg36
I0
sg21
g14
sS'm'
F0
sg37
S''
sg38
S' N3 '
p371
sg40
S' '
sg41
S''
sg42
S''
sg43
I23
sg44
F0
sg45
I1
sg46
F1
sg47
F0
sg24
S'A'
sg48
(lp372
sg50
(lp373
sg52
F0
sg53
S''
sg54
F0
sg55
(lp374
sg57
S'N'
sg58
g18
sg26
S'A'
sg59
F0
sg60
(lp375
sg62
I0
sg63
S''
sg9
S'N3'
p376
sg64
F0
sS'f'
(lp377
sg66
S''
sg67
I0
sS'q'
F0
sg68
S'ATOM  '
p378
sg70
S' '
sg71
S''
sS'v'
(lp379
I0
aI0
aI0
asg27
S'DT'
p380
sS'x'
(lp381
F-2.0329999999999999
aF0.92600000000000005
aF-15.096
asg29
g2
sg23
I23
sba(ipmx.atom
Atom
p382
(dp383
g34
(lp384
sg36
I0
sg21
g14
sS'm'
F0
sg37
S''
sg38
S' H3 '
p385
sg40
S' '
sg41
S''
sg42
S''
sg43
I24
sg44
F0
sg45
I1
sg46
F1
sg47
F0
sg24
S'A'
sg48
(lp386
sg50
(lp387
sg52
F0
sg53
S''
sg54
F0
sg55
(lp388
sg57
S'H'
sg58
g18
sg26
S'A'
sg59
F0
sg60
(lp389
sg62
I0
sg63
S''
sg9
S'H3'
p390
sg64
F0
sS'f'
(lp391
sg66
S''
sg67
I0
sS'q'
F0
sg68
S'ATOM  '
p392
sg70
S' '
sg71
S''
sS'v'
(lp393
I0
aI0
aI0
asg27
S'DT'
p394
sS'x'
(lp395
F-1.1120000000000001
aF0.52000000000000002
aF-15.093999999999999
asg29
g2
sg23
I24
sba(ipmx.atom
Atom
p396
(dp397
g34
(lp398
sg36
I0
sg21
g14
sS'm'
F0
sg37
S''
sg38
S' C2 '
p399
sg40
S' '
sg41
S''
sg42
S''
sg43
I25
sg44
F0
sg45
I1
sg46
F1
sg47
F0
sg24
S'A'
sg48
(lp400
sg50
(lp401
sg52
F0
sg53
S''
sg54
F0
sg55
(lp402
sg57
S'C'
sg58
g18
sg26
S'A'
sg59
F0
sg60
(lp403
sg62
I0
sg63
S''
sg9
S'C2'
p404
sg64
F0
sS'f'
(lp405
sg66
S''
sg67
I0
sS'q'
F0
sg68
S'ATOM  '
p406
sg70
S' '
sg71
S''
sS'v'
(lp407
I0
aI0
aI0
asg27
S'DT'
p408
sS'x'
(lp409
F-2.105
aF2.2970000000000002
aF-15.08
asg29
g2
sg23
I25
sba(ipmx.atom
Atom
p410
(dp411
g34
(lp412
sg36
I0
sg21
g14
sS'm'
F0
sg37
S''
sg38
S' O  '
p413
sg40
S' '
sg41
S''
sg42
S''
sg43
I26
sg44
F0
sg45
I1
sg46
F1
sg47
F0
sg24
S'A'
sg48
(lp414
sg50
(lp415
sg52
F0
sg53
S''
sg54
F0
sg55
(lp416
sg57
S'O'
sg58
g18
sg26
S'A'
sg59
F0
sg60
(lp417
sg62
I0
sg63
S''
sg9
S'O'
sg64
F0
sS'f'
(lp418
sg66
S''
sg67
I0
sS'q'
F0
sg68
S'ATOM  '
p419
sg70
S' '
sg71
S''
sS'v'
(lp420
I0
aI0
aI0
asg27
S'DT'
p421
sS'x'
(lp422
F-1.0629999999999999
aF2.944
aF-15.101000000000001
asg29
g2
sg23
I26
sba(ipmx.atom
Atom
p423
(dp424
g34
(lp425
sg36
I0
sg21
g14
sS'm'
F0
sg37
S''
sg38
S" C3'"
p426
sg40
S' '
sg41
S''
sg42
S''
sg43
I27
sg44
F0
sg45
I1
sg46
F1
sg47
F0
sg24
S'A'
sg48
(lp427
sg50
(lp428
sg52
F0
sg53
S''
sg54
F0
sg55
(lp429
sg57
S'C'
sg58
g18
sg26
S'A'
sg59
F0
sg60
(lp430
sg62
I0
sg63
S''
sg9
S"C3'"
p431
sg64
F0
sS'f'
(lp432
sg66
S''
sg67
I0
sS'q'
F0
sg68
S'ATOM  '
p433
sg70
S' '
sg71
S''
sS'v'
(lp434
I0
aI0
aI0
asg27
S'DT'
p435
sS'x'
(lp436
F-5.0780000000000003
aF6.1749999999999998
aF-15.196999999999999
asg29
g2
sg23
I27
sba(ipmx.atom
Atom
p437
(dp438
g34
(lp439
sg36
I0
sg21
g14
sS'm'
F0
sg37
S''
sg38
S" H3'"
p440
sg40
S' '
sg41
S''
sg42
S''
sg43
I28
sg44
F0
sg45
I1
sg46
F1
sg47
F0
sg24
S'A'
sg48
(lp441
sg50
(lp442
sg52
F0
sg53
S''
sg54
F0
sg55
(lp443
sg57
S'H'
sg58
g18
sg26
S'A'
sg59
F0
sg60
(lp444
sg62
I0
sg63
S''
sg9
S"H3'"
p445
sg64
F0
sS'f'
(lp446
sg66
S''
sg67
I0
sS'q'
F0
sg68
S'ATOM  '
p447
sg70
S' '
sg71
S''
sS'v'
(lp448
I0
aI0
aI0
asg27
S'DT'
p449
sS'x'
(lp450
F-6.1479999999999997
aF6.3070000000000004
aF-15.33
asg29
g2
sg23
I28
sba(ipmx.atom
Atom
p451
(dp452
g34
(lp453
sg36
I0
sg21
g14
sS'm'
F0
sg37
S''
sg38
S" C2'"
p454
sg40
S' '
sg41
S''
sg42
S''
sg43
I29
sg44
F0
sg45
I1
sg46
F1
sg47
F0
sg24
S'A'
sg48
(lp455
sg50
(lp456
sg52
F0
sg53
S''
sg54
F0
sg55
(lp457
sg57
S'C'
sg58
g18
sg26
S'A'
sg59
F0
sg60
(lp458
sg62
I0
sg63
S''
sg9
S"C2'"
p459
sg64
F0
sS'f'
(lp460
sg66
S''
sg67
I0
sS'q'
F0
sg68
S'ATOM  '
p461
sg70
S' '
sg71
S''
sS'v'
(lp462
I0
aI0
aI0
asg27
S'DT'
p463
sS'x'
(lp464
F-4.5970000000000004
aF4.9269999999999996
aF-15.933999999999999
asg29
g2
sg23
I29
sba(ipmx.atom
Atom
p465
(dp466
g34
(lp467
sg36
I0
sg21
g14
sS'm'
F0
sg37
S''
sg38
S"1H2'"
p468
sg40
S' '
sg41
S''
sg42
S''
sg43
I30
sg44
F0
sg45
I1
sg46
F1
sg47
F0
sg24
S'A'
sg48
(lp469
sg50
(lp470
sg52
F0
sg53
S''
sg54
F0
sg55
(lp471
sg57
S'H'
sg58
g18
sg26
S'A'
sg59
F0
sg60
(lp472
sg62
I0
sg63
S''
sg9
S"H2'1"
p473
sg64
F0
sS'f'
(lp474
sg66
S''
sg67
I0
sS'q'
F0
sg68
S'ATOM  '
p475
sg70
S' '
sg71
S''
sS'v'
(lp476
I0
aI0
aI0
asg27
S'DT'
p477
sS'x'
(lp478
F-5.431
aF4.2510000000000003
aF-16.068999999999999
asg29
g2
sg23
I30
sba(ipmx.atom
Atom
p479
(dp480
g34
(lp481
sg36
I0
sg21
g14
sS'm'
F0
sg37
S''
sg38
S"2H2'"
p482
sg40
S' '
sg41
S''
sg42
S''
sg43
I31
sg44
F0
sg45
I1
sg46
F1
sg47
F0
sg24
S'A'
sg48
(lp483
sg50
(lp484
sg52
F0
sg53
S''
sg54
F0
sg55
(lp485
sg57
S'H'
sg58
g18
sg26
S'A'
sg59
F0
sg60
(lp486
sg62
I0
sg63
S''
sg9
S"H2'2"
p487
sg64
F0
sS'f'
(lp488
sg66
S''
sg67
I0
sS'q'
F0
sg68
S'ATOM  '
p489
sg70
S' '
sg71
S''
sS'v'
(lp490
I0
aI0
aI0
asg27
S'DT'
p491
sS'x'
(lp492
F-4.2409999999999997
aF5.1440000000000001
aF-16.917999999999999
asg29
g2
sg23
I31
sba(ipmx.atom
Atom
p493
(dp494
g34
(lp495
sg36
I0
sg21
g14
sS'm'
F0
sg37
S''
sg38
S" O3'"
p496
sg40
S' '
sg41
S''
sg42
S''
sg43
I32
sg44
F0
sg45
I1
sg46
F1
sg47
F0
sg24
S'A'
sg48
(lp497
sg50
(lp498
sg52
F0
sg53
S''
sg54
F0
sg55
(lp499
sg57
S'O'
sg58
g18
sg26
S'A'
sg59
F0
sg60
(lp500
sg62
I0
sg63
S''
sg9
S"O3'"
p501
sg64
F0
sS'f'
(lp502
sg66
S''
sg67
I0
sS'q'
F0
sg68
S'ATOM  '
p503
sg70
S' '
sg71
S''
sS'v'
(lp504
I0
aI0
aI0
asg27
S'DT'
p505
sS'x'
(lp506
F-4.4669999999999996
aF7.4000000000000004
aF-15.637
asg29
g2
sg23
I32
sbasg43
I1
sS'previous'
p507
Nsbasg30
(lp508
g32
ag74
ag88
ag102
ag116
ag130
ag144
ag158
ag172
ag186
ag200
ag214
ag228
ag242
ag256
ag270
ag284
ag298
ag312
ag326
ag340
ag354
ag368
ag382
ag396
ag410
ag423
ag437
ag451
ag465
ag479
ag493
asS'nres'
p509
I0
sg26
S'A'
sg29
g2
sS'residue_tree_ok'
p510
I00
sg43
S'A'
sbsS'B'
(ipmx.chain
Chain
p511
(dp512
g16
(lp513
(ipmx.molecule
Molecule
p514
(dp515
g20
I0
sg21
g511
sg22
S''
sg23
I2
sg24
S'B'
sg25
Nsg26
S'A'
sg27
S'DA'
p516
sg29
g2
sg30
(lp517
(ipmx.atom
Atom
p518
(dp519
g34
(lp520
sg36
I0
sg21
g511
sS'm'
F0
sg37
S''
sg38
S' P  '
p521
sg40
S' '
sg41
S''
sg42
S''
sg43
I33
sg44
F0
sg45
I2
sg46
F1
sg47
F0
sg24
S'B'
sg48
(lp522
sg50
(lp523
sg52
F0
sg53
S''
sg54
F0
sg55
(lp524
sg57
S'P'
sg58
g514
sg26
S'A'
sg59
F0
sg60
(lp525
sg62
I0
sg63
S''
sg9
S'P'
sg64
F0
sS'f'
(lp526
sg66
S''
sg67
I0
sS'q'
F0
sg68
S'ATOM  '
p527
sg70
S' '
sg71
S''
sS'v'
(lp528
I0
aI0
aI0
asg27
g516
sS'x'
(lp529
F6.7359999999999998
aF-6.2690000000000001
aF-16.318999999999999
asg29
g2
sg23
I33
sba(ipmx.atom
Atom
p530
(dp531
g34
(lp532
sg36
I0
sg21
g511
sS'm'
F0
sg37
S''
sg38
S' O1P'
p533
sg40
S' '
sg41
S''
sg42
S''
sg43
I34
sg44
F0
sg45
I2
sg46
F1
sg47
F0
sg24
S'B'
sg48
(lp534
sg50
(lp535
sg52
F0
sg53
S''
sg54
F0
sg55
(lp536
sg57
S'O'
sg58
g514
sg26
S'A'
sg59
F0
sg60
(lp537
sg62
I0
sg63
S''
sg9
S'O1P'
p538
sg64
F0
sS'f'
(lp539
sg66
S''
sg67
I0
sS'q'
F0
sg68
S'ATOM  '
p540
sg70
S' '
sg71
S''
sS'v'
(lp541
I0
aI0
aI0
asg27
S'DA'
p542
sS'x'
(lp543
F8.2189999999999994
aF-6.444
aF-16.231000000000002
asg29
g2
sg23
I34
sba(ipmx.atom
Atom
p544
(dp545
g34
(lp546
sg36
I0
sg21
g511
sS'm'
F0
sg37
S''
sg38
S' O2P'
p547
sg40
S' '
sg41
S''
sg42
S''
sg43
I35
sg44
F0
sg45
I2
sg46
F1
sg47
F0
sg24
S'B'
sg48
(lp548
sg50
(lp549
sg52
F0
sg53
S''
sg54
F0
sg55
(lp550
sg57
S'O'
sg58
g514
sg26
S'A'
sg59
F0
sg60
(lp551
sg62
I0
sg63
S''
sg9
S'O2P'
p552
sg64
F0
sS'f'
(lp553
sg66
S''
sg67
I0
sS'q'
F0
sg68
S'ATOM  '
p554
sg70
S' '
sg71
S''
sS'v'
(lp555
I0
aI0
aI0
asg27
S'DA'
p556
sS'x'
(lp557
F5.8410000000000002
aF-7.0640000000000001
aF-15.484999999999999
asg29
g2
sg23
I35
sba(ipmx.atom
Atom
p558
(dp559
g34
(lp560
sg36
I0
sg21
g511
sS'm'
F0
sg37
S''
sg38
S" O5'"
p561
sg40
S' '
sg41
S''
sg42
S''
sg43
I36
sg44
F0
sg45
I2
sg46
F1
sg47
F0
sg24
S'B'
sg48
(lp562
sg50
(lp563
sg52
F0
sg53
S''
sg54
F0
sg55
(lp564
sg57
S'O'
sg58
g514
sg26
S'A'
sg59
F0
sg60
(lp565
sg62
I0
sg63
S''
sg9
S"O5'"
p566
sg64
F0
sS'f'
(lp567
sg66
S''
sg67
I0
sS'q'
F0
sg68
S'ATOM  '
p568
sg70
S' '
sg71
S''
sS'v'
(lp569
I0
aI0
aI0
asg27
S'DA'
p570
sS'x'
(lp571
F6.4649999999999999
aF-4.7110000000000003
aF-16.120000000000001
asg29
g2
sg23
I36
sba(ipmx.atom
Atom
p572
(dp573
g34
(lp574
sg36
I0
sg21
g511
sS'm'
F0
sg37
S''
sg38
S" C5'"
p575
sg40
S' '
sg41
S''
sg42
S''
sg43
I37
sg44
F0
sg45
I2
sg46
F1
sg47
F0
sg24
S'B'
sg48
(lp576
sg50
(lp577
sg52
F0
sg53
S''
sg54
F0
sg55
(lp578
sg57
S'C'
sg58
g514
sg26
S'A'
sg59
F0
sg60
(lp579
sg62
I0
sg63
S''
sg9
S"C5'"
p580
sg64
F0
sS'f'
(lp581
sg66
S''
sg67
I0
sS'q'
F0
sg68
S'ATOM  '
p582
sg70
S' '
sg71
S''
sS'v'
(lp583
I0
aI0
aI0
asg27
S'DA'
p584
sS'x'
(lp585
F7.0640000000000001
aF-3.7389999999999999
aF-16.972999999999999
asg29
g2
sg23
I37
sba(ipmx.atom
Atom
p586
(dp587
g34
(lp588
sg36
I0
sg21
g511
sS'm'
F0
sg37
S''
sg38
S"1H5'"
p589
sg40
S' '
sg41
S''
sg42
S''
sg43
I38
sg44
F0
sg45
I2
sg46
F1
sg47
F0
sg24
S'B'
sg48
(lp590
sg50
(lp591
sg52
F0
sg53
S''
sg54
F0
sg55
(lp592
sg57
S'H'
sg58
g514
sg26
S'A'
sg59
F0
sg60
(lp593
sg62
I0
sg63
S''
sg9
S"H5'1"
p594
sg64
F0
sS'f'
(lp595
sg66
S''
sg67
I0
sS'q'
F0
sg68
S'ATOM  '
p596
sg70
S' '
sg71
S''
sS'v'
(lp597
I0
aI0
aI0
asg27
S'DA'
p598
sS'x'
(lp599
F8.0129999999999999
aF-4.1159999999999997
aF-17.363
asg29
g2
sg23
I38
sba(ipmx.atom
Atom
p600
(dp601
g34
(lp602
sg36
I0
sg21
g511
sS'm'
F0
sg37
S''
sg38
S"2H5'"
p603
sg40
S' '
sg41
S''
sg42
S''
sg43
I39
sg44
F0
sg45
I2
sg46
F1
sg47
F0
sg24
S'B'
sg48
(lp604
sg50
(lp605
sg52
F0
sg53
S''
sg54
F0
sg55
(lp606
sg57
S'H'
sg58
g514
sg26
S'A'
sg59
F0
sg60
(lp607
sg62
I0
sg63
S''
sg9
S"H5'2"
p608
sg64
F0
sS'f'
(lp609
sg66
S''
sg67
I0
sS'q'
F0
sg68
S'ATOM  '
p610
sg70
S' '
sg71
S''
sS'v'
(lp611
I0
aI0
aI0
asg27
S'DA'
p612
sS'x'
(lp613
F6.4169999999999998
aF-3.5720000000000001
aF-17.838000000000001
asg29
g2
sg23
I39
sba(ipmx.atom
Atom
p614
(dp615
g34
(lp616
sg36
I0
sg21
g511
sS'm'
F0
sg37
S''
sg38
S" C4'"
p617
sg40
S' '
sg41
S''
sg42
S''
sg43
I40
sg44
F0
sg45
I2
sg46
F1
sg47
F0
sg24
S'B'
sg48
(lp618
sg50
(lp619
sg52
F0
sg53
S''
sg54
F0
sg55
(lp620
sg57
S'C'
sg58
g514
sg26
S'A'
sg59
F0
sg60
(lp621
sg62
I0
sg63
S''
sg9
S"C4'"
p622
sg64
F0
sS'f'
(lp623
sg66
S''
sg67
I0
sS'q'
F0
sg68
S'ATOM  '
p624
sg70
S' '
sg71
S''
sS'v'
(lp625
I0
aI0
aI0
asg27
S'DA'
p626
sS'x'
(lp627
F7.3179999999999996
aF-2.3969999999999998
aF-16.260999999999999
asg29
g2
sg23
I40
sba(ipmx.atom
Atom
p628
(dp629
g34
(lp630
sg36
I0
sg21
g511
sS'm'
F0
sg37
S''
sg38
S" H4'"
p631
sg40
S' '
sg41
S''
sg42
S''
sg43
I41
sg44
F0
sg45
I2
sg46
F1
sg47
F0
sg24
S'B'
sg48
(lp632
sg50
(lp633
sg52
F0
sg53
S''
sg54
F0
sg55
(lp634
sg57
S'H'
sg58
g514
sg26
S'A'
sg59
F0
sg60
(lp635
sg62
I0
sg63
S''
sg9
S"H4'"
p636
sg64
F0
sS'f'
(lp637
sg66
S''
sg67
I0
sS'q'
F0
sg68
S'ATOM  '
p638
sg70
S' '
sg71
S''
sS'v'
(lp639
I0
aI0
aI0
asg27
S'DA'
p640
sS'x'
(lp641
F8.0600000000000005
aF-1.849
aF-16.838000000000001
asg29
g2
sg23
I41
sba(ipmx.atom
Atom
p642
(dp643
g34
(lp644
sg36
I0
sg21
g511
sS'm'
F0
sg37
S''
sg38
S" O4'"
p645
sg40
S' '
sg41
S''
sg42
S''
sg43
I42
sg44
F0
sg45
I2
sg46
F1
sg47
F0
sg24
S'B'
sg48
(lp646
sg50
(lp647
sg52
F0
sg53
S''
sg54
F0
sg55
(lp648
sg57
S'O'
sg58
g514
sg26
S'A'
sg59
F0
sg60
(lp649
sg62
I0
sg63
S''
sg9
S"O4'"
p650
sg64
F0
sS'f'
(lp651
sg66
S''
sg67
I0
sS'q'
F0
sg68
S'ATOM  '
p652
sg70
S' '
sg71
S''
sS'v'
(lp653
I0
aI0
aI0
asg27
S'DA'
p654
sS'x'
(lp655
F6.1020000000000003
aF-1.6539999999999999
aF-16.247
asg29
g2
sg23
I42
sba(ipmx.atom
Atom
p656
(dp657
g34
(lp658
sg36
I0
sg21
g511
sS'm'
F0
sg37
S''
sg38
S" C1'"
p659
sg40
S' '
sg41
S''
sg42
S''
sg43
I43
sg44
F0
sg45
I2
sg46
F1
sg47
F0
sg24
S'B'
sg48
(lp660
sg50
(lp661
sg52
F0
sg53
S''
sg54
F0
sg55
(lp662
sg57
S'C'
sg58
g514
sg26
S'A'
sg59
F0
sg60
(lp663
sg62
I0
sg63
S''
sg9
S"C1'"
p664
sg64
F0
sS'f'
(lp665
sg66
S''
sg67
I0
sS'q'
F0
sg68
S'ATOM  '
p666
sg70
S' '
sg71
S''
sS'v'
(lp667
I0
aI0
aI0
asg27
S'DA'
p668
sS'x'
(lp669
F5.532
aF-1.7210000000000001
aF-14.946999999999999
asg29
g2
sg23
I43
sba(ipmx.atom
Atom
p670
(dp671
g34
(lp672
sg36
I0
sg21
g511
sS'm'
F0
sg37
S''
sg38
S" H1'"
p673
sg40
S' '
sg41
S''
sg42
S''
sg43
I44
sg44
F0
sg45
I2
sg46
F1
sg47
F0
sg24
S'B'
sg48
(lp674
sg50
(lp675
sg52
F0
sg53
S''
sg54
F0
sg55
(lp676
sg57
S'H'
sg58
g514
sg26
S'A'
sg59
F0
sg60
(lp677
sg62
I0
sg63
S''
sg9
S"H1'"
p678
sg64
F0
sS'f'
(lp679
sg66
S''
sg67
I0
sS'q'
F0
sg68
S'ATOM  '
p680
sg70
S' '
sg71
S''
sS'v'
(lp681
I0
aI0
aI0
asg27
S'DA'
p682
sS'x'
(lp683
F5.5410000000000004
aF-0.72299999999999998
aF-14.506
asg29
g2
sg23
I44
sba(ipmx.atom
Atom
p684
(dp685
g34
(lp686
sg36
I0
sg21
g511
sS'm'
F0
sg37
S''
sg38
S' N9 '
p687
sg40
S' '
sg41
S''
sg42
S''
sg43
I45
sg44
F0
sg45
I2
sg46
F1
sg47
F0
sg24
S'B'
sg48
(lp688
sg50
(lp689
sg52
F0
sg53
S''
sg54
F0
sg55
(lp690
sg57
S'N'
sg58
g514
sg26
S'A'
sg59
F0
sg60
(lp691
sg62
I0
sg63
S''
sg9
S'N9'
p692
sg64
F0
sS'f'
(lp693
sg66
S''
sg67
I0
sS'q'
F0
sg68
S'ATOM  '
p694
sg70
S' '
sg71
S''
sS'v'
(lp695
I0
aI0
aI0
asg27
S'DA'
p696
sS'x'
(lp697
F4.1310000000000002
aF-2.202
aF-15.026999999999999
asg29
g2
sg23
I45
sba(ipmx.atom
Atom
p698
(dp699
g34
(lp700
sg36
I0
sg21
g511
sS'm'
F0
sg37
S''
sg38
S' C8 '
p701
sg40
S' '
sg41
S''
sg42
S''
sg43
I46
sg44
F0
sg45
I2
sg46
F1
sg47
F0
sg24
S'B'
sg48
(lp702
sg50
(lp703
sg52
F0
sg53
S''
sg54
F0
sg55
(lp704
sg57
S'C'
sg58
g514
sg26
S'A'
sg59
F0
sg60
(lp705
sg62
I0
sg63
S''
sg9
S'C8'
p706
sg64
F0
sS'f'
(lp707
sg66
S''
sg67
I0
sS'q'
F0
sg68
S'ATOM  '
p708
sg70
S' '
sg71
S''
sS'v'
(lp709
I0
aI0
aI0
asg27
S'DA'
p710
sS'x'
(lp711
F3.6619999999999999
aF-3.4900000000000002
aF-15.087
asg29
g2
sg23
I46
sba(ipmx.atom
Atom
p712
(dp713
g34
(lp714
sg36
I0
sg21
g511
sS'm'
F0
sg37
S''
sg38
S' H8 '
p715
sg40
S' '
sg41
S''
sg42
S''
sg43
I47
sg44
F0
sg45
I2
sg46
F1
sg47
F0
sg24
S'B'
sg48
(lp716
sg50
(lp717
sg52
F0
sg53
S''
sg54
F0
sg55
(lp718
sg57
S'H'
sg58
g514
sg26
S'A'
sg59
F0
sg60
(lp719
sg62
I0
sg63
S''
sg9
S'H8'
p720
sg64
F0
sS'f'
(lp721
sg66
S''
sg67
I0
sS'q'
F0
sg68
S'ATOM  '
p722
sg70
S' '
sg71
S''
sS'v'
(lp723
I0
aI0
aI0
asg27
S'DA'
p724
sS'x'
(lp725
F4.3339999999999996
aF-4.3339999999999996
aF-15.087999999999999
asg29
g2
sg23
I47
sba(ipmx.atom
Atom
p726
(dp727
g34
(lp728
sg36
I0
sg21
g511
sS'm'
F0
sg37
S''
sg38
S' N7 '
p729
sg40
S' '
sg41
S''
sg42
S''
sg43
I48
sg44
F0
sg45
I2
sg46
F1
sg47
F0
sg24
S'B'
sg48
(lp730
sg50
(lp731
sg52
F0
sg53
S''
sg54
F0
sg55
(lp732
sg57
S'N'
sg58
g514
sg26
S'A'
sg59
F0
sg60
(lp733
sg62
I0
sg63
S''
sg9
S'N7'
p734
sg64
F0
sS'f'
(lp735
sg66
S''
sg67
I0
sS'q'
F0
sg68
S'ATOM  '
p736
sg70
S' '
sg71
S''
sS'v'
(lp737
I0
aI0
aI0
asg27
S'DA'
p738
sS'x'
(lp739
F2.363
aF-3.609
aF-15.17
asg29
g2
sg23
I48
sba(ipmx.atom
Atom
p740
(dp741
g34
(lp742
sg36
I0
sg21
g511
sS'm'
F0
sg37
S''
sg38
S' C5 '
p743
sg40
S' '
sg41
S''
sg42
S''
sg43
I49
sg44
F0
sg45
I2
sg46
F1
sg47
F0
sg24
S'B'
sg48
(lp744
sg50
(lp745
sg52
F0
sg53
S''
sg54
F0
sg55
(lp746
sg57
S'C'
sg58
g514
sg26
S'A'
sg59
F0
sg60
(lp747
sg62
I0
sg63
S''
sg9
S'C5'
p748
sg64
F0
sS'f'
(lp749
sg66
S''
sg67
I0
sS'q'
F0
sg68
S'ATOM  '
p750
sg70
S' '
sg71
S''
sS'v'
(lp751
I0
aI0
aI0
asg27
S'DA'
p752
sS'x'
(lp753
F1.9450000000000001
aF-2.2759999999999998
aF-15.112
asg29
g2
sg23
I49
sba(ipmx.atom
Atom
p754
(dp755
g34
(lp756
sg36
I0
sg21
g511
sS'm'
F0
sg37
S''
sg38
S' C6 '
p757
sg40
S' '
sg41
S''
sg42
S''
sg43
I50
sg44
F0
sg45
I2
sg46
F1
sg47
F0
sg24
S'B'
sg48
(lp758
sg50
(lp759
sg52
F0
sg53
S''
sg54
F0
sg55
(lp760
sg57
S'C'
sg58
g514
sg26
S'A'
sg59
F0
sg60
(lp761
sg62
I0
sg63
S''
sg9
S'C6'
p762
sg64
F0
sS'f'
(lp763
sg66
S''
sg67
I0
sS'q'
F0
sg68
S'ATOM  '
p764
sg70
S' '
sg71
S''
sS'v'
(lp765
I0
aI0
aI0
asg27
S'DA'
p766
sS'x'
(lp767
F0.68500000000000005
aF-1.645
aF-15.125999999999999
asg29
g2
sg23
I50
sba(ipmx.atom
Atom
p768
(dp769
g34
(lp770
sg36
I0
sg21
g511
sS'm'
F0
sg37
S''
sg38
S' N6 '
p771
sg40
S' '
sg41
S''
sg42
S''
sg43
I51
sg44
F0
sg45
I2
sg46
F1
sg47
F0
sg24
S'B'
sg48
(lp772
sg50
(lp773
sg52
F0
sg53
S''
sg54
F0
sg55
(lp774
sg57
S'N'
sg58
g514
sg26
S'A'
sg59
F0
sg60
(lp775
sg62
I0
sg63
S''
sg9
S'N6'
p776
sg64
F0
sS'f'
(lp777
sg66
S''
sg67
I0
sS'q'
F0
sg68
S'ATOM  '
p778
sg70
S' '
sg71
S''
sS'v'
(lp779
I0
aI0
aI0
asg27
S'DA'
p780
sS'x'
(lp781
F-0.44700000000000001
aF-2.319
aF-15.218
asg29
g2
sg23
I51
sba(ipmx.atom
Atom
p782
(dp783
g34
(lp784
sg36
I0
sg21
g511
sS'm'
F0
sg37
S''
sg38
S' H61'
p785
sg40
S' '
sg41
S''
sg42
S''
sg43
I52
sg44
F0
sg45
I2
sg46
F1
sg47
F0
sg24
S'B'
sg48
(lp786
sg50
(lp787
sg52
F0
sg53
S''
sg54
F0
sg55
(lp788
sg57
S'H'
sg58
g514
sg26
S'A'
sg59
F0
sg60
(lp789
sg62
I0
sg63
S''
sg9
S'H61'
p790
sg64
F0
sS'f'
(lp791
sg66
S''
sg67
I0
sS'q'
F0
sg68
S'ATOM  '
p792
sg70
S' '
sg71
S''
sS'v'
(lp793
I0
aI0
aI0
asg27
S'DA'
p794
sS'x'
(lp795
F-0.38400000000000001
aF-3.3180000000000001
aF-15.252000000000001
asg29
g2
sg23
I52
sba(ipmx.atom
Atom
p796
(dp797
g34
(lp798
sg36
I0
sg21
g511
sS'm'
F0
sg37
S''
sg38
S' H62'
p799
sg40
S' '
sg41
S''
sg42
S''
sg43
I53
sg44
F0
sg45
I2
sg46
F1
sg47
F0
sg24
S'B'
sg48
(lp800
sg50
(lp801
sg52
F0
sg53
S''
sg54
F0
sg55
(lp802
sg57
S'H'
sg58
g514
sg26
S'A'
sg59
F0
sg60
(lp803
sg62
I0
sg63
S''
sg9
S'H62'
p804
sg64
F0
sS'f'
(lp805
sg66
S''
sg67
I0
sS'q'
F0
sg68
S'ATOM  '
p806
sg70
S' '
sg71
S''
sS'v'
(lp807
I0
aI0
aI0
asg27
S'DA'
p808
sS'x'
(lp809
F-1.335
aF-1.833
aF-15.214
asg29
g2
sg23
I53
sba(ipmx.atom
Atom
p810
(dp811
g34
(lp812
sg36
I0
sg21
g511
sS'm'
F0
sg37
S''
sg38
S' N1 '
p813
sg40
S' '
sg41
S''
sg42
S''
sg43
I54
sg44
F0
sg45
I2
sg46
F1
sg47
F0
sg24
S'B'
sg48
(lp814
sg50
(lp815
sg52
F0
sg53
S''
sg54
F0
sg55
(lp816
sg57
S'N'
sg58
g514
sg26
S'A'
sg59
F0
sg60
(lp817
sg62
I0
sg63
S''
sg9
S'N1'
p818
sg64
F0
sS'f'
(lp819
sg66
S''
sg67
I0
sS'q'
F0
sg68
S'ATOM  '
p820
sg70
S' '
sg71
S''
sS'v'
(lp821
I0
aI0
aI0
asg27
S'DA'
p822
sS'x'
(lp823
F0.57499999999999996
aF-0.317
aF-15.048999999999999
asg29
g2
sg23
I54
sba(ipmx.atom
Atom
p824
(dp825
g34
(lp826
sg36
I0
sg21
g511
sS'm'
F0
sg37
S''
sg38
S' C2 '
p827
sg40
S' '
sg41
S''
sg42
S''
sg43
I55
sg44
F0
sg45
I2
sg46
F1
sg47
F0
sg24
S'B'
sg48
(lp828
sg50
(lp829
sg52
F0
sg53
S''
sg54
F0
sg55
(lp830
sg57
S'C'
sg58
g514
sg26
S'A'
sg59
F0
sg60
(lp831
sg62
I0
sg63
S''
sg9
S'C2'
p832
sg64
F0
sS'f'
(lp833
sg66
S''
sg67
I0
sS'q'
F0
sg68
S'ATOM  '
p834
sg70
S' '
sg71
S''
sS'v'
(lp835
I0
aI0
aI0
asg27
S'DA'
p836
sS'x'
(lp837
F1.6990000000000001
aF0.38800000000000001
aF-14.961
asg29
g2
sg23
I55
sba(ipmx.atom
Atom
p838
(dp839
g34
(lp840
sg36
I0
sg21
g511
sS'm'
F0
sg37
S''
sg38
S' H2 '
p841
sg40
S' '
sg41
S''
sg42
S''
sg43
I56
sg44
F0
sg45
I2
sg46
F1
sg47
F0
sg24
S'B'
sg48
(lp842
sg50
(lp843
sg52
F0
sg53
S''
sg54
F0
sg55
(lp844
sg57
S'H'
sg58
g514
sg26
S'A'
sg59
F0
sg60
(lp845
sg62
I0
sg63
S''
sg9
S'H2'
p846
sg64
F0
sS'f'
(lp847
sg66
S''
sg67
I0
sS'q'
F0
sg68
S'ATOM  '
p848
sg70
S' '
sg71
S''
sS'v'
(lp849
I0
aI0
aI0
asg27
S'DA'
p850
sS'x'
(lp851
F1.591
aF1.462
aF-14.887
asg29
g2
sg23
I56
sba(ipmx.atom
Atom
p852
(dp853
g34
(lp854
sg36
I0
sg21
g511
sS'm'
F0
sg37
S''
sg38
S' N3 '
p855
sg40
S' '
sg41
S''
sg42
S''
sg43
I57
sg44
F0
sg45
I2
sg46
F1
sg47
F0
sg24
S'B'
sg48
(lp856
sg50
(lp857
sg52
F0
sg53
S''
sg54
F0
sg55
(lp858
sg57
S'N'
sg58
g514
sg26
S'A'
sg59
F0
sg60
(lp859
sg62
I0
sg63
S''
sg9
S'N3'
p860
sg64
F0
sS'f'
(lp861
sg66
S''
sg67
I0
sS'q'
F0
sg68
S'ATOM  '
p862
sg70
S' '
sg71
S''
sS'v'
(lp863
I0
aI0
aI0
asg27
S'DA'
p864
sS'x'
(lp865
F2.9449999999999998
aF-0.057000000000000002
aF-14.936999999999999
asg29
g2
sg23
I57
sba(ipmx.atom
Atom
p866
(dp867
g34
(lp868
sg36
I0
sg21
g511
sS'm'
F0
sg37
S''
sg38
S' C4 '
p869
sg40
S' '
sg41
S''
sg42
S''
sg43
I58
sg44
F0
sg45
I2
sg46
F1
sg47
F0
sg24
S'B'
sg48
(lp870
sg50
(lp871
sg52
F0
sg53
S''
sg54
F0
sg55
(lp872
sg57
S'C'
sg58
g514
sg26
S'A'
sg59
F0
sg60
(lp873
sg62
I0
sg63
S''
sg9
S'C4'
p874
sg64
F0
sS'f'
(lp875
sg66
S''
sg67
I0
sS'q'
F0
sg68
S'ATOM  '
p876
sg70
S' '
sg71
S''
sS'v'
(lp877
I0
aI0
aI0
asg27
S'DA'
p878
sS'x'
(lp879
F3.0049999999999999
aF-1.4139999999999999
aF-15.023999999999999
asg29
g2
sg23
I58
sba(ipmx.atom
Atom
p880
(dp881
g34
(lp882
sg36
I0
sg21
g511
sS'm'
F0
sg37
S''
sg38
S" C3'"
p883
sg40
S' '
sg41
S''
sg42
S''
sg43
I59
sg44
F0
sg45
I2
sg46
F1
sg47
F0
sg24
S'B'
sg48
(lp884
sg50
(lp885
sg52
F0
sg53
S''
sg54
F0
sg55
(lp886
sg57
S'C'
sg58
g514
sg26
S'A'
sg59
F0
sg60
(lp887
sg62
I0
sg63
S''
sg9
S"C3'"
p888
sg64
F0
sS'f'
(lp889
sg66
S''
sg67
I0
sS'q'
F0
sg68
S'ATOM  '
p890
sg70
S' '
sg71
S''
sS'v'
(lp891
I0
aI0
aI0
asg27
S'DA'
p892
sS'x'
(lp893
F7.8099999999999996
aF-2.5270000000000001
aF-14.803000000000001
asg29
g2
sg23
I59
sba(ipmx.atom
Atom
p894
(dp895
g34
(lp896
sg36
I0
sg21
g511
sS'm'
F0
sg37
S''
sg38
S" H3'"
p897
sg40
S' '
sg41
S''
sg42
S''
sg43
I60
sg44
F0
sg45
I2
sg46
F1
sg47
F0
sg24
S'B'
sg48
(lp898
sg50
(lp899
sg52
F0
sg53
S''
sg54
F0
sg55
(lp900
sg57
S'H'
sg58
g514
sg26
S'A'
sg59
F0
sg60
(lp901
sg62
I0
sg63
S''
sg9
S"H3'"
p902
sg64
F0
sS'f'
(lp903
sg66
S''
sg67
I0
sS'q'
F0
sg68
S'ATOM  '
p904
sg70
S' '
sg71
S''
sS'v'
(lp905
I0
aI0
aI0
asg27
S'DA'
p906
sS'x'
(lp907
F8.3610000000000007
aF-3.4550000000000001
aF-14.664
asg29
g2
sg23
I60
sba(ipmx.atom
Atom
p908
(dp909
g34
(lp910
sg36
I0
sg21
g511
sS'm'
F0
sg37
S''
sg38
S" C2'"
p911
sg40
S' '
sg41
S''
sg42
S''
sg43
I61
sg44
F0
sg45
I2
sg46
F1
sg47
F0
sg24
S'B'
sg48
(lp912
sg50
(lp913
sg52
F0
sg53
S''
sg54
F0
sg55
(lp914
sg57
S'C'
sg58
g514
sg26
S'A'
sg59
F0
sg60
(lp915
sg62
I0
sg63
S''
sg9
S"C2'"
p916
sg64
F0
sS'f'
(lp917
sg66
S''
sg67
I0
sS'q'
F0
sg68
S'ATOM  '
p918
sg70
S' '
sg71
S''
sS'v'
(lp919
I0
aI0
aI0
asg27
S'DA'
p920
sS'x'
(lp921
F6.4459999999999997
aF-2.6150000000000002
aF-14.103
asg29
g2
sg23
I61
sba(ipmx.atom
Atom
p922
(dp923
g34
(lp924
sg36
I0
sg21
g511
sS'm'
F0
sg37
S''
sg38
S"1H2'"
p925
sg40
S' '
sg41
S''
sg42
S''
sg43
I62
sg44
F0
sg45
I2
sg46
F1
sg47
F0
sg24
S'B'
sg48
(lp926
sg50
(lp927
sg52
F0
sg53
S''
sg54
F0
sg55
(lp928
sg57
S'H'
sg58
g514
sg26
S'A'
sg59
F0
sg60
(lp929
sg62
I0
sg63
S''
sg9
S"H2'1"
p930
sg64
F0
sS'f'
(lp931
sg66
S''
sg67
I0
sS'q'
F0
sg68
S'ATOM  '
p932
sg70
S' '
sg71
S''
sS'v'
(lp933
I0
aI0
aI0
asg27
S'DA'
p934
sS'x'
(lp935
F6.0910000000000002
aF-3.645
aF-14.077999999999999
asg29
g2
sg23
I62
sba(ipmx.atom
Atom
p936
(dp937
g34
(lp938
sg36
I0
sg21
g511
sS'm'
F0
sg37
S''
sg38
S"2H2'"
p939
sg40
S' '
sg41
S''
sg42
S''
sg43
I63
sg44
F0
sg45
I2
sg46
F1
sg47
F0
sg24
S'B'
sg48
(lp940
sg50
(lp941
sg52
F0
sg53
S''
sg54
F0
sg55
(lp942
sg57
S'H'
sg58
g514
sg26
S'A'
sg59
F0
sg60
(lp943
sg62
I0
sg63
S''
sg9
S"H2'2"
p944
sg64
F0
sS'f'
(lp945
sg66
S''
sg67
I0
sS'q'
F0
sg68
S'ATOM  '
p946
sg70
S' '
sg71
S''
sS'v'
(lp947
I0
aI0
aI0
asg27
S'DA'
p948
sS'x'
(lp949
F6.4850000000000003
aF-2.3050000000000002
aF-13.079000000000001
asg29
g2
sg23
I63
sba(ipmx.atom
Atom
p950
(dp951
g34
(lp952
sg36
I0
sg21
g511
sS'm'
F0
sg37
S''
sg38
S" O3'"
p953
sg40
S' '
sg41
S''
sg42
S''
sg43
I64
sg44
F0
sg45
I2
sg46
F1
sg47
F0
sg24
S'B'
sg48
(lp954
sg50
(lp955
sg52
F0
sg53
S''
sg54
F0
sg55
(lp956
sg57
S'O'
sg58
g514
sg26
S'A'
sg59
F0
sg60
(lp957
sg62
I0
sg63
S''
sg9
S"O3'"
p958
sg64
F0
sS'f'
(lp959
sg66
S''
sg67
I0
sS'q'
F0
sg68
S'ATOM  '
p960
sg70
S' '
sg71
S''
sS'v'
(lp961
I0
aI0
aI0
asg27
S'DA'
p962
sS'x'
(lp963
F8.6799999999999997
aF-1.4319999999999999
aF-14.446999999999999
asg29
g2
sg23
I64
sbasg43
I2
sg507
Nsbasg30
(lp964
g518
ag530
ag544
ag558
ag572
ag586
ag600
ag614
ag628
ag642
ag656
ag670
ag684
ag698
ag712
ag726
ag740
ag754
ag768
ag782
ag796
ag810
ag824
ag838
ag852
ag866
ag880
ag894
ag908
ag922
ag936
ag950
asg509
I0
sg26
S'A'
sg29
g2
sg510
I00
sg43
S'B'
sbssg16
(lp965
g18
ag514
asg30
(lp966
g32
ag74
ag88
ag102
ag116
ag130
ag144
ag158
ag172
ag186
ag200
ag214
ag228
ag242
ag256
ag270
ag284
ag298
ag312
ag326
ag340
ag354
ag368
ag382
ag396
ag410
ag423
ag437
ag451
ag465
ag479
ag493
ag518
ag530
ag544
ag558
ag572
ag586
ag600
ag614
ag628
ag642
ag656
ag670
ag684
ag698
ag712
ag726
ag740
ag754
ag768
ag782
ag796
ag810
ag824
ag838
ag852
ag866
ag880
ag894
ag908
ag922
ag936
ag950
asg26
S'A'
sS'chains'
p967
(lp968
g14
ag511
asg43
I0
sS'have_bonds'
p969
I0
sbsS'c'
(ipmx.model
Model
p970
(dp971
g4
(lp972
(lp973
I0
aI0
aI0
aa(lp974
I0
aI0
aI0
aa(lp975
I0
aI0
aI0
aasg9
Nsg10
g11
sg12
(dp976
S'A'
(ipmx.chain
Chain
p977
(dp978
g16
(lp979
(ipmx.molecule
Molecule
p980
(dp981
g20
I0
sg21
g977
sg22
S''
sg23
I1
sg24
S'A'
sg25
Nsg26
S'A'
sg27
S'DG'
p982
sg29
g970
sg30
(lp983
(ipmx.atom
Atom
p984
(dp985
g34
(lp986
sg36
I0
sg21
g977
sS'm'
F0
sg37
S''
sg38
S' P  '
p987
sg40
S' '
sg41
S''
sg42
S''
sg43
I1
sg44
F0
sg45
I1
sg46
F1
sg47
F0
sg24
S'A'
sg48
(lp988
sg50
(lp989
sg52
F0
sg53
S''
sg54
F0
sg55
(lp990
sg57
S'P'
sg58
g980
sg26
S'A'
sg59
F0
sg60
(lp991
sg62
I0
sg63
S''
sg9
S'P'
sg64
F0
sS'f'
(lp992
sg66
S''
sg67
I0
sS'q'
F0
sg68
S'ATOM  '
p993
sg70
S' '
sg71
S''
sS'v'
(lp994
I0
aI0
aI0
asg27
g982
sS'x'
(lp995
F-8.1809999999999992
aF3.77
aF-13.833
asg29
g970
sg23
I1
sba(ipmx.atom
Atom
p996
(dp997
g34
(lp998
sg36
I0
sg21
g977
sS'm'
F0
sg37
S''
sg38
S' O1P'
p999
sg40
S' '
sg41
S''
sg42
S''
sg43
I2
sg44
F0
sg45
I1
sg46
F1
sg47
F0
sg24
S'A'
sg48
(lp1000
sg50
(lp1001
sg52
F0
sg53
S''
sg54
F0
sg55
(lp1002
sg57
S'O'
sg58
g980
sg26
S'A'
sg59
F0
sg60
(lp1003
sg62
I0
sg63
S''
sg9
S'O1P'
p1004
sg64
F0
sS'f'
(lp1005
sg66
S''
sg67
I0
sS'q'
F0
sg68
S'ATOM  '
p1006
sg70
S' '
sg71
S''
sS'v'
(lp1007
I0
aI0
aI0
asg27
S'DG'
p1008
sS'x'
(lp1009
F-8.8800000000000008
aF5.0700000000000003
aF-13.997
asg29
g970
sg23
I2
sba(ipmx.atom
Atom
p1010
(dp1011
g34
(lp1012
sg36
I0
sg21
g977
sS'm'
F0
sg37
S''
sg38
S' O2P'
p1013
sg40
S' '
sg41
S''
sg42
S''
sg43
I3
sg44
F0
sg45
I1
sg46
F1
sg47
F0
sg24
S'A'
sg48
(lp1014
sg50
(lp1015
sg52
F0
sg53
S''
sg54
F0
sg55
(lp1016
sg57
S'O'
sg58
g980
sg26
S'A'
sg59
F0
sg60
(lp1017
sg62
I0
sg63
S''
sg9
S'O2P'
p1018
sg64
F0
sS'f'
(lp1019
sg66
S''
sg67
I0
sS'q'
F0
sg68
S'ATOM  '
p1020
sg70
S' '
sg71
S''
sS'v'
(lp1021
I0
aI0
aI0
asg27
S'DG'
p1022
sS'x'
(lp1023
F-8.5359999999999996
aF2.6099999999999999
aF-14.67
asg29
g970
sg23
I3
sba(ipmx.atom
Atom
p1024
(dp1025
g34
(lp1026
sg36
I0
sg21
g977
sS'm'
F0
sg37
S''
sg38
S" O5'"
p1027
sg40
S' '
sg41
S''
sg42
S''
sg43
I4
sg44
F0
sg45
I1
sg46
F1
sg47
F0
sg24
S'A'
sg48
(lp1028
sg50
(lp1029
sg52
F0
sg53
S''
sg54
F0
sg55
(lp1030
sg57
S'O'
sg58
g980
sg26
S'A'
sg59
F0
sg60
(lp1031
sg62
I0
sg63
S''
sg9
S"O5'"
p1032
sg64
F0
sS'f'
(lp1033
sg66
S''
sg67
I0
sS'q'
F0
sg68
S'ATOM  '
p1034
sg70
S' '
sg71
S''
sS'v'
(lp1035
I0
aI0
aI0
asg27
S'DG'
p1036
sS'x'
(lp1037
F-6.6360000000000001
aF4.0789999999999997
aF-14.023999999999999
asg29
g970
sg23
I4
sba(ipmx.atom
Atom
p1038
(dp1039
g34
(lp1040
sg36
I0
sg21
g977
sS'm'
F0
sg37
S''
sg38
S" C5'"
p1041
sg40
S' '
sg41
S''
sg42
S''
sg43
I5
sg44
F0
sg45
I1
sg46
F1
sg47
F0
sg24
S'A'
sg48
(lp1042
sg50
(lp1043
sg52
F0
sg53
S''
sg54
F0
sg55
(lp1044
sg57
S'C'
sg58
g980
sg26
S'A'
sg59
F0
sg60
(lp1045
sg62
I0
sg63
S''
sg9
S"C5'"
p1046
sg64
F0
sS'f'
(lp1047
sg66
S''
sg67
I0
sS'q'
F0
sg68
S'ATOM  '
p1048
sg70
S' '
sg71
S''
sS'v'
(lp1049
I0
aI0
aI0
asg27
S'DG'
p1050
sS'x'
(lp1051
F-5.9660000000000002
aF4.931
aF-13.106
asg29
g970
sg23
I5
sba(ipmx.atom
Atom
p1052
(dp1053
g34
(lp1054
sg36
I0
sg21
g977
sS'm'
F0
sg37
S''
sg38
S"1H5'"
p1055
sg40
S' '
sg41
S''
sg42
S''
sg43
I6
sg44
F0
sg45
I1
sg46
F1
sg47
F0
sg24
S'A'
sg48
(lp1056
sg50
(lp1057
sg52
F0
sg53
S''
sg54
F0
sg55
(lp1058
sg57
S'H'
sg58
g980
sg26
S'A'
sg59
F0
sg60
(lp1059
sg62
I0
sg63
S''
sg9
S"H5'1"
p1060
sg64
F0
sS'f'
(lp1061
sg66
S''
sg67
I0
sS'q'
F0
sg68
S'ATOM  '
p1062
sg70
S' '
sg71
S''
sS'v'
(lp1063
I0
aI0
aI0
asg27
S'DG'
p1064
sS'x'
(lp1065
F-6.6859999999999999
aF5.6399999999999997
aF-12.692
asg29
g970
sg23
I6
sba(ipmx.atom
Atom
p1066
(dp1067
g34
(lp1068
sg36
I0
sg21
g977
sS'm'
F0
sg37
S''
sg38
S"2H5'"
p1069
sg40
S' '
sg41
S''
sg42
S''
sg43
I7
sg44
F0
sg45
I1
sg46
F1
sg47
F0
sg24
S'A'
sg48
(lp1070
sg50
(lp1071
sg52
F0
sg53
S''
sg54
F0
sg55
(lp1072
sg57
S'H'
sg58
g980
sg26
S'A'
sg59
F0
sg60
(lp1073
sg62
I0
sg63
S''
sg9
S"H5'2"
p1074
sg64
F0
sS'f'
(lp1075
sg66
S''
sg67
I0
sS'q'
F0
sg68
S'ATOM  '
p1076
sg70
S' '
sg71
S''
sS'v'
(lp1077
I0
aI0
aI0
asg27
S'DG'
p1078
sS'x'
(lp1079
F-5.6079999999999997
aF4.3310000000000004
aF-12.265000000000001
asg29
g970
sg23
I7
sba(ipmx.atom
Atom
p1080
(dp1081
g34
(lp1082
sg36
I0
sg21
g977
sS'm'
F0
sg37
S''
sg38
S" C4'"
p1083
sg40
S' '
sg41
S''
sg42
S''
sg43
I8
sg44
F0
sg45
I1
sg46
F1
sg47
F0
sg24
S'A'
sg48
(lp1084
sg50
(lp1085
sg52
F0
sg53
S''
sg54
F0
sg55
(lp1086
sg57
S'C'
sg58
g980
sg26
S'A'
sg59
F0
sg60
(lp1087
sg62
I0
sg63
S''
sg9
S"C4'"
p1088
sg64
F0
sS'f'
(lp1089
sg66
S''
sg67
I0
sS'q'
F0
sg68
S'ATOM  '
p1090
sg70
S' '
sg71
S''
sS'v'
(lp1091
I0
aI0
aI0
asg27
S'DG'
p1092
sS'x'
(lp1093
F-4.7969999999999997
aF5.702
aF-13.74
asg29
g970
sg23
I8
sba(ipmx.atom
Atom
p1094
(dp1095
g34
(lp1096
sg36
I0
sg21
g977
sS'm'
F0
sg37
S''
sg38
S" H4'"
p1097
sg40
S' '
sg41
S''
sg42
S''
sg43
I9
sg44
F0
sg45
I1
sg46
F1
sg47
F0
sg24
S'A'
sg48
(lp1098
sg50
(lp1099
sg52
F0
sg53
S''
sg54
F0
sg55
(lp1100
sg57
S'H'
sg58
g980
sg26
S'A'
sg59
F0
sg60
(lp1101
sg62
I0
sg63
S''
sg9
S"H4'"
p1102
sg64
F0
sS'f'
(lp1103
sg66
S''
sg67
I0
sS'q'
F0
sg68
S'ATOM  '
p1104
sg70
S' '
sg71
S''
sS'v'
(lp1105
I0
aI0
aI0
asg27
S'DG'
p1106
sS'x'
(lp1107
F-4.5970000000000004
aF6.5510000000000002
aF-13.090999999999999
asg29
g970
sg23
I9
sba(ipmx.atom
Atom
p1108
(dp1109
g34
(lp1110
sg36
I0
sg21
g977
sS'm'
F0
sg37
S''
sg38
S" O4'"
p1111
sg40
S' '
sg41
S''
sg42
S''
sg43
I10
sg44
F0
sg45
I1
sg46
F1
sg47
F0
sg24
S'A'
sg48
(lp1112
sg50
(lp1113
sg52
F0
sg53
S''
sg54
F0
sg55
(lp1114
sg57
S'O'
sg58
g980
sg26
S'A'
sg59
F0
sg60
(lp1115
sg62
I0
sg63
S''
sg9
S"O4'"
p1116
sg64
F0
sS'f'
(lp1117
sg66
S''
sg67
I0
sS'q'
F0
sg68
S'ATOM  '
p1118
sg70
S' '
sg71
S''
sS'v'
(lp1119
I0
aI0
aI0
asg27
S'DG'
p1120
sS'x'
(lp1121
F-3.665
aF4.8380000000000001
aF-13.747
asg29
g970
sg23
I10
sba(ipmx.atom
Atom
p1122
(dp1123
g34
(lp1124
sg36
I0
sg21
g977
sS'm'
F0
sg37
S''
sg38
S" C1'"
p1125
sg40
S' '
sg41
S''
sg42
S''
sg43
I11
sg44
F0
sg45
I1
sg46
F1
sg47
F0
sg24
S'A'
sg48
(lp1126
sg50
(lp1127
sg52
F0
sg53
S''
sg54
F0
sg55
(lp1128
sg57
S'C'
sg58
g980
sg26
S'A'
sg59
F0
sg60
(lp1129
sg62
I0
sg63
S''
sg9
S"C1'"
p1130
sg64
F0
sS'f'
(lp1131
sg66
S''
sg67
I0
sS'q'
F0
sg68
S'ATOM  '
p1132
sg70
S' '
sg71
S''
sS'v'
(lp1133
I0
aI0
aI0
asg27
S'DG'
p1134
sS'x'
(lp1135
F-3.476
aF4.351
aF-15.064
asg29
g970
sg23
I11
sba(ipmx.atom
Atom
p1136
(dp1137
g34
(lp1138
sg36
I0
sg21
g977
sS'm'
F0
sg37
S''
sg38
S" H1'"
p1139
sg40
S' '
sg41
S''
sg42
S''
sg43
I12
sg44
F0
sg45
I1
sg46
F1
sg47
F0
sg24
S'A'
sg48
(lp1140
sg50
(lp1141
sg52
F0
sg53
S''
sg54
F0
sg55
(lp1142
sg57
S'H'
sg58
g980
sg26
S'A'
sg59
F0
sg60
(lp1143
sg62
I0
sg63
S''
sg9
S"H1'"
p1144
sg64
F0
sS'f'
(lp1145
sg66
S''
sg67
I0
sS'q'
F0
sg68
S'ATOM  '
p1146
sg70
S' '
sg71
S''
sS'v'
(lp1147
I0
aI0
aI0
asg27
S'DG'
p1148
sS'x'
(lp1149
F-2.5350000000000001
aF4.7489999999999997
aF-15.444000000000001
asg29
g970
sg23
I12
sba(ipmx.atom
Atom
p1150
(dp1151
g34
(lp1152
sg36
I0
sg21
g977
sS'm'
F0
sg37
S''
sg38
S' N9 '
p1153
sg40
S' '
sg41
S''
sg42
S''
sg43
I13
sg44
F0
sg45
I1
sg46
F1
sg47
F0
sg24
S'A'
sg48
(lp1154
sg50
(lp1155
sg52
F0
sg53
S''
sg54
F0
sg55
(lp1156
sg57
S'N'
sg58
g980
sg26
S'A'
sg59
F0
sg60
(lp1157
sg62
I0
sg63
S''
sg9
S'N9'
p1158
sg64
F0
sS'f'
(lp1159
sg66
S''
sg67
I0
sS'q'
F0
sg68
S'ATOM  '
p1160
sg70
S' '
sg71
S''
sS'v'
(lp1161
I0
aI0
aI0
asg27
S'DG'
p1162
sS'x'
(lp1163
F-3.3889999999999998
aF2.8740000000000001
aF-15.069000000000001
asg29
g970
sg23
I13
sba(ipmx.atom
Atom
p1164
(dp1165
g34
(lp1166
sg36
I0
sg21
g977
sS'm'
F0
sg37
S''
sg38
S' C8 '
p1167
sg40
S' '
sg41
S''
sg42
S''
sg43
I14
sg44
F0
sg45
I1
sg46
F1
sg47
F0
sg24
S'A'
sg48
(lp1168
sg50
(lp1169
sg52
F0
sg53
S''
sg54
F0
sg55
(lp1170
sg57
S'C'
sg58
g980
sg26
S'A'
sg59
F0
sg60
(lp1171
sg62
I0
sg63
S''
sg9
S'C8'
p1172
sg64
F0
sS'f'
(lp1173
sg66
S''
sg67
I0
sS'q'
F0
sg68
S'ATOM  '
p1174
sg70
S' '
sg71
S''
sS'v'
(lp1175
I0
aI0
aI0
asg27
S'DG'
p1176
sS'x'
(lp1177
F-4.4009999999999998
aF1.946
aF-15.106999999999999
asg29
g970
sg23
I14
sba(ipmx.atom
Atom
p1178
(dp1179
g34
(lp1180
sg36
I0
sg21
g977
sS'm'
F0
sg37
S''
sg38
S' H8 '
p1181
sg40
S' '
sg41
S''
sg42
S''
sg43
I15
sg44
F0
sg45
I1
sg46
F1
sg47
F0
sg24
S'A'
sg48
(lp1182
sg50
(lp1183
sg52
F0
sg53
S''
sg54
F0
sg55
(lp1184
sg57
S'H'
sg58
g980
sg26
S'A'
sg59
F0
sg60
(lp1185
sg62
I0
sg63
S''
sg9
S'H8'
p1186
sg64
F0
sS'f'
(lp1187
sg66
S''
sg67
I0
sS'q'
F0
sg68
S'ATOM  '
p1188
sg70
S' '
sg71
S''
sS'v'
(lp1189
I0
aI0
aI0
asg27
S'DG'
p1190
sS'x'
(lp1191
F-5.4450000000000003
aF2.226
aF-15.122
asg29
g970
sg23
I15
sba(ipmx.atom
Atom
p1192
(dp1193
g34
(lp1194
sg36
I0
sg21
g977
sS'm'
F0
sg37
S''
sg38
S' N7 '
p1195
sg40
S' '
sg41
S''
sg42
S''
sg43
I16
sg44
F0
sg45
I1
sg46
F1
sg47
F0
sg24
S'A'
sg48
(lp1196
sg50
(lp1197
sg52
F0
sg53
S''
sg54
F0
sg55
(lp1198
sg57
S'N'
sg58
g980
sg26
S'A'
sg59
F0
sg60
(lp1199
sg62
I0
sg63
S''
sg9
S'N7'
p1200
sg64
F0
sS'f'
(lp1201
sg66
S''
sg67
I0
sS'q'
F0
sg68
S'ATOM  '
p1202
sg70
S' '
sg71
S''
sS'v'
(lp1203
I0
aI0
aI0
asg27
S'DG'
p1204
sS'x'
(lp1205
F-3.996
aF0.70799999999999996
aF-15.109999999999999
asg29
g970
sg23
I16
sba(ipmx.atom
Atom
p1206
(dp1207
g34
(lp1208
sg36
I0
sg21
g977
sS'm'
F0
sg37
S''
sg38
S' C5 '
p1209
sg40
S' '
sg41
S''
sg42
S''
sg43
I17
sg44
F0
sg45
I1
sg46
F1
sg47
F0
sg24
S'A'
sg48
(lp1210
sg50
(lp1211
sg52
F0
sg53
S''
sg54
F0
sg55
(lp1212
sg57
S'C'
sg58
g980
sg26
S'A'
sg59
F0
sg60
(lp1213
sg62
I0
sg63
S''
sg9
S'C5'
p1214
sg64
F0
sS'f'
(lp1215
sg66
S''
sg67
I0
sS'q'
F0
sg68
S'ATOM  '
p1216
sg70
S' '
sg71
S''
sS'v'
(lp1217
I0
aI0
aI0
asg27
S'DG'
p1218
sS'x'
(lp1219
F-2.605
aF0.82499999999999996
aF-15.087999999999999
asg29
g970
sg23
I17
sba(ipmx.atom
Atom
p1220
(dp1221
g34
(lp1222
sg36
I0
sg21
g977
sS'm'
F0
sg37
S''
sg38
S' C6 '
p1223
sg40
S' '
sg41
S''
sg42
S''
sg43
I18
sg44
F0
sg45
I1
sg46
F1
sg47
F0
sg24
S'A'
sg48
(lp1224
sg50
(lp1225
sg52
F0
sg53
S''
sg54
F0
sg55
(lp1226
sg57
S'C'
sg58
g980
sg26
S'A'
sg59
F0
sg60
(lp1227
sg62
I0
sg63
S''
sg9
S'C6'
p1228
sg64
F0
sS'f'
(lp1229
sg66
S''
sg67
I0
sS'q'
F0
sg68
S'ATOM  '
p1230
sg70
S' '
sg71
S''
sS'v'
(lp1231
I0
aI0
aI0
asg27
S'DG'
p1232
sS'x'
(lp1233
F-1.5760000000000001
aF-0.16600000000000001
aF-15.089
asg29
g970
sg23
I18
sba(ipmx.atom
Atom
p1234
(dp1235
g34
(lp1236
sg36
I0
sg21
g977
sS'm'
F0
sg37
S''
sg38
S' O6 '
p1237
sg40
S' '
sg41
S''
sg42
S''
sg43
I19
sg44
F0
sg45
I1
sg46
F1
sg47
F0
sg24
S'A'
sg48
(lp1238
sg50
(lp1239
sg52
F0
sg53
S''
sg54
F0
sg55
(lp1240
sg57
S'O'
sg58
g980
sg26
S'A'
sg59
F0
sg60
(lp1241
sg62
I0
sg63
S''
sg9
S'O6'
p1242
sg64
F0
sS'f'
(lp1243
sg66
S''
sg67
I0
sS'q'
F0
sg68
S'ATOM  '
p1244
sg70
S' '
sg71
S''
sS'v'
(lp1245
I0
aI0
aI0
asg27
S'DG'
p1246
sS'x'
(lp1247
F-1.6930000000000001
aF-1.387
aF-15.095000000000001
asg29
g970
sg23
I19
sba(ipmx.atom
Atom
p1248
(dp1249
g34
(lp1250
sg36
I0
sg21
g977
sS'm'
F0
sg37
S''
sg38
S' N1 '
p1251
sg40
S' '
sg41
S''
sg42
S''
sg43
I20
sg44
F0
sg45
I1
sg46
F1
sg47
F0
sg24
S'A'
sg48
(lp1252
sg50
(lp1253
sg52
F0
sg53
S''
sg54
F0
sg55
(lp1254
sg57
S'N'
sg58
g980
sg26
S'A'
sg59
F0
sg60
(lp1255
sg62
I0
sg63
S''
sg9
S'N1'
p1256
sg64
F0
sS'f'
(lp1257
sg66
S''
sg67
I0
sS'q'
F0
sg68
S'ATOM  '
p1258
sg70
S' '
sg71
S''
sS'v'
(lp1259
I0
aI0
aI0
asg27
S'DG'
p1260
sS'x'
(lp1261
F-0.29899999999999999
aF0.35399999999999998
aF-15.087
asg29
g970
sg23
I20
sba(ipmx.atom
Atom
p1262
(dp1263
g34
(lp1264
sg36
I0
sg21
g977
sS'm'
F0
sg37
S''
sg38
S' H1 '
p1265
sg40
S' '
sg41
S''
sg42
S''
sg43
I21
sg44
F0
sg45
I1
sg46
F1
sg47
F0
sg24
S'A'
sg48
(lp1266
sg50
(lp1267
sg52
F0
sg53
S''
sg54
F0
sg55
(lp1268
sg57
S'H'
sg58
g980
sg26
S'A'
sg59
F0
sg60
(lp1269
sg62
I0
sg63
S''
sg9
S'H1'
p1270
sg64
F0
sS'f'
(lp1271
sg66
S''
sg67
I0
sS'q'
F0
sg68
S'ATOM  '
p1272
sg70
S' '
sg71
S''
sS'v'
(lp1273
I0
aI0
aI0
asg27
S'DG'
p1274
sS'x'
(lp1275
F0.46800000000000003
aF-0.29999999999999999
aF-15.081
asg29
g970
sg23
I21
sba(ipmx.atom
Atom
p1276
(dp1277
g34
(lp1278
sg36
I0
sg21
g977
sS'm'
F0
sg37
S''
sg38
S' C2 '
p1279
sg40
S' '
sg41
S''
sg42
S''
sg43
I22
sg44
F0
sg45
I1
sg46
F1
sg47
F0
sg24
S'A'
sg48
(lp1280
sg50
(lp1281
sg52
F0
sg53
S''
sg54
F0
sg55
(lp1282
sg57
S'C'
sg58
g980
sg26
S'A'
sg59
F0
sg60
(lp1283
sg62
I0
sg63
S''
sg9
S'C2'
p1284
sg64
F0
sS'f'
(lp1285
sg66
S''
sg67
I0
sS'q'
F0
sg68
S'ATOM  '
p1286
sg70
S' '
sg71
S''
sS'v'
(lp1287
I0
aI0
aI0
asg27
S'DG'
p1288
sS'x'
(lp1289
F-0.021000000000000001
aF1.681
aF-15.095000000000001
asg29
g970
sg23
I22
sba(ipmx.atom
Atom
p1290
(dp1291
g34
(lp1292
sg36
I0
sg21
g977
sS'm'
F0
sg37
S''
sg38
S' N2 '
p1293
sg40
S' '
sg41
S''
sg42
S''
sg43
I23
sg44
F0
sg45
I1
sg46
F1
sg47
F0
sg24
S'A'
sg48
(lp1294
sg50
(lp1295
sg52
F0
sg53
S''
sg54
F0
sg55
(lp1296
sg57
S'N'
sg58
g980
sg26
S'A'
sg59
F0
sg60
(lp1297
sg62
I0
sg63
S''
sg9
S'N2'
p1298
sg64
F0
sS'f'
(lp1299
sg66
S''
sg67
I0
sS'q'
F0
sg68
S'ATOM  '
p1300
sg70
S' '
sg71
S''
sS'v'
(lp1301
I0
aI0
aI0
asg27
S'DG'
p1302
sS'x'
(lp1303
F1.2470000000000001
aF2.012
aF-15.09
asg29
g970
sg23
I23
sba(ipmx.atom
Atom
p1304
(dp1305
g34
(lp1306
sg36
I0
sg21
g977
sS'm'
F0
sg37
S''
sg38
S' H21'
p1307
sg40
S' '
sg41
S''
sg42
S''
sg43
I24
sg44
F0
sg45
I1
sg46
F1
sg47
F0
sg24
S'A'
sg48
(lp1308
sg50
(lp1309
sg52
F0
sg53
S''
sg54
F0
sg55
(lp1310
sg57
S'H'
sg58
g980
sg26
S'A'
sg59
F0
sg60
(lp1311
sg62
I0
sg63
S''
sg9
S'H21'
p1312
sg64
F0
sS'f'
(lp1313
sg66
S''
sg67
I0
sS'q'
F0
sg68
S'ATOM  '
p1314
sg70
S' '
sg71
S''
sS'v'
(lp1315
I0
aI0
aI0
asg27
S'DG'
p1316
sS'x'
(lp1317
F1.482
aF2.9889999999999999
aF-15.103999999999999
asg29
g970
sg23
I24
sba(ipmx.atom
Atom
p1318
(dp1319
g34
(lp1320
sg36
I0
sg21
g977
sS'm'
F0
sg37
S''
sg38
S' H22'
p1321
sg40
S' '
sg41
S''
sg42
S''
sg43
I25
sg44
F0
sg45
I1
sg46
F1
sg47
F0
sg24
S'A'
sg48
(lp1322
sg50
(lp1323
sg52
F0
sg53
S''
sg54
F0
sg55
(lp1324
sg57
S'H'
sg58
g980
sg26
S'A'
sg59
F0
sg60
(lp1325
sg62
I0
sg63
S''
sg9
S'H22'
p1326
sg64
F0
sS'f'
(lp1327
sg66
S''
sg67
I0
sS'q'
F0
sg68
S'ATOM  '
p1328
sg70
S' '
sg71
S''
sS'v'
(lp1329
I0
aI0
aI0
asg27
S'DG'
p1330
sS'x'
(lp1331
F1.9730000000000001
aF1.296
aF-15.084
asg29
g970
sg23
I25
sba(ipmx.atom
Atom
p1332
(dp1333
g34
(lp1334
sg36
I0
sg21
g977
sS'm'
F0
sg37
S''
sg38
S' N3 '
p1335
sg40
S' '
sg41
S''
sg42
S''
sg43
I26
sg44
F0
sg45
I1
sg46
F1
sg47
F0
sg24
S'A'
sg48
(lp1336
sg50
(lp1337
sg52
F0
sg53
S''
sg54
F0
sg55
(lp1338
sg57
S'N'
sg58
g980
sg26
S'A'
sg59
F0
sg60
(lp1339
sg62
I0
sg63
S''
sg9
S'N3'
p1340
sg64
F0
sS'f'
(lp1341
sg66
S''
sg67
I0
sS'q'
F0
sg68
S'ATOM  '
p1342
sg70
S' '
sg71
S''
sS'v'
(lp1343
I0
aI0
aI0
asg27
S'DG'
p1344
sS'x'
(lp1345
F-0.93999999999999995
aF2.641
aF-15.097
asg29
g970
sg23
I26
sba(ipmx.atom
Atom
p1346
(dp1347
g34
(lp1348
sg36
I0
sg21
g977
sS'm'
F0
sg37
S''
sg38
S' C4 '
p1349
sg40
S' '
sg41
S''
sg42
S''
sg43
I27
sg44
F0
sg45
I1
sg46
F1
sg47
F0
sg24
S'A'
sg48
(lp1350
sg50
(lp1351
sg52
F0
sg53
S''
sg54
F0
sg55
(lp1352
sg57
S'C'
sg58
g980
sg26
S'A'
sg59
F0
sg60
(lp1353
sg62
I0
sg63
S''
sg9
S'C4'
p1354
sg64
F0
sS'f'
(lp1355
sg66
S''
sg67
I0
sS'q'
F0
sg68
S'ATOM  '
p1356
sg70
S' '
sg71
S''
sS'v'
(lp1357
I0
aI0
aI0
asg27
S'DG'
p1358
sS'x'
(lp1359
F-2.2210000000000001
aF2.1520000000000001
aF-15.082000000000001
asg29
g970
sg23
I27
sba(ipmx.atom
Atom
p1360
(dp1361
g34
(lp1362
sg36
I0
sg21
g977
sS'm'
F0
sg37
S''
sg38
S" C3'"
p1363
sg40
S' '
sg41
S''
sg42
S''
sg43
I28
sg44
F0
sg45
I1
sg46
F1
sg47
F0
sg24
S'A'
sg48
(lp1364
sg50
(lp1365
sg52
F0
sg53
S''
sg54
F0
sg55
(lp1366
sg57
S'C'
sg58
g980
sg26
S'A'
sg59
F0
sg60
(lp1367
sg62
I0
sg63
S''
sg9
S"C3'"
p1368
sg64
F0
sS'f'
(lp1369
sg66
S''
sg67
I0
sS'q'
F0
sg68
S'ATOM  '
p1370
sg70
S' '
sg71
S''
sS'v'
(lp1371
I0
aI0
aI0
asg27
S'DG'
p1372
sS'x'
(lp1373
F-5.0860000000000003
aF6.165
aF-15.199999999999999
asg29
g970
sg23
I28
sba(ipmx.atom
Atom
p1374
(dp1375
g34
(lp1376
sg36
I0
sg21
g977
sS'm'
F0
sg37
S''
sg38
S" H3'"
p1377
sg40
S' '
sg41
S''
sg42
S''
sg43
I29
sg44
F0
sg45
I1
sg46
F1
sg47
F0
sg24
S'A'
sg48
(lp1378
sg50
(lp1379
sg52
F0
sg53
S''
sg54
F0
sg55
(lp1380
sg57
S'H'
sg58
g980
sg26
S'A'
sg59
F0
sg60
(lp1381
sg62
I0
sg63
S''
sg9
S"H3'"
p1382
sg64
F0
sS'f'
(lp1383
sg66
S''
sg67
I0
sS'q'
F0
sg68
S'ATOM  '
p1384
sg70
S' '
sg71
S''
sS'v'
(lp1385
I0
aI0
aI0
asg27
S'DG'
p1386
sS'x'
(lp1387
F-6.1550000000000002
aF6.3040000000000003
aF-15.327999999999999
asg29
g970
sg23
I29
sba(ipmx.atom
Atom
p1388
(dp1389
g34
(lp1390
sg36
I0
sg21
g977
sS'm'
F0
sg37
S''
sg38
S" C2'"
p1391
sg40
S' '
sg41
S''
sg42
S''
sg43
I30
sg44
F0
sg45
I1
sg46
F1
sg47
F0
sg24
S'A'
sg48
(lp1392
sg50
(lp1393
sg52
F0
sg53
S''
sg54
F0
sg55
(lp1394
sg57
S'C'
sg58
g980
sg26
S'A'
sg59
F0
sg60
(lp1395
sg62
I0
sg63
S''
sg9
S"C2'"
p1396
sg64
F0
sS'f'
(lp1397
sg66
S''
sg67
I0
sS'q'
F0
sg68
S'ATOM  '
p1398
sg70
S' '
sg71
S''
sS'v'
(lp1399
I0
aI0
aI0
asg27
S'DG'
p1400
sS'x'
(lp1401
F-4.6130000000000004
aF4.9039999999999999
aF-15.927
asg29
g970
sg23
I30
sba(ipmx.atom
Atom
p1402
(dp1403
g34
(lp1404
sg36
I0
sg21
g977
sS'm'
F0
sg37
S''
sg38
S"1H2'"
p1405
sg40
S' '
sg41
S''
sg42
S''
sg43
I31
sg44
F0
sg45
I1
sg46
F1
sg47
F0
sg24
S'A'
sg48
(lp1406
sg50
(lp1407
sg52
F0
sg53
S''
sg54
F0
sg55
(lp1408
sg57
S'H'
sg58
g980
sg26
S'A'
sg59
F0
sg60
(lp1409
sg62
I0
sg63
S''
sg9
S"H2'1"
p1410
sg64
F0
sS'f'
(lp1411
sg66
S''
sg67
I0
sS'q'
F0
sg68
S'ATOM  '
p1412
sg70
S' '
sg71
S''
sS'v'
(lp1413
I0
aI0
aI0
asg27
S'DG'
p1414
sS'x'
(lp1415
F-5.4320000000000004
aF4.1959999999999997
aF-16.027999999999999
asg29
g970
sg23
I31
sba(ipmx.atom
Atom
p1416
(dp1417
g34
(lp1418
sg36
I0
sg21
g977
sS'm'
F0
sg37
S''
sg38
S"2H2'"
p1419
sg40
S' '
sg41
S''
sg42
S''
sg43
I32
sg44
F0
sg45
I1
sg46
F1
sg47
F0
sg24
S'A'
sg48
(lp1420
sg50
(lp1421
sg52
F0
sg53
S''
sg54
F0
sg55
(lp1422
sg57
S'H'
sg58
g980
sg26
S'A'
sg59
F0
sg60
(lp1423
sg62
I0
sg63
S''
sg9
S"H2'2"
p1424
sg64
F0
sS'f'
(lp1425
sg66
S''
sg67
I0
sS'q'
F0
sg68
S'ATOM  '
p1426
sg70
S' '
sg71
S''
sS'v'
(lp1427
I0
aI0
aI0
asg27
S'DG'
p1428
sS'x'
(lp1429
F-4.274
aF5.1130000000000004
aF-16.920000000000002
asg29
g970
sg23
I32
sba(ipmx.atom
Atom
p1430
(dp1431
g34
(lp1432
sg36
I0
sg21
g977
sS'm'
F0
sg37
S''
sg38
S" O3'"
p1433
sg40
S' '
sg41
S''
sg42
S''
sg43
I33
sg44
F0
sg45
I1
sg46
F1
sg47
F0
sg24
S'A'
sg48
(lp1434
sg50
(lp1435
sg52
F0
sg53
S''
sg54
F0
sg55
(lp1436
sg57
S'O'
sg58
g980
sg26
S'A'
sg59
F0
sg60
(lp1437
sg62
I0
sg63
S''
sg9
S"O3'"
p1438
sg64
F0
sS'f'
(lp1439
sg66
S''
sg67
I0
sS'q'
F0
sg68
S'ATOM  '
p1440
sg70
S' '
sg71
S''
sS'v'
(lp1441
I0
aI0
aI0
asg27
S'DG'
p1442
sS'x'
(lp1443
F-4.4749999999999996
aF7.3949999999999996
aF-15.640000000000001
asg29
g970
sg23
I33
sbasg43
I1
sg507
Nsbasg30
(lp1444
g984
ag996
ag1010
ag1024
ag1038
ag1052
ag1066
ag1080
ag1094
ag1108
ag1122
ag1136
ag1150
ag1164
ag1178
ag1192
ag1206
ag1220
ag1234
ag1248
ag1262
ag1276
ag1290
ag1304
ag1318
ag1332
ag1346
ag1360
ag1374
ag1388
ag1402
ag1416
ag1430
asg509
I0
sg26
S'A'
sg29
g970
sg510
I00
sg43
S'A'
sbsS'B'
(ipmx.chain
Chain
p1445
(dp1446
g16
(lp1447
(ipmx.molecule
Molecule
p1448
(dp1449
g20
I0
sg21
g1445
sg22
S''
sg23
I2
sg24
S'B'
sg25
Nsg26
S'A'
sg27
S'DC'
p1450
sg29
g970
sg30
(lp1451
(ipmx.atom
Atom
p1452
(dp1453
g34
(lp1454
sg36
I0
sg21
g1445
sS'm'
F0
sg37
S''
sg38
S' P  '
p1455
sg40
S' '
sg41
S''
sg42
S''
sg43
I34
sg44
F0
sg45
I2
sg46
F1
sg47
F0
sg24
S'B'
sg48
(lp1456
sg50
(lp1457
sg52
F0
sg53
S''
sg54
F0
sg55
(lp1458
sg57
S'P'
sg58
g1448
sg26
S'A'
sg59
F0
sg60
(lp1459
sg62
I0
sg63
S''
sg9
S'P'
sg64
F0
sS'f'
(lp1460
sg66
S''
sg67
I0
sS'q'
F0
sg68
S'ATOM  '
p1461
sg70
S' '
sg71
S''
sS'v'
(lp1462
I0
aI0
aI0
asg27
g1450
sS'x'
(lp1463
F6.6879999999999997
aF-6.3099999999999996
aF-16.321999999999999
asg29
g970
sg23
I34
sba(ipmx.atom
Atom
p1464
(dp1465
g34
(lp1466
sg36
I0
sg21
g1445
sS'm'
F0
sg37
S''
sg38
S' O1P'
p1467
sg40
S' '
sg41
S''
sg42
S''
sg43
I35
sg44
F0
sg45
I2
sg46
F1
sg47
F0
sg24
S'B'
sg48
(lp1468
sg50
(lp1469
sg52
F0
sg53
S''
sg54
F0
sg55
(lp1470
sg57
S'O'
sg58
g1448
sg26
S'A'
sg59
F0
sg60
(lp1471
sg62
I0
sg63
S''
sg9
S'O1P'
p1472
sg64
F0
sS'f'
(lp1473
sg66
S''
sg67
I0
sS'q'
F0
sg68
S'ATOM  '
p1474
sg70
S' '
sg71
S''
sS'v'
(lp1475
I0
aI0
aI0
asg27
S'DC'
p1476
sS'x'
(lp1477
F8.1720000000000006
aF-6.5010000000000003
aF-16.233000000000001
asg29
g970
sg23
I35
sba(ipmx.atom
Atom
p1478
(dp1479
g34
(lp1480
sg36
I0
sg21
g1445
sS'm'
F0
sg37
S''
sg38
S' O2P'
p1481
sg40
S' '
sg41
S''
sg42
S''
sg43
I36
sg44
F0
sg45
I2
sg46
F1
sg47
F0
sg24
S'B'
sg48
(lp1482
sg50
(lp1483
sg52
F0
sg53
S''
sg54
F0
sg55
(lp1484
sg57
S'O'
sg58
g1448
sg26
S'A'
sg59
F0
sg60
(lp1485
sg62
I0
sg63
S''
sg9
S'O2P'
p1486
sg64
F0
sS'f'
(lp1487
sg66
S''
sg67
I0
sS'q'
F0
sg68
S'ATOM  '
p1488
sg70
S' '
sg71
S''
sS'v'
(lp1489
I0
aI0
aI0
asg27
S'DC'
p1490
sS'x'
(lp1491
F5.7839999999999998
aF-7.0780000000000003
aF-15.474
asg29
g970
sg23
I36
sba(ipmx.atom
Atom
p1492
(dp1493
g34
(lp1494
sg36
I0
sg21
g1445
sS'm'
F0
sg37
S''
sg38
S" O5'"
p1495
sg40
S' '
sg41
S''
sg42
S''
sg43
I37
sg44
F0
sg45
I2
sg46
F1
sg47
F0
sg24
S'B'
sg48
(lp1496
sg50
(lp1497
sg52
F0
sg53
S''
sg54
F0
sg55
(lp1498
sg57
S'O'
sg58
g1448
sg26
S'A'
sg59
F0
sg60
(lp1499
sg62
I0
sg63
S''
sg9
S"O5'"
p1500
sg64
F0
sS'f'
(lp1501
sg66
S''
sg67
I0
sS'q'
F0
sg68
S'ATOM  '
p1502
sg70
S' '
sg71
S''
sS'v'
(lp1503
I0
aI0
aI0
asg27
S'DC'
p1504
sS'x'
(lp1505
F6.4569999999999999
aF-4.7510000000000003
aF-16.120999999999999
asg29
g970
sg23
I37
sba(ipmx.atom
Atom
p1506
(dp1507
g34
(lp1508
sg36
I0
sg21
g1445
sS'm'
F0
sg37
S''
sg38
S" C5'"
p1509
sg40
S' '
sg41
S''
sg42
S''
sg43
I38
sg44
F0
sg45
I2
sg46
F1
sg47
F0
sg24
S'B'
sg48
(lp1510
sg50
(lp1511
sg52
F0
sg53
S''
sg54
F0
sg55
(lp1512
sg57
S'C'
sg58
g1448
sg26
S'A'
sg59
F0
sg60
(lp1513
sg62
I0
sg63
S''
sg9
S"C5'"
p1514
sg64
F0
sS'f'
(lp1515
sg66
S''
sg67
I0
sS'q'
F0
sg68
S'ATOM  '
p1516
sg70
S' '
sg71
S''
sS'v'
(lp1517
I0
aI0
aI0
asg27
S'DC'
p1518
sS'x'
(lp1519
F7.0289999999999999
aF-3.7770000000000001
aF-16.983000000000001
asg29
g970
sg23
I38
sba(ipmx.atom
Atom
p1520
(dp1521
g34
(lp1522
sg36
I0
sg21
g1445
sS'm'
F0
sg37
S''
sg38
S"1H5'"
p1523
sg40
S' '
sg41
S''
sg42
S''
sg43
I39
sg44
F0
sg45
I2
sg46
F1
sg47
F0
sg24
S'B'
sg48
(lp1524
sg50
(lp1525
sg52
F0
sg53
S''
sg54
F0
sg55
(lp1526
sg57
S'H'
sg58
g1448
sg26
S'A'
sg59
F0
sg60
(lp1527
sg62
I0
sg63
S''
sg9
S"H5'1"
p1528
sg64
F0
sS'f'
(lp1529
sg66
S''
sg67
I0
sS'q'
F0
sg68
S'ATOM  '
p1530
sg70
S' '
sg71
S''
sS'v'
(lp1531
I0
aI0
aI0
asg27
S'DC'
p1532
sS'x'
(lp1533
F7.976
aF-4.1509999999999998
aF-17.379000000000001
asg29
g970
sg23
I39
sba(ipmx.atom
Atom
p1534
(dp1535
g34
(lp1536
sg36
I0
sg21
g1445
sS'm'
F0
sg37
S''
sg38
S"2H5'"
p1537
sg40
S' '
sg41
S''
sg42
S''
sg43
I40
sg44
F0
sg45
I2
sg46
F1
sg47
F0
sg24
S'B'
sg48
(lp1538
sg50
(lp1539
sg52
F0
sg53
S''
sg54
F0
sg55
(lp1540
sg57
S'H'
sg58
g1448
sg26
S'A'
sg59
F0
sg60
(lp1541
sg62
I0
sg63
S''
sg9
S"H5'2"
p1542
sg64
F0
sS'f'
(lp1543
sg66
S''
sg67
I0
sS'q'
F0
sg68
S'ATOM  '
p1544
sg70
S' '
sg71
S''
sS'v'
(lp1545
I0
aI0
aI0
asg27
S'DC'
p1546
sS'x'
(lp1547
F6.3700000000000001
aF-3.6120000000000001
aF-17.84
asg29
g970
sg23
I40
sba(ipmx.atom
Atom
p1548
(dp1549
g34
(lp1550
sg36
I0
sg21
g1445
sS'm'
F0
sg37
S''
sg38
S" C4'"
p1551
sg40
S' '
sg41
S''
sg42
S''
sg43
I41
sg44
F0
sg45
I2
sg46
F1
sg47
F0
sg24
S'B'
sg48
(lp1552
sg50
(lp1553
sg52
F0
sg53
S''
sg54
F0
sg55
(lp1554
sg57
S'C'
sg58
g1448
sg26
S'A'
sg59
F0
sg60
(lp1555
sg62
I0
sg63
S''
sg9
S"C4'"
p1556
sg64
F0
sS'f'
(lp1557
sg66
S''
sg67
I0
sS'q'
F0
sg68
S'ATOM  '
p1558
sg70
S' '
sg71
S''
sS'v'
(lp1559
I0
aI0
aI0
asg27
S'DC'
p1560
sS'x'
(lp1561
F7.2789999999999999
aF-2.4350000000000001
aF-16.268999999999998
asg29
g970
sg23
I41
sba(ipmx.atom
Atom
p1562
(dp1563
g34
(lp1564
sg36
I0
sg21
g1445
sS'm'
F0
sg37
S''
sg38
S" H4'"
p1565
sg40
S' '
sg41
S''
sg42
S''
sg43
I42
sg44
F0
sg45
I2
sg46
F1
sg47
F0
sg24
S'B'
sg48
(lp1566
sg50
(lp1567
sg52
F0
sg53
S''
sg54
F0
sg55
(lp1568
sg57
S'H'
sg58
g1448
sg26
S'A'
sg59
F0
sg60
(lp1569
sg62
I0
sg63
S''
sg9
S"H4'"
p1570
sg64
F0
sS'f'
(lp1571
sg66
S''
sg67
I0
sS'q'
F0
sg68
S'ATOM  '
p1572
sg70
S' '
sg71
S''
sS'v'
(lp1573
I0
aI0
aI0
asg27
S'DC'
p1574
sS'x'
(lp1575
F8.0220000000000002
aF-1.889
aF-16.846
asg29
g970
sg23
I42
sba(ipmx.atom
Atom
p1576
(dp1577
g34
(lp1578
sg36
I0
sg21
g1445
sS'm'
F0
sg37
S''
sg38
S" O4'"
p1579
sg40
S' '
sg41
S''
sg42
S''
sg43
I43
sg44
F0
sg45
I2
sg46
F1
sg47
F0
sg24
S'B'
sg48
(lp1580
sg50
(lp1581
sg52
F0
sg53
S''
sg54
F0
sg55
(lp1582
sg57
S'O'
sg58
g1448
sg26
S'A'
sg59
F0
sg60
(lp1583
sg62
I0
sg63
S''
sg9
S"O4'"
p1584
sg64
F0
sS'f'
(lp1585
sg66
S''
sg67
I0
sS'q'
F0
sg68
S'ATOM  '
p1586
sg70
S' '
sg71
S''
sS'v'
(lp1587
I0
aI0
aI0
asg27
S'DC'
p1588
sS'x'
(lp1589
F6.0599999999999996
aF-1.6950000000000001
aF-16.25
asg29
g970
sg23
I43
sba(ipmx.atom
Atom
p1590
(dp1591
g34
(lp1592
sg36
I0
sg21
g1445
sS'm'
F0
sg37
S''
sg38
S" C1'"
p1593
sg40
S' '
sg41
S''
sg42
S''
sg43
I44
sg44
F0
sg45
I2
sg46
F1
sg47
F0
sg24
S'B'
sg48
(lp1594
sg50
(lp1595
sg52
F0
sg53
S''
sg54
F0
sg55
(lp1596
sg57
S'C'
sg58
g1448
sg26
S'A'
sg59
F0
sg60
(lp1597
sg62
I0
sg63
S''
sg9
S"C1'"
p1598
sg64
F0
sS'f'
(lp1599
sg66
S''
sg67
I0
sS'q'
F0
sg68
S'ATOM  '
p1600
sg70
S' '
sg71
S''
sS'v'
(lp1601
I0
aI0
aI0
asg27
S'DC'
p1602
sS'x'
(lp1603
F5.4909999999999997
aF-1.7629999999999999
aF-14.949999999999999
asg29
g970
sg23
I44
sba(ipmx.atom
Atom
p1604
(dp1605
g34
(lp1606
sg36
I0
sg21
g1445
sS'm'
F0
sg37
S''
sg38
S" H1'"
p1607
sg40
S' '
sg41
S''
sg42
S''
sg43
I45
sg44
F0
sg45
I2
sg46
F1
sg47
F0
sg24
S'B'
sg48
(lp1608
sg50
(lp1609
sg52
F0
sg53
S''
sg54
F0
sg55
(lp1610
sg57
S'H'
sg58
g1448
sg26
S'A'
sg59
F0
sg60
(lp1611
sg62
I0
sg63
S''
sg9
S"H1'"
p1612
sg64
F0
sS'f'
(lp1613
sg66
S''
sg67
I0
sS'q'
F0
sg68
S'ATOM  '
p1614
sg70
S' '
sg71
S''
sS'v'
(lp1615
I0
aI0
aI0
asg27
S'DC'
p1616
sS'x'
(lp1617
F5.5199999999999996
aF-0.76000000000000001
aF-14.515000000000001
asg29
g970
sg23
I45
sba(ipmx.atom
Atom
p1618
(dp1619
g34
(lp1620
sg36
I0
sg21
g1445
sS'm'
F0
sg37
S''
sg38
S' N1 '
p1621
sg40
S' '
sg41
S''
sg42
S''
sg43
I46
sg44
F0
sg45
I2
sg46
F1
sg47
F0
sg24
S'B'
sg48
(lp1622
sg50
(lp1623
sg52
F0
sg53
S''
sg54
F0
sg55
(lp1624
sg57
S'N'
sg58
g1448
sg26
S'A'
sg59
F0
sg60
(lp1625
sg62
I0
sg63
S''
sg9
S'N1'
p1626
sg64
F0
sS'f'
(lp1627
sg66
S''
sg67
I0
sS'q'
F0
sg68
S'ATOM  '
p1628
sg70
S' '
sg71
S''
sS'v'
(lp1629
I0
aI0
aI0
asg27
S'DC'
p1630
sS'x'
(lp1631
F4.0720000000000001
aF-2.226
aF-15.026
asg29
g970
sg23
I46
sba(ipmx.atom
Atom
p1632
(dp1633
g34
(lp1634
sg36
I0
sg21
g1445
sS'm'
F0
sg37
S''
sg38
S' C6 '
p1635
sg40
S' '
sg41
S''
sg42
S''
sg43
I47
sg44
F0
sg45
I2
sg46
F1
sg47
F0
sg24
S'B'
sg48
(lp1636
sg50
(lp1637
sg52
F0
sg53
S''
sg54
F0
sg55
(lp1638
sg57
S'C'
sg58
g1448
sg26
S'A'
sg59
F0
sg60
(lp1639
sg62
I0
sg63
S''
sg9
S'C6'
p1640
sg64
F0
sS'f'
(lp1641
sg66
S''
sg67
I0
sS'q'
F0
sg68
S'ATOM  '
p1642
sg70
S' '
sg71
S''
sS'v'
(lp1643
I0
aI0
aI0
asg27
S'DC'
p1644
sS'x'
(lp1645
F3.7480000000000002
aF-3.556
aF-15.090999999999999
asg29
g970
sg23
I47
sba(ipmx.atom
Atom
p1646
(dp1647
g34
(lp1648
sg36
I0
sg21
g1445
sS'm'
F0
sg37
S''
sg38
S' H6 '
p1649
sg40
S' '
sg41
S''
sg42
S''
sg43
I48
sg44
F0
sg45
I2
sg46
F1
sg47
F0
sg24
S'B'
sg48
(lp1650
sg50
(lp1651
sg52
F0
sg53
S''
sg54
F0
sg55
(lp1652
sg57
S'H'
sg58
g1448
sg26
S'A'
sg59
F0
sg60
(lp1653
sg62
I0
sg63
S''
sg9
S'H6'
p1654
sg64
F0
sS'f'
(lp1655
sg66
S''
sg67
I0
sS'q'
F0
sg68
S'ATOM  '
p1656
sg70
S' '
sg71
S''
sS'v'
(lp1657
I0
aI0
aI0
asg27
S'DC'
p1658
sS'x'
(lp1659
F4.5220000000000002
aF-4.298
aF-15.109999999999999
asg29
g970
sg23
I48
sba(ipmx.atom
Atom
p1660
(dp1661
g34
(lp1662
sg36
I0
sg21
g1445
sS'm'
F0
sg37
S''
sg38
S' C5 '
p1663
sg40
S' '
sg41
S''
sg42
S''
sg43
I49
sg44
F0
sg45
I2
sg46
F1
sg47
F0
sg24
S'B'
sg48
(lp1664
sg50
(lp1665
sg52
F0
sg53
S''
sg54
F0
sg55
(lp1666
sg57
S'C'
sg58
g1448
sg26
S'A'
sg59
F0
sg60
(lp1667
sg62
I0
sg63
S''
sg9
S'C5'
p1668
sg64
F0
sS'f'
(lp1669
sg66
S''
sg67
I0
sS'q'
F0
sg68
S'ATOM  '
p1670
sg70
S' '
sg71
S''
sS'v'
(lp1671
I0
aI0
aI0
asg27
S'DC'
p1672
sS'x'
(lp1673
F2.4590000000000001
aF-3.96
aF-15.154999999999999
asg29
g970
sg23
I49
sba(ipmx.atom
Atom
p1674
(dp1675
g34
(lp1676
sg36
I0
sg21
g1445
sS'm'
F0
sg37
S''
sg38
S' H5 '
p1677
sg40
S' '
sg41
S''
sg42
S''
sg43
I50
sg44
F0
sg45
I2
sg46
F1
sg47
F0
sg24
S'B'
sg48
(lp1678
sg50
(lp1679
sg52
F0
sg53
S''
sg54
F0
sg55
(lp1680
sg57
S'H'
sg58
g1448
sg26
S'A'
sg59
F0
sg60
(lp1681
sg62
I0
sg63
S''
sg9
S'H5'
p1682
sg64
F0
sS'f'
(lp1683
sg66
S''
sg67
I0
sS'q'
F0
sg68
S'ATOM  '
p1684
sg70
S' '
sg71
S''
sS'v'
(lp1685
I0
aI0
aI0
asg27
S'DC'
p1686
sS'x'
(lp1687
F2.2280000000000002
aF-5.0099999999999998
aF-15.226000000000001
asg29
g970
sg23
I50
sba(ipmx.atom
Atom
p1688
(dp1689
g34
(lp1690
sg36
I0
sg21
g1445
sS'm'
F0
sg37
S''
sg38
S' C4 '
p1691
sg40
S' '
sg41
S''
sg42
S''
sg43
I51
sg44
F0
sg45
I2
sg46
F1
sg47
F0
sg24
S'B'
sg48
(lp1692
sg50
(lp1693
sg52
F0
sg53
S''
sg54
F0
sg55
(lp1694
sg57
S'C'
sg58
g1448
sg26
S'A'
sg59
F0
sg60
(lp1695
sg62
I0
sg63
S''
sg9
S'C4'
p1696
sg64
F0
sS'f'
(lp1697
sg66
S''
sg67
I0
sS'q'
F0
sg68
S'ATOM  '
p1698
sg70
S' '
sg71
S''
sS'v'
(lp1699
I0
aI0
aI0
asg27
S'DC'
p1700
sS'x'
(lp1701
F1.476
aF-2.956
aF-15.144
asg29
g970
sg23
I51
sba(ipmx.atom
Atom
p1702
(dp1703
g34
(lp1704
sg36
I0
sg21
g1445
sS'm'
F0
sg37
S''
sg38
S' N4 '
p1705
sg40
S' '
sg41
S''
sg42
S''
sg43
I52
sg44
F0
sg45
I2
sg46
F1
sg47
F0
sg24
S'B'
sg48
(lp1706
sg50
(lp1707
sg52
F0
sg53
S''
sg54
F0
sg55
(lp1708
sg57
S'N'
sg58
g1448
sg26
S'A'
sg59
F0
sg60
(lp1709
sg62
I0
sg63
S''
sg9
S'N4'
p1710
sg64
F0
sS'f'
(lp1711
sg66
S''
sg67
I0
sS'q'
F0
sg68
S'ATOM  '
p1712
sg70
S' '
sg71
S''
sS'v'
(lp1713
I0
aI0
aI0
asg27
S'DC'
p1714
sS'x'
(lp1715
F0.23000000000000001
aF-3.3079999999999998
aF-15.224
asg29
g970
sg23
I52
sba(ipmx.atom
Atom
p1716
(dp1717
g34
(lp1718
sg36
I0
sg21
g1445
sS'm'
F0
sg37
S''
sg38
S' H41'
p1719
sg40
S' '
sg41
S''
sg42
S''
sg43
I53
sg44
F0
sg45
I2
sg46
F1
sg47
F0
sg24
S'B'
sg48
(lp1720
sg50
(lp1721
sg52
F0
sg53
S''
sg54
F0
sg55
(lp1722
sg57
S'H'
sg58
g1448
sg26
S'A'
sg59
F0
sg60
(lp1723
sg62
I0
sg63
S''
sg9
S'H41'
p1724
sg64
F0
sS'f'
(lp1725
sg66
S''
sg67
I0
sS'q'
F0
sg68
S'ATOM  '
p1726
sg70
S' '
sg71
S''
sS'v'
(lp1727
I0
aI0
aI0
asg27
S'DC'
p1728
sS'x'
(lp1729
F-0.47299999999999998
aF-2.5790000000000002
aF-15.209
asg29
g970
sg23
I53
sba(ipmx.atom
Atom
p1730
(dp1731
g34
(lp1732
sg36
I0
sg21
g1445
sS'm'
F0
sg37
S''
sg38
S' H42'
p1733
sg40
S' '
sg41
S''
sg42
S''
sg43
I54
sg44
F0
sg45
I2
sg46
F1
sg47
F0
sg24
S'B'
sg48
(lp1734
sg50
(lp1735
sg52
F0
sg53
S''
sg54
F0
sg55
(lp1736
sg57
S'H'
sg58
g1448
sg26
S'A'
sg59
F0
sg60
(lp1737
sg62
I0
sg63
S''
sg9
S'H42'
p1738
sg64
F0
sS'f'
(lp1739
sg66
S''
sg67
I0
sS'q'
F0
sg68
S'ATOM  '
p1740
sg70
S' '
sg71
S''
sS'v'
(lp1741
I0
aI0
aI0
asg27
S'DC'
p1742
sS'x'
(lp1743
F-0.025000000000000001
aF-4.2640000000000002
aF-15.337999999999999
asg29
g970
sg23
I54
sba(ipmx.atom
Atom
p1744
(dp1745
g34
(lp1746
sg36
I0
sg21
g1445
sS'm'
F0
sg37
S''
sg38
S' N3 '
p1747
sg40
S' '
sg41
S''
sg42
S''
sg43
I55
sg44
F0
sg45
I2
sg46
F1
sg47
F0
sg24
S'B'
sg48
(lp1748
sg50
(lp1749
sg52
F0
sg53
S''
sg54
F0
sg55
(lp1750
sg57
S'N'
sg58
g1448
sg26
S'A'
sg59
F0
sg60
(lp1751
sg62
I0
sg63
S''
sg9
S'N3'
p1752
sg64
F0
sS'f'
(lp1753
sg66
S''
sg67
I0
sS'q'
F0
sg68
S'ATOM  '
p1754
sg70
S' '
sg71
S''
sS'v'
(lp1755
I0
aI0
aI0
asg27
S'DC'
p1756
sS'x'
(lp1757
F1.7370000000000001
aF-1.6679999999999999
aF-15.071999999999999
asg29
g970
sg23
I55
sba(ipmx.atom
Atom
p1758
(dp1759
g34
(lp1760
sg36
I0
sg21
g1445
sS'm'
F0
sg37
S''
sg38
S' C2 '
p1761
sg40
S' '
sg41
S''
sg42
S''
sg43
I56
sg44
F0
sg45
I2
sg46
F1
sg47
F0
sg24
S'B'
sg48
(lp1762
sg50
(lp1763
sg52
F0
sg53
S''
sg54
F0
sg55
(lp1764
sg57
S'C'
sg58
g1448
sg26
S'A'
sg59
F0
sg60
(lp1765
sg62
I0
sg63
S''
sg9
S'C2'
p1766
sg64
F0
sS'f'
(lp1767
sg66
S''
sg67
I0
sS'q'
F0
sg68
S'ATOM  '
p1768
sg70
S' '
sg71
S''
sS'v'
(lp1769
I0
aI0
aI0
asg27
S'DC'
p1770
sS'x'
(lp1771
F3.0379999999999998
aF-1.2829999999999999
aF-15.01
asg29
g970
sg23
I56
sba(ipmx.atom
Atom
p1772
(dp1773
g34
(lp1774
sg36
I0
sg21
g1445
sS'm'
F0
sg37
S''
sg38
S' O  '
p1775
sg40
S' '
sg41
S''
sg42
S''
sg43
I57
sg44
F0
sg45
I2
sg46
F1
sg47
F0
sg24
S'B'
sg48
(lp1776
sg50
(lp1777
sg52
F0
sg53
S''
sg54
F0
sg55
(lp1778
sg57
S'O'
sg58
g1448
sg26
S'A'
sg59
F0
sg60
(lp1779
sg62
I0
sg63
S''
sg9
S'O'
sg64
F0
sS'f'
(lp1780
sg66
S''
sg67
I0
sS'q'
F0
sg68
S'ATOM  '
p1781
sg70
S' '
sg71
S''
sS'v'
(lp1782
I0
aI0
aI0
asg27
S'DC'
p1783
sS'x'
(lp1784
F3.2530000000000001
aF-0.070999999999999994
aF-14.932
asg29
g970
sg23
I57
sba(ipmx.atom
Atom
p1785
(dp1786
g34
(lp1787
sg36
I0
sg21
g1445
sS'm'
F0
sg37
S''
sg38
S" C3'"
p1788
sg40
S' '
sg41
S''
sg42
S''
sg43
I58
sg44
F0
sg45
I2
sg46
F1
sg47
F0
sg24
S'B'
sg48
(lp1789
sg50
(lp1790
sg52
F0
sg53
S''
sg54
F0
sg55
(lp1791
sg57
S'C'
sg58
g1448
sg26
S'A'
sg59
F0
sg60
(lp1792
sg62
I0
sg63
S''
sg9
S"C3'"
p1793
sg64
F0
sS'f'
(lp1794
sg66
S''
sg67
I0
sS'q'
F0
sg68
S'ATOM  '
p1795
sg70
S' '
sg71
S''
sS'v'
(lp1796
I0
aI0
aI0
asg27
S'DC'
p1797
sS'x'
(lp1798
F7.7759999999999998
aF-2.5600000000000001
aF-14.811
asg29
g970
sg23
I58
sba(ipmx.atom
Atom
p1799
(dp1800
g34
(lp1801
sg36
I0
sg21
g1445
sS'm'
F0
sg37
S''
sg38
S" H3'"
p1802
sg40
S' '
sg41
S''
sg42
S''
sg43
I59
sg44
F0
sg45
I2
sg46
F1
sg47
F0
sg24
S'B'
sg48
(lp1803
sg50
(lp1804
sg52
F0
sg53
S''
sg54
F0
sg55
(lp1805
sg57
S'H'
sg58
g1448
sg26
S'A'
sg59
F0
sg60
(lp1806
sg62
I0
sg63
S''
sg9
S"H3'"
p1807
sg64
F0
sS'f'
(lp1808
sg66
S''
sg67
I0
sS'q'
F0
sg68
S'ATOM  '
p1809
sg70
S' '
sg71
S''
sS'v'
(lp1810
I0
aI0
aI0
asg27
S'DC'
p1811
sS'x'
(lp1812
F8.3249999999999993
aF-3.488
aF-14.670999999999999
asg29
g970
sg23
I59
sba(ipmx.atom
Atom
p1813
(dp1814
g34
(lp1815
sg36
I0
sg21
g1445
sS'm'
F0
sg37
S''
sg38
S" C2'"
p1816
sg40
S' '
sg41
S''
sg42
S''
sg43
I60
sg44
F0
sg45
I2
sg46
F1
sg47
F0
sg24
S'B'
sg48
(lp1817
sg50
(lp1818
sg52
F0
sg53
S''
sg54
F0
sg55
(lp1819
sg57
S'C'
sg58
g1448
sg26
S'A'
sg59
F0
sg60
(lp1820
sg62
I0
sg63
S''
sg9
S"C2'"
p1821
sg64
F0
sS'f'
(lp1822
sg66
S''
sg67
I0
sS'q'
F0
sg68
S'ATOM  '
p1823
sg70
S' '
sg71
S''
sS'v'
(lp1824
I0
aI0
aI0
asg27
S'DC'
p1825
sS'x'
(lp1826
F6.4219999999999997
aF-2.641
aF-14.101000000000001
asg29
g970
sg23
I60
sba(ipmx.atom
Atom
p1827
(dp1828
g34
(lp1829
sg36
I0
sg21
g1445
sS'm'
F0
sg37
S''
sg38
S"1H2'"
p1830
sg40
S' '
sg41
S''
sg42
S''
sg43
I61
sg44
F0
sg45
I2
sg46
F1
sg47
F0
sg24
S'B'
sg48
(lp1831
sg50
(lp1832
sg52
F0
sg53
S''
sg54
F0
sg55
(lp1833
sg57
S'H'
sg58
g1448
sg26
S'A'
sg59
F0
sg60
(lp1834
sg62
I0
sg63
S''
sg9
S"H2'1"
p1835
sg64
F0
sS'f'
(lp1836
sg66
S''
sg67
I0
sS'q'
F0
sg68
S'ATOM  '
p1837
sg70
S' '
sg71
S''
sS'v'
(lp1838
I0
aI0
aI0
asg27
S'DC'
p1839
sS'x'
(lp1840
F6.0990000000000002
aF-3.6760000000000002
aF-14.045999999999999
asg29
g970
sg23
I61
sba(ipmx.atom
Atom
p1841
(dp1842
g34
(lp1843
sg36
I0
sg21
g1445
sS'm'
F0
sg37
S''
sg38
S"2H2'"
p1844
sg40
S' '
sg41
S''
sg42
S''
sg43
I62
sg44
F0
sg45
I2
sg46
F1
sg47
F0
sg24
S'B'
sg48
(lp1845
sg50
(lp1846
sg52
F0
sg53
S''
sg54
F0
sg55
(lp1847
sg57
S'H'
sg58
g1448
sg26
S'A'
sg59
F0
sg60
(lp1848
sg62
I0
sg63
S''
sg9
S"H2'2"
p1849
sg64
F0
sS'f'
(lp1850
sg66
S''
sg67
I0
sS'q'
F0
sg68
S'ATOM  '
p1851
sg70
S' '
sg71
S''
sS'v'
(lp1852
I0
aI0
aI0
asg27
S'DC'
p1853
sS'x'
(lp1854
F6.4610000000000003
aF-2.3220000000000001
aF-13.079000000000001
asg29
g970
sg23
I62
sba(ipmx.atom
Atom
p1855
(dp1856
g34
(lp1857
sg36
I0
sg21
g1445
sS'm'
F0
sg37
S''
sg38
S" O3'"
p1858
sg40
S' '
sg41
S''
sg42
S''
sg43
I63
sg44
F0
sg45
I2
sg46
F1
sg47
F0
sg24
S'B'
sg48
(lp1859
sg50
(lp1860
sg52
F0
sg53
S''
sg54
F0
sg55
(lp1861
sg57
S'O'
sg58
g1448
sg26
S'A'
sg59
F0
sg60
(lp1862
sg62
I0
sg63
S''
sg9
S"O3'"
p1863
sg64
F0
sS'f'
(lp1864
sg66
S''
sg67
I0
sS'q'
F0
sg68
S'ATOM  '
p1865
sg70
S' '
sg71
S''
sS'v'
(lp1866
I0
aI0
aI0
asg27
S'DC'
p1867
sS'x'
(lp1868
F8.6440000000000001
aF-1.464
aF-14.459
asg29
g970
sg23
I63
sbasg43
I2
sg507
Nsbasg30
(lp1869
g1452
ag1464
ag1478
ag1492
ag1506
ag1520
ag1534
ag1548
ag1562
ag1576
ag1590
ag1604
ag1618
ag1632
ag1646
ag1660
ag1674
ag1688
ag1702
ag1716
ag1730
ag1744
ag1758
ag1772
ag1785
ag1799
ag1813
ag1827
ag1841
ag1855
asg509
I0
sg26
S'A'
sg29
g970
sg510
I00
sg43
S'B'
sbssg16
(lp1870
g980
ag1448
asg30
(lp1871
g984
ag996
ag1010
ag1024
ag1038
ag1052
ag1066
ag1080
ag1094
ag1108
ag1122
ag1136
ag1150
ag1164
ag1178
ag1192
ag1206
ag1220
ag1234
ag1248
ag1262
ag1276
ag1290
ag1304
ag1318
ag1332
ag1346
ag1360
ag1374
ag1388
ag1402
ag1416
ag1430
ag1452
ag1464
ag1478
ag1492
ag1506
ag1520
ag1534
ag1548
ag1562
ag1576
ag1590
ag1604
ag1618
ag1632
ag1646
ag1660
ag1674
ag1688
ag1702
ag1716
ag1730
ag1744
ag1758
ag1772
ag1785
ag1799
ag1813
ag1827
ag1841
ag1855
asg26
S'A'
sg967
(lp1872
g977
ag1445
asg43
I0
sg969
I0
sbsS't'
(ipmx.model
Model
p1873
(dp1874
g4
(lp1875
(lp1876
I0
aI0
aI0
aa(lp1877
I0
aI0
aI0
aa(lp1878
I0
aI0
aI0
aasg9
Nsg10
g11
sg12
(dp1879
S'A'
(ipmx.chain
Chain
p1880
(dp1881
g16
(lp1882
(ipmx.molecule
Molecule
p1883
(dp1884
g20
I0
sg21
g1880
sg22
S''
sg23
I1
sg24
S'A'
sg25
Nsg26
S'A'
sg27
S'DA'
p1885
sg29
g1873
sg30
(lp1886
(ipmx.atom
Atom
p1887
(dp1888
g34
(lp1889
sg36
I0
sg21
g1880
sS'm'
F0
sg37
S''
sg38
S' P  '
p1890
sg40
S' '
sg41
S''
sg42
S''
sg43
I1
sg44
F0
sg45
I1
sg46
F1
sg47
F0
sg24
S'A'
sg48
(lp1891
sg50
(lp1892
sg52
F0
sg53
S''
sg54
F0
sg55
(lp1893
sg57
S'P'
sg58
g1883
sg26
S'A'
sg59
F0
sg60
(lp1894
sg62
I0
sg63
S''
sg9
S'P'
sg64
F0
sS'f'
(lp1895
sg66
S''
sg67
I0
sS'q'
F0
sg68
S'ATOM  '
p1896
sg70
S' '
sg71
S''
sS'v'
(lp1897
I0
aI0
aI0
asg27
g1885
sS'x'
(lp1898
F-8.1820000000000004
aF3.77
aF-13.833
asg29
g1873
sg23
I1
sba(ipmx.atom
Atom
p1899
(dp1900
g34
(lp1901
sg36
I0
sg21
g1880
sS'm'
F0
sg37
S''
sg38
S' O1P'
p1902
sg40
S' '
sg41
S''
sg42
S''
sg43
I2
sg44
F0
sg45
I1
sg46
F1
sg47
F0
sg24
S'A'
sg48
(lp1903
sg50
(lp1904
sg52
F0
sg53
S''
sg54
F0
sg55
(lp1905
sg57
S'O'
sg58
g1883
sg26
S'A'
sg59
F0
sg60
(lp1906
sg62
I0
sg63
S''
sg9
S'O1P'
p1907
sg64
F0
sS'f'
(lp1908
sg66
S''
sg67
I0
sS'q'
F0
sg68
S'ATOM  '
p1909
sg70
S' '
sg71
S''
sS'v'
(lp1910
I0
aI0
aI0
asg27
S'DA'
p1911
sS'x'
(lp1912
F-8.8810000000000002
aF5.069
aF-13.997999999999999
asg29
g1873
sg23
I2
sba(ipmx.atom
Atom
p1913
(dp1914
g34
(lp1915
sg36
I0
sg21
g1880
sS'm'
F0
sg37
S''
sg38
S' O2P'
p1916
sg40
S' '
sg41
S''
sg42
S''
sg43
I3
sg44
F0
sg45
I1
sg46
F1
sg47
F0
sg24
S'A'
sg48
(lp1917
sg50
(lp1918
sg52
F0
sg53
S''
sg54
F0
sg55
(lp1919
sg57
S'O'
sg58
g1883
sg26
S'A'
sg59
F0
sg60
(lp1920
sg62
I0
sg63
S''
sg9
S'O2P'
p1921
sg64
F0
sS'f'
(lp1922
sg66
S''
sg67
I0
sS'q'
F0
sg68
S'ATOM  '
p1923
sg70
S' '
sg71
S''
sS'v'
(lp1924
I0
aI0
aI0
asg27
S'DA'
p1925
sS'x'
(lp1926
F-8.532
aF2.613
aF-14.673999999999999
asg29
g1873
sg23
I3
sba(ipmx.atom
Atom
p1927
(dp1928
g34
(lp1929
sg36
I0
sg21
g1880
sS'm'
F0
sg37
S''
sg38
S" O5'"
p1930
sg40
S' '
sg41
S''
sg42
S''
sg43
I4
sg44
F0
sg45
I1
sg46
F1
sg47
F0
sg24
S'A'
sg48
(lp1931
sg50
(lp1932
sg52
F0
sg53
S''
sg54
F0
sg55
(lp1933
sg57
S'O'
sg58
g1883
sg26
S'A'
sg59
F0
sg60
(lp1934
sg62
I0
sg63
S''
sg9
S"O5'"
p1935
sg64
F0
sS'f'
(lp1936
sg66
S''
sg67
I0
sS'q'
F0
sg68
S'ATOM  '
p1937
sg70
S' '
sg71
S''
sS'v'
(lp1938
I0
aI0
aI0
asg27
S'DA'
p1939
sS'x'
(lp1940
F-6.6360000000000001
aF4.0759999999999996
aF-14.015000000000001
asg29
g1873
sg23
I4
sba(ipmx.atom
Atom
p1941
(dp1942
g34
(lp1943
sg36
I0
sg21
g1880
sS'm'
F0
sg37
S''
sg38
S" C5'"
p1944
sg40
S' '
sg41
S''
sg42
S''
sg43
I5
sg44
F0
sg45
I1
sg46
F1
sg47
F0
sg24
S'A'
sg48
(lp1945
sg50
(lp1946
sg52
F0
sg53
S''
sg54
F0
sg55
(lp1947
sg57
S'C'
sg58
g1883
sg26
S'A'
sg59
F0
sg60
(lp1948
sg62
I0
sg63
S''
sg9
S"C5'"
p1949
sg64
F0
sS'f'
(lp1950
sg66
S''
sg67
I0
sS'q'
F0
sg68
S'ATOM  '
p1951
sg70
S' '
sg71
S''
sS'v'
(lp1952
I0
aI0
aI0
asg27
S'DA'
p1953
sS'x'
(lp1954
F-5.9669999999999996
aF4.9329999999999998
aF-13.103
asg29
g1873
sg23
I5
sba(ipmx.atom
Atom
p1955
(dp1956
g34
(lp1957
sg36
I0
sg21
g1880
sS'm'
F0
sg37
S''
sg38
S"1H5'"
p1958
sg40
S' '
sg41
S''
sg42
S''
sg43
I6
sg44
F0
sg45
I1
sg46
F1
sg47
F0
sg24
S'A'
sg48
(lp1959
sg50
(lp1960
sg52
F0
sg53
S''
sg54
F0
sg55
(lp1961
sg57
S'H'
sg58
g1883
sg26
S'A'
sg59
F0
sg60
(lp1962
sg62
I0
sg63
S''
sg9
S"H5'1"
p1963
sg64
F0
sS'f'
(lp1964
sg66
S''
sg67
I0
sS'q'
F0
sg68
S'ATOM  '
p1965
sg70
S' '
sg71
S''
sS'v'
(lp1966
I0
aI0
aI0
asg27
S'DA'
p1967
sS'x'
(lp1968
F-6.6879999999999997
aF5.6420000000000003
aF-12.692
asg29
g1873
sg23
I6
sba(ipmx.atom
Atom
p1969
(dp1970
g34
(lp1971
sg36
I0
sg21
g1880
sS'm'
F0
sg37
S''
sg38
S"2H5'"
p1972
sg40
S' '
sg41
S''
sg42
S''
sg43
I7
sg44
F0
sg45
I1
sg46
F1
sg47
F0
sg24
S'A'
sg48
(lp1973
sg50
(lp1974
sg52
F0
sg53
S''
sg54
F0
sg55
(lp1975
sg57
S'H'
sg58
g1883
sg26
S'A'
sg59
F0
sg60
(lp1976
sg62
I0
sg63
S''
sg9
S"H5'2"
p1977
sg64
F0
sS'f'
(lp1978
sg66
S''
sg67
I0
sS'q'
F0
sg68
S'ATOM  '
p1979
sg70
S' '
sg71
S''
sS'v'
(lp1980
I0
aI0
aI0
asg27
S'DA'
p1981
sS'x'
(lp1982
F-5.6079999999999997
aF4.3339999999999996
aF-12.262
asg29
g1873
sg23
I7
sba(ipmx.atom
Atom
p1983
(dp1984
g34
(lp1985
sg36
I0
sg21
g1880
sS'm'
F0
sg37
S''
sg38
S" C4'"
p1986
sg40
S' '
sg41
S''
sg42
S''
sg43
I8
sg44
F0
sg45
I1
sg46
F1
sg47
F0
sg24
S'A'
sg48
(lp1987
sg50
(lp1988
sg52
F0
sg53
S''
sg54
F0
sg55
(lp1989
sg57
S'C'
sg58
g1883
sg26
S'A'
sg59
F0
sg60
(lp1990
sg62
I0
sg63
S''
sg9
S"C4'"
p1991
sg64
F0
sS'f'
(lp1992
sg66
S''
sg67
I0
sS'q'
F0
sg68
S'ATOM  '
p1993
sg70
S' '
sg71
S''
sS'v'
(lp1994
I0
aI0
aI0
asg27
S'DA'
p1995
sS'x'
(lp1996
F-4.7999999999999998
aF5.7039999999999997
aF-13.742000000000001
asg29
g1873
sg23
I8
sba(ipmx.atom
Atom
p1997
(dp1998
g34
(lp1999
sg36
I0
sg21
g1880
sS'm'
F0
sg37
S''
sg38
S" H4'"
p2000
sg40
S' '
sg41
S''
sg42
S''
sg43
I9
sg44
F0
sg45
I1
sg46
F1
sg47
F0
sg24
S'A'
sg48
(lp2001
sg50
(lp2002
sg52
F0
sg53
S''
sg54
F0
sg55
(lp2003
sg57
S'H'
sg58
g1883
sg26
S'A'
sg59
F0
sg60
(lp2004
sg62
I0
sg63
S''
sg9
S"H4'"
p2005
sg64
F0
sS'f'
(lp2006
sg66
S''
sg67
I0
sS'q'
F0
sg68
S'ATOM  '
p2007
sg70
S' '
sg71
S''
sS'v'
(lp2008
I0
aI0
aI0
asg27
S'DA'
p2009
sS'x'
(lp2010
F-4.5970000000000004
aF6.5529999999999999
aF-13.093
asg29
g1873
sg23
I9
sba(ipmx.atom
Atom
p2011
(dp2012
g34
(lp2013
sg36
I0
sg21
g1880
sS'm'
F0
sg37
S''
sg38
S" O4'"
p2014
sg40
S' '
sg41
S''
sg42
S''
sg43
I10
sg44
F0
sg45
I1
sg46
F1
sg47
F0
sg24
S'A'
sg48
(lp2015
sg50
(lp2016
sg52
F0
sg53
S''
sg54
F0
sg55
(lp2017
sg57
S'O'
sg58
g1883
sg26
S'A'
sg59
F0
sg60
(lp2018
sg62
I0
sg63
S''
sg9
S"O4'"
p2019
sg64
F0
sS'f'
(lp2020
sg66
S''
sg67
I0
sS'q'
F0
sg68
S'ATOM  '
p2021
sg70
S' '
sg71
S''
sS'v'
(lp2022
I0
aI0
aI0
asg27
S'DA'
p2023
sS'x'
(lp2024
F-3.6680000000000001
aF4.8360000000000003
aF-13.749000000000001
asg29
g1873
sg23
I10
sba(ipmx.atom
Atom
p2025
(dp2026
g34
(lp2027
sg36
I0
sg21
g1880
sS'm'
F0
sg37
S''
sg38
S" C1'"
p2028
sg40
S' '
sg41
S''
sg42
S''
sg43
I11
sg44
F0
sg45
I1
sg46
F1
sg47
F0
sg24
S'A'
sg48
(lp2029
sg50
(lp2030
sg52
F0
sg53
S''
sg54
F0
sg55
(lp2031
sg57
S'C'
sg58
g1883
sg26
S'A'
sg59
F0
sg60
(lp2032
sg62
I0
sg63
S''
sg9
S"C1'"
p2033
sg64
F0
sS'f'
(lp2034
sg66
S''
sg67
I0
sS'q'
F0
sg68
S'ATOM  '
p2035
sg70
S' '
sg71
S''
sS'v'
(lp2036
I0
aI0
aI0
asg27
S'DA'
p2037
sS'x'
(lp2038
F-3.4700000000000002
aF4.351
aF-15.068
asg29
g1873
sg23
I11
sba(ipmx.atom
Atom
p2039
(dp2040
g34
(lp2041
sg36
I0
sg21
g1880
sS'm'
F0
sg37
S''
sg38
S" H1'"
p2042
sg40
S' '
sg41
S''
sg42
S''
sg43
I12
sg44
F0
sg45
I1
sg46
F1
sg47
F0
sg24
S'A'
sg48
(lp2043
sg50
(lp2044
sg52
F0
sg53
S''
sg54
F0
sg55
(lp2045
sg57
S'H'
sg58
g1883
sg26
S'A'
sg59
F0
sg60
(lp2046
sg62
I0
sg63
S''
sg9
S"H1'"
p2047
sg64
F0
sS'f'
(lp2048
sg66
S''
sg67
I0
sS'q'
F0
sg68
S'ATOM  '
p2049
sg70
S' '
sg71
S''
sS'v'
(lp2050
I0
aI0
aI0
asg27
S'DA'
p2051
sS'x'
(lp2052
F-2.5259999999999998
aF4.7489999999999997
aF-15.446
asg29
g1873
sg23
I12
sba(ipmx.atom
Atom
p2053
(dp2054
g34
(lp2055
sg36
I0
sg21
g1880
sS'm'
F0
sg37
S''
sg38
S' N9 '
p2056
sg40
S' '
sg41
S''
sg42
S''
sg43
I13
sg44
F0
sg45
I1
sg46
F1
sg47
F0
sg24
S'A'
sg48
(lp2057
sg50
(lp2058
sg52
F0
sg53
S''
sg54
F0
sg55
(lp2059
sg57
S'N'
sg58
g1883
sg26
S'A'
sg59
F0
sg60
(lp2060
sg62
I0
sg63
S''
sg9
S'N9'
p2061
sg64
F0
sS'f'
(lp2062
sg66
S''
sg67
I0
sS'q'
F0
sg68
S'ATOM  '
p2063
sg70
S' '
sg71
S''
sS'v'
(lp2064
I0
aI0
aI0
asg27
S'DA'
p2065
sS'x'
(lp2066
F-3.399
aF2.8700000000000001
aF-15.07
asg29
g1873
sg23
I13
sba(ipmx.atom
Atom
p2067
(dp2068
g34
(lp2069
sg36
I0
sg21
g1880
sS'm'
F0
sg37
S''
sg38
S' C8 '
p2070
sg40
S' '
sg41
S''
sg42
S''
sg43
I14
sg44
F0
sg45
I1
sg46
F1
sg47
F0
sg24
S'A'
sg48
(lp2071
sg50
(lp2072
sg52
F0
sg53
S''
sg54
F0
sg55
(lp2073
sg57
S'C'
sg58
g1883
sg26
S'A'
sg59
F0
sg60
(lp2074
sg62
I0
sg63
S''
sg9
S'C8'
p2075
sg64
F0
sS'f'
(lp2076
sg66
S''
sg67
I0
sS'q'
F0
sg68
S'ATOM  '
p2077
sg70
S' '
sg71
S''
sS'v'
(lp2078
I0
aI0
aI0
asg27
S'DA'
p2079
sS'x'
(lp2080
F-4.4240000000000004
aF1.9570000000000001
aF-15.105
asg29
g1873
sg23
I14
sba(ipmx.atom
Atom
p2081
(dp2082
g34
(lp2083
sg36
I0
sg21
g1880
sS'm'
F0
sg37
S''
sg38
S' H8 '
p2084
sg40
S' '
sg41
S''
sg42
S''
sg43
I15
sg44
F0
sg45
I1
sg46
F1
sg47
F0
sg24
S'A'
sg48
(lp2085
sg50
(lp2086
sg52
F0
sg53
S''
sg54
F0
sg55
(lp2087
sg57
S'H'
sg58
g1883
sg26
S'A'
sg59
F0
sg60
(lp2088
sg62
I0
sg63
S''
sg9
S'H8'
p2089
sg64
F0
sS'f'
(lp2090
sg66
S''
sg67
I0
sS'q'
F0
sg68
S'ATOM  '
p2091
sg70
S' '
sg71
S''
sS'v'
(lp2092
I0
aI0
aI0
asg27
S'DA'
p2093
sS'x'
(lp2094
F-5.4610000000000003
aF2.258
aF-15.124000000000001
asg29
g1873
sg23
I15
sba(ipmx.atom
Atom
p2095
(dp2096
g34
(lp2097
sg36
I0
sg21
g1880
sS'm'
F0
sg37
S''
sg38
S' N7 '
p2098
sg40
S' '
sg41
S''
sg42
S''
sg43
I16
sg44
F0
sg45
I1
sg46
F1
sg47
F0
sg24
S'A'
sg48
(lp2099
sg50
(lp2100
sg52
F0
sg53
S''
sg54
F0
sg55
(lp2101
sg57
S'N'
sg58
g1883
sg26
S'A'
sg59
F0
sg60
(lp2102
sg62
I0
sg63
S''
sg9
S'N7'
p2103
sg64
F0
sS'f'
(lp2104
sg66
S''
sg67
I0
sS'q'
F0
sg68
S'ATOM  '
p2105
sg70
S' '
sg71
S''
sS'v'
(lp2106
I0
aI0
aI0
asg27
S'DA'
p2107
sS'x'
(lp2108
F-4.0490000000000004
aF0.70599999999999996
aF-15.105
asg29
g1873
sg23
I16
sba(ipmx.atom
Atom
p2109
(dp2110
g34
(lp2111
sg36
I0
sg21
g1880
sS'm'
F0
sg37
S''
sg38
S' C5 '
p2112
sg40
S' '
sg41
S''
sg42
S''
sg43
I17
sg44
F0
sg45
I1
sg46
F1
sg47
F0
sg24
S'A'
sg48
(lp2113
sg50
(lp2114
sg52
F0
sg53
S''
sg54
F0
sg55
(lp2115
sg57
S'C'
sg58
g1883
sg26
S'A'
sg59
F0
sg60
(lp2116
sg62
I0
sg63
S''
sg9
S'C5'
p2117
sg64
F0
sS'f'
(lp2118
sg66
S''
sg67
I0
sS'q'
F0
sg68
S'ATOM  '
p2119
sg70
S' '
sg71
S''
sS'v'
(lp2120
I0
aI0
aI0
asg27
S'DA'
p2121
sS'x'
(lp2122
F-2.6549999999999998
aF0.81399999999999995
aF-15.087999999999999
asg29
g1873
sg23
I17
sba(ipmx.atom
Atom
p2123
(dp2124
g34
(lp2125
sg36
I0
sg21
g1880
sS'm'
F0
sg37
S''
sg38
S' C6 '
p2126
sg40
S' '
sg41
S''
sg42
S''
sg43
I18
sg44
F0
sg45
I1
sg46
F1
sg47
F0
sg24
S'A'
sg48
(lp2127
sg50
(lp2128
sg52
F0
sg53
S''
sg54
F0
sg55
(lp2129
sg57
S'C'
sg58
g1883
sg26
S'A'
sg59
F0
sg60
(lp2130
sg62
I0
sg63
S''
sg9
S'C6'
p2131
sg64
F0
sS'f'
(lp2132
sg66
S''
sg67
I0
sS'q'
F0
sg68
S'ATOM  '
p2133
sg70
S' '
sg71
S''
sS'v'
(lp2134
I0
aI0
aI0
asg27
S'DA'
p2135
sS'x'
(lp2136
F-1.6040000000000001
aF-0.123
aF-15.089
asg29
g1873
sg23
I18
sba(ipmx.atom
Atom
p2137
(dp2138
g34
(lp2139
sg36
I0
sg21
g1880
sS'm'
F0
sg37
S''
sg38
S' N6 '
p2140
sg40
S' '
sg41
S''
sg42
S''
sg43
I19
sg44
F0
sg45
I1
sg46
F1
sg47
F0
sg24
S'A'
sg48
(lp2141
sg50
(lp2142
sg52
F0
sg53
S''
sg54
F0
sg55
(lp2143
sg57
S'N'
sg58
g1883
sg26
S'A'
sg59
F0
sg60
(lp2144
sg62
I0
sg63
S''
sg9
S'N6'
p2145
sg64
F0
sS'f'
(lp2146
sg66
S''
sg67
I0
sS'q'
F0
sg68
S'ATOM  '
p2147
sg70
S' '
sg71
S''
sS'v'
(lp2148
I0
aI0
aI0
asg27
S'DA'
p2149
sS'x'
(lp2150
F-1.8149999999999999
aF-1.423
aF-15.09
asg29
g1873
sg23
I19
sba(ipmx.atom
Atom
p2151
(dp2152
g34
(lp2153
sg36
I0
sg21
g1880
sS'm'
F0
sg37
S''
sg38
S' H61'
p2154
sg40
S' '
sg41
S''
sg42
S''
sg43
I20
sg44
F0
sg45
I1
sg46
F1
sg47
F0
sg24
S'A'
sg48
(lp2155
sg50
(lp2156
sg52
F0
sg53
S''
sg54
F0
sg55
(lp2157
sg57
S'H'
sg58
g1883
sg26
S'A'
sg59
F0
sg60
(lp2158
sg62
I0
sg63
S''
sg9
S'H61'
p2159
sg64
F0
sS'f'
(lp2160
sg66
S''
sg67
I0
sS'q'
F0
sg68
S'ATOM  '
p2161
sg70
S' '
sg71
S''
sS'v'
(lp2162
I0
aI0
aI0
asg27
S'DA'
p2163
sS'x'
(lp2164
F-2.7650000000000001
aF-1.75
aF-15.112
asg29
g1873
sg23
I20
sba(ipmx.atom
Atom
p2165
(dp2166
g34
(lp2167
sg36
I0
sg21
g1880
sS'm'
F0
sg37
S''
sg38
S' H62'
p2168
sg40
S' '
sg41
S''
sg42
S''
sg43
I21
sg44
F0
sg45
I1
sg46
F1
sg47
F0
sg24
S'A'
sg48
(lp2169
sg50
(lp2170
sg52
F0
sg53
S''
sg54
F0
sg55
(lp2171
sg57
S'H'
sg58
g1883
sg26
S'A'
sg59
F0
sg60
(lp2172
sg62
I0
sg63
S''
sg9
S'H62'
p2173
sg64
F0
sS'f'
(lp2174
sg66
S''
sg67
I0
sS'q'
F0
sg68
S'ATOM  '
p2175
sg70
S' '
sg71
S''
sS'v'
(lp2176
I0
aI0
aI0
asg27
S'DA'
p2177
sS'x'
(lp2178
F-1.036
aF-2.073
aF-15.103
asg29
g1873
sg23
I21
sba(ipmx.atom
Atom
p2179
(dp2180
g34
(lp2181
sg36
I0
sg21
g1880
sS'm'
F0
sg37
S''
sg38
S' N1 '
p2182
sg40
S' '
sg41
S''
sg42
S''
sg43
I22
sg44
F0
sg45
I1
sg46
F1
sg47
F0
sg24
S'A'
sg48
(lp2183
sg50
(lp2184
sg52
F0
sg53
S''
sg54
F0
sg55
(lp2185
sg57
S'N'
sg58
g1883
sg26
S'A'
sg59
F0
sg60
(lp2186
sg62
I0
sg63
S''
sg9
S'N1'
p2187
sg64
F0
sS'f'
(lp2188
sg66
S''
sg67
I0
sS'q'
F0
sg68
S'ATOM  '
p2189
sg70
S' '
sg71
S''
sS'v'
(lp2190
I0
aI0
aI0
asg27
S'DA'
p2191
sS'x'
(lp2192
F-0.32900000000000001
aF0.27000000000000002
aF-15.087
asg29
g1873
sg23
I22
sba(ipmx.atom
Atom
p2193
(dp2194
g34
(lp2195
sg36
I0
sg21
g1880
sS'm'
F0
sg37
S''
sg38
S' C2 '
p2196
sg40
S' '
sg41
S''
sg42
S''
sg43
I23
sg44
F0
sg45
I1
sg46
F1
sg47
F0
sg24
S'A'
sg48
(lp2197
sg50
(lp2198
sg52
F0
sg53
S''
sg54
F0
sg55
(lp2199
sg57
S'C'
sg58
g1883
sg26
S'A'
sg59
F0
sg60
(lp2200
sg62
I0
sg63
S''
sg9
S'C2'
p2201
sg64
F0
sS'f'
(lp2202
sg66
S''
sg67
I0
sS'q'
F0
sg68
S'ATOM  '
p2203
sg70
S' '
sg71
S''
sS'v'
(lp2204
I0
aI0
aI0
asg27
S'DA'
p2205
sS'x'
(lp2206
F-0.087999999999999995
aF1.579
aF-15.093
asg29
g1873
sg23
I23
sba(ipmx.atom
Atom
p2207
(dp2208
g34
(lp2209
sg36
I0
sg21
g1880
sS'm'
F0
sg37
S''
sg38
S' H2 '
p2210
sg40
S' '
sg41
S''
sg42
S''
sg43
I24
sg44
F0
sg45
I1
sg46
F1
sg47
F0
sg24
S'A'
sg48
(lp2211
sg50
(lp2212
sg52
F0
sg53
S''
sg54
F0
sg55
(lp2213
sg57
S'H'
sg58
g1883
sg26
S'A'
sg59
F0
sg60
(lp2214
sg62
I0
sg63
S''
sg9
S'H2'
p2215
sg64
F0
sS'f'
(lp2216
sg66
S''
sg67
I0
sS'q'
F0
sg68
S'ATOM  '
p2217
sg70
S' '
sg71
S''
sS'v'
(lp2218
I0
aI0
aI0
asg27
S'DA'
p2219
sS'x'
(lp2220
F0.95099999999999996
aF1.8779999999999999
aF-15.097
asg29
g1873
sg23
I24
sba(ipmx.atom
Atom
p2221
(dp2222
g34
(lp2223
sg36
I0
sg21
g1880
sS'm'
F0
sg37
S''
sg38
S' N3 '
p2224
sg40
S' '
sg41
S''
sg42
S''
sg43
I25
sg44
F0
sg45
I1
sg46
F1
sg47
F0
sg24
S'A'
sg48
(lp2225
sg50
(lp2226
sg52
F0
sg53
S''
sg54
F0
sg55
(lp2227
sg57
S'N'
sg58
g1883
sg26
S'A'
sg59
F0
sg60
(lp2228
sg62
I0
sg63
S''
sg9
S'N3'
p2229
sg64
F0
sS'f'
(lp2230
sg66
S''
sg67
I0
sS'q'
F0
sg68
S'ATOM  '
p2231
sg70
S' '
sg71
S''
sS'v'
(lp2232
I0
aI0
aI0
asg27
S'DA'
p2233
sS'x'
(lp2234
F-0.96599999999999997
aF2.5720000000000001
aF-15.093999999999999
asg29
g1873
sg23
I25
sba(ipmx.atom
Atom
p2235
(dp2236
g34
(lp2237
sg36
I0
sg21
g1880
sS'm'
F0
sg37
S''
sg38
S' C4 '
p2238
sg40
S' '
sg41
S''
sg42
S''
sg43
I26
sg44
F0
sg45
I1
sg46
F1
sg47
F0
sg24
S'A'
sg48
(lp2239
sg50
(lp2240
sg52
F0
sg53
S''
sg54
F0
sg55
(lp2241
sg57
S'C'
sg58
g1883
sg26
S'A'
sg59
F0
sg60
(lp2242
sg62
I0
sg63
S''
sg9
S'C4'
p2243
sg64
F0
sS'f'
(lp2244
sg66
S''
sg67
I0
sS'q'
F0
sg68
S'ATOM  '
p2245
sg70
S' '
sg71
S''
sS'v'
(lp2246
I0
aI0
aI0
asg27
S'DA'
p2247
sS'x'
(lp2248
F-2.2480000000000002
aF2.1200000000000001
aF-15.077999999999999
asg29
g1873
sg23
I26
sba(ipmx.atom
Atom
p2249
(dp2250
g34
(lp2251
sg36
I0
sg21
g1880
sS'm'
F0
sg37
S''
sg38
S" C3'"
p2252
sg40
S' '
sg41
S''
sg42
S''
sg43
I27
sg44
F0
sg45
I1
sg46
F1
sg47
F0
sg24
S'A'
sg48
(lp2253
sg50
(lp2254
sg52
F0
sg53
S''
sg54
F0
sg55
(lp2255
sg57
S'C'
sg58
g1883
sg26
S'A'
sg59
F0
sg60
(lp2256
sg62
I0
sg63
S''
sg9
S"C3'"
p2257
sg64
F0
sS'f'
(lp2258
sg66
S''
sg67
I0
sS'q'
F0
sg68
S'ATOM  '
p2259
sg70
S' '
sg71
S''
sS'v'
(lp2260
I0
aI0
aI0
asg27
S'DA'
p2261
sS'x'
(lp2262
F-5.0860000000000003
aF6.1680000000000001
aF-15.201000000000001
asg29
g1873
sg23
I27
sba(ipmx.atom
Atom
p2263
(dp2264
g34
(lp2265
sg36
I0
sg21
g1880
sS'm'
F0
sg37
S''
sg38
S" H3'"
p2266
sg40
S' '
sg41
S''
sg42
S''
sg43
I28
sg44
F0
sg45
I1
sg46
F1
sg47
F0
sg24
S'A'
sg48
(lp2267
sg50
(lp2268
sg52
F0
sg53
S''
sg54
F0
sg55
(lp2269
sg57
S'H'
sg58
g1883
sg26
S'A'
sg59
F0
sg60
(lp2270
sg62
I0
sg63
S''
sg9
S"H3'"
p2271
sg64
F0
sS'f'
(lp2272
sg66
S''
sg67
I0
sS'q'
F0
sg68
S'ATOM  '
p2273
sg70
S' '
sg71
S''
sS'v'
(lp2274
I0
aI0
aI0
asg27
S'DA'
p2275
sS'x'
(lp2276
F-6.1559999999999997
aF6.3019999999999996
aF-15.33
asg29
g1873
sg23
I28
sba(ipmx.atom
Atom
p2277
(dp2278
g34
(lp2279
sg36
I0
sg21
g1880
sS'm'
F0
sg37
S''
sg38
S" C2'"
p2280
sg40
S' '
sg41
S''
sg42
S''
sg43
I29
sg44
F0
sg45
I1
sg46
F1
sg47
F0
sg24
S'A'
sg48
(lp2281
sg50
(lp2282
sg52
F0
sg53
S''
sg54
F0
sg55
(lp2283
sg57
S'C'
sg58
g1883
sg26
S'A'
sg59
F0
sg60
(lp2284
sg62
I0
sg63
S''
sg9
S"C2'"
p2285
sg64
F0
sS'f'
(lp2286
sg66
S''
sg67
I0
sS'q'
F0
sg68
S'ATOM  '
p2287
sg70
S' '
sg71
S''
sS'v'
(lp2288
I0
aI0
aI0
asg27
S'DA'
p2289
sS'x'
(lp2290
F-4.6100000000000003
aF4.907
aF-15.928000000000001
asg29
g1873
sg23
I29
sba(ipmx.atom
Atom
p2291
(dp2292
g34
(lp2293
sg36
I0
sg21
g1880
sS'm'
F0
sg37
S''
sg38
S"1H2'"
p2294
sg40
S' '
sg41
S''
sg42
S''
sg43
I30
sg44
F0
sg45
I1
sg46
F1
sg47
F0
sg24
S'A'
sg48
(lp2295
sg50
(lp2296
sg52
F0
sg53
S''
sg54
F0
sg55
(lp2297
sg57
S'H'
sg58
g1883
sg26
S'A'
sg59
F0
sg60
(lp2298
sg62
I0
sg63
S''
sg9
S"H2'1"
p2299
sg64
F0
sS'f'
(lp2300
sg66
S''
sg67
I0
sS'q'
F0
sg68
S'ATOM  '
p2301
sg70
S' '
sg71
S''
sS'v'
(lp2302
I0
aI0
aI0
asg27
S'DA'
p2303
sS'x'
(lp2304
F-5.4299999999999997
aF4.202
aF-16.027000000000001
asg29
g1873
sg23
I30
sba(ipmx.atom
Atom
p2305
(dp2306
g34
(lp2307
sg36
I0
sg21
g1880
sS'm'
F0
sg37
S''
sg38
S"2H2'"
p2308
sg40
S' '
sg41
S''
sg42
S''
sg43
I31
sg44
F0
sg45
I1
sg46
F1
sg47
F0
sg24
S'A'
sg48
(lp2309
sg50
(lp2310
sg52
F0
sg53
S''
sg54
F0
sg55
(lp2311
sg57
S'H'
sg58
g1883
sg26
S'A'
sg59
F0
sg60
(lp2312
sg62
I0
sg63
S''
sg9
S"H2'2"
p2313
sg64
F0
sS'f'
(lp2314
sg66
S''
sg67
I0
sS'q'
F0
sg68
S'ATOM  '
p2315
sg70
S' '
sg71
S''
sS'v'
(lp2316
I0
aI0
aI0
asg27
S'DA'
p2317
sS'x'
(lp2318
F-4.2750000000000004
aF5.1180000000000003
aF-16.922999999999998
asg29
g1873
sg23
I31
sba(ipmx.atom
Atom
p2319
(dp2320
g34
(lp2321
sg36
I0
sg21
g1880
sS'm'
F0
sg37
S''
sg38
S" O3'"
p2322
sg40
S' '
sg41
S''
sg42
S''
sg43
I32
sg44
F0
sg45
I1
sg46
F1
sg47
F0
sg24
S'A'
sg48
(lp2323
sg50
(lp2324
sg52
F0
sg53
S''
sg54
F0
sg55
(lp2325
sg57
S'O'
sg58
g1883
sg26
S'A'
sg59
F0
sg60
(lp2326
sg62
I0
sg63
S''
sg9
S"O3'"
p2327
sg64
F0
sS'f'
(lp2328
sg66
S''
sg67
I0
sS'q'
F0
sg68
S'ATOM  '
p2329
sg70
S' '
sg71
S''
sS'v'
(lp2330
I0
aI0
aI0
asg27
S'DA'
p2331
sS'x'
(lp2332
F-4.4850000000000003
aF7.4050000000000002
aF-15.638
asg29
g1873
sg23
I32
sbasg43
I1
sg507
Nsbasg30
(lp2333
g1887
ag1899
ag1913
ag1927
ag1941
ag1955
ag1969
ag1983
ag1997
ag2011
ag2025
ag2039
ag2053
ag2067
ag2081
ag2095
ag2109
ag2123
ag2137
ag2151
ag2165
ag2179
ag2193
ag2207
ag2221
ag2235
ag2249
ag2263
ag2277
ag2291
ag2305
ag2319
asg509
I0
sg26
S'A'
sg29
g1873
sg510
I00
sg43
S'A'
sbsS'B'
(ipmx.chain
Chain
p2334
(dp2335
g16
(lp2336
(ipmx.molecule
Molecule
p2337
(dp2338
g20
I0
sg21
g2334
sg22
S''
sg23
I2
sg24
S'B'
sg25
Nsg26
S'A'
sg27
S'DT'
p2339
sg29
g1873
sg30
(lp2340
(ipmx.atom
Atom
p2341
(dp2342
g34
(lp2343
sg36
I0
sg21
g2334
sS'm'
F0
sg37
S''
sg38
S' P  '
p2344
sg40
S' '
sg41
S''
sg42
S''
sg43
I33
sg44
F0
sg45
I2
sg46
F1
sg47
F0
sg24
S'B'
sg48
(lp2345
sg50
(lp2346
sg52
F0
sg53
S''
sg54
F0
sg55
(lp2347
sg57
S'P'
sg58
g2337
sg26
S'A'
sg59
F0
sg60
(lp2348
sg62
I0
sg63
S''
sg9
S'P'
sg64
F0
sS'f'
(lp2349
sg66
S''
sg67
I0
sS'q'
F0
sg68
S'ATOM  '
p2350
sg70
S' '
sg71
S''
sS'v'
(lp2351
I0
aI0
aI0
asg27
g2339
sS'x'
(lp2352
F6.7039999999999997
aF-6.2969999999999997
aF-16.329000000000001
asg29
g1873
sg23
I33
sba(ipmx.atom
Atom
p2353
(dp2354
g34
(lp2355
sg36
I0
sg21
g2334
sS'm'
F0
sg37
S''
sg38
S' O1P'
p2356
sg40
S' '
sg41
S''
sg42
S''
sg43
I34
sg44
F0
sg45
I2
sg46
F1
sg47
F0
sg24
S'B'
sg48
(lp2357
sg50
(lp2358
sg52
F0
sg53
S''
sg54
F0
sg55
(lp2359
sg57
S'O'
sg58
g2337
sg26
S'A'
sg59
F0
sg60
(lp2360
sg62
I0
sg63
S''
sg9
S'O1P'
p2361
sg64
F0
sS'f'
(lp2362
sg66
S''
sg67
I0
sS'q'
F0
sg68
S'ATOM  '
p2363
sg70
S' '
sg71
S''
sS'v'
(lp2364
I0
aI0
aI0
asg27
S'DT'
p2365
sS'x'
(lp2366
F8.1890000000000001
aF-6.476
aF-16.23
asg29
g1873
sg23
I34
sba(ipmx.atom
Atom
p2367
(dp2368
g34
(lp2369
sg36
I0
sg21
g2334
sS'm'
F0
sg37
S''
sg38
S' O2P'
p2370
sg40
S' '
sg41
S''
sg42
S''
sg43
I35
sg44
F0
sg45
I2
sg46
F1
sg47
F0
sg24
S'B'
sg48
(lp2371
sg50
(lp2372
sg52
F0
sg53
S''
sg54
F0
sg55
(lp2373
sg57
S'O'
sg58
g2337
sg26
S'A'
sg59
F0
sg60
(lp2374
sg62
I0
sg63
S''
sg9
S'O2P'
p2375
sg64
F0
sS'f'
(lp2376
sg66
S''
sg67
I0
sS'q'
F0
sg68
S'ATOM  '
p2377
sg70
S' '
sg71
S''
sS'v'
(lp2378
I0
aI0
aI0
asg27
S'DT'
p2379
sS'x'
(lp2380
F5.8079999999999998
aF-7.0800000000000001
aF-15.487
asg29
g1873
sg23
I35
sba(ipmx.atom
Atom
p2381
(dp2382
g34
(lp2383
sg36
I0
sg21
g2334
sS'm'
F0
sg37
S''
sg38
S" O5'"
p2384
sg40
S' '
sg41
S''
sg42
S''
sg43
I36
sg44
F0
sg45
I2
sg46
F1
sg47
F0
sg24
S'B'
sg48
(lp2385
sg50
(lp2386
sg52
F0
sg53
S''
sg54
F0
sg55
(lp2387
sg57
S'O'
sg58
g2337
sg26
S'A'
sg59
F0
sg60
(lp2388
sg62
I0
sg63
S''
sg9
S"O5'"
p2389
sg64
F0
sS'f'
(lp2390
sg66
S''
sg67
I0
sS'q'
F0
sg68
S'ATOM  '
p2391
sg70
S' '
sg71
S''
sS'v'
(lp2392
I0
aI0
aI0
asg27
S'DT'
p2393
sS'x'
(lp2394
F6.4690000000000003
aF-4.7389999999999999
aF-16.117999999999999
asg29
g1873
sg23
I36
sba(ipmx.atom
Atom
p2395
(dp2396
g34
(lp2397
sg36
I0
sg21
g2334
sS'm'
F0
sg37
S''
sg38
S" C5'"
p2398
sg40
S' '
sg41
S''
sg42
S''
sg43
I37
sg44
F0
sg45
I2
sg46
F1
sg47
F0
sg24
S'B'
sg48
(lp2399
sg50
(lp2400
sg52
F0
sg53
S''
sg54
F0
sg55
(lp2401
sg57
S'C'
sg58
g2337
sg26
S'A'
sg59
F0
sg60
(lp2402
sg62
I0
sg63
S''
sg9
S"C5'"
p2403
sg64
F0
sS'f'
(lp2404
sg66
S''
sg67
I0
sS'q'
F0
sg68
S'ATOM  '
p2405
sg70
S' '
sg71
S''
sS'v'
(lp2406
I0
aI0
aI0
asg27
S'DT'
p2407
sS'x'
(lp2408
F7.0410000000000004
aF-3.7650000000000001
aF-16.98
asg29
g1873
sg23
I37
sba(ipmx.atom
Atom
p2409
(dp2410
g34
(lp2411
sg36
I0
sg21
g2334
sS'm'
F0
sg37
S''
sg38
S"1H5'"
p2412
sg40
S' '
sg41
S''
sg42
S''
sg43
I38
sg44
F0
sg45
I2
sg46
F1
sg47
F0
sg24
S'B'
sg48
(lp2413
sg50
(lp2414
sg52
F0
sg53
S''
sg54
F0
sg55
(lp2415
sg57
S'H'
sg58
g2337
sg26
S'A'
sg59
F0
sg60
(lp2416
sg62
I0
sg63
S''
sg9
S"H5'1"
p2417
sg64
F0
sS'f'
(lp2418
sg66
S''
sg67
I0
sS'q'
F0
sg68
S'ATOM  '
p2419
sg70
S' '
sg71
S''
sS'v'
(lp2420
I0
aI0
aI0
asg27
S'DT'
p2421
sS'x'
(lp2422
F7.9880000000000004
aF-4.141
aF-17.376000000000001
asg29
g1873
sg23
I38
sba(ipmx.atom
Atom
p2423
(dp2424
g34
(lp2425
sg36
I0
sg21
g2334
sS'm'
F0
sg37
S''
sg38
S"2H5'"
p2426
sg40
S' '
sg41
S''
sg42
S''
sg43
I39
sg44
F0
sg45
I2
sg46
F1
sg47
F0
sg24
S'B'
sg48
(lp2427
sg50
(lp2428
sg52
F0
sg53
S''
sg54
F0
sg55
(lp2429
sg57
S'H'
sg58
g2337
sg26
S'A'
sg59
F0
sg60
(lp2430
sg62
I0
sg63
S''
sg9
S"H5'2"
p2431
sg64
F0
sS'f'
(lp2432
sg66
S''
sg67
I0
sS'q'
F0
sg68
S'ATOM  '
p2433
sg70
S' '
sg71
S''
sS'v'
(lp2434
I0
aI0
aI0
asg27
S'DT'
p2435
sS'x'
(lp2436
F6.3789999999999996
aF-3.6030000000000002
aF-17.835999999999999
asg29
g1873
sg23
I39
sba(ipmx.atom
Atom
p2437
(dp2438
g34
(lp2439
sg36
I0
sg21
g2334
sS'm'
F0
sg37
S''
sg38
S" C4'"
p2440
sg40
S' '
sg41
S''
sg42
S''
sg43
I40
sg44
F0
sg45
I2
sg46
F1
sg47
F0
sg24
S'B'
sg48
(lp2441
sg50
(lp2442
sg52
F0
sg53
S''
sg54
F0
sg55
(lp2443
sg57
S'C'
sg58
g2337
sg26
S'A'
sg59
F0
sg60
(lp2444
sg62
I0
sg63
S''
sg9
S"C4'"
p2445
sg64
F0
sS'f'
(lp2446
sg66
S''
sg67
I0
sS'q'
F0
sg68
S'ATOM  '
p2447
sg70
S' '
sg71
S''
sS'v'
(lp2448
I0
aI0
aI0
asg27
S'DT'
p2449
sS'x'
(lp2450
F7.2939999999999996
aF-2.4220000000000002
aF-16.268999999999998
asg29
g1873
sg23
I40
sba(ipmx.atom
Atom
p2451
(dp2452
g34
(lp2453
sg36
I0
sg21
g2334
sS'm'
F0
sg37
S''
sg38
S" H4'"
p2454
sg40
S' '
sg41
S''
sg42
S''
sg43
I41
sg44
F0
sg45
I2
sg46
F1
sg47
F0
sg24
S'B'
sg48
(lp2455
sg50
(lp2456
sg52
F0
sg53
S''
sg54
F0
sg55
(lp2457
sg57
S'H'
sg58
g2337
sg26
S'A'
sg59
F0
sg60
(lp2458
sg62
I0
sg63
S''
sg9
S"H4'"
p2459
sg64
F0
sS'f'
(lp2460
sg66
S''
sg67
I0
sS'q'
F0
sg68
S'ATOM  '
p2461
sg70
S' '
sg71
S''
sS'v'
(lp2462
I0
aI0
aI0
asg27
S'DT'
p2463
sS'x'
(lp2464
F8.0340000000000007
aF-1.8759999999999999
aF-16.847000000000001
asg29
g1873
sg23
I41
sba(ipmx.atom
Atom
p2465
(dp2466
g34
(lp2467
sg36
I0
sg21
g2334
sS'm'
F0
sg37
S''
sg38
S" O4'"
p2468
sg40
S' '
sg41
S''
sg42
S''
sg43
I42
sg44
F0
sg45
I2
sg46
F1
sg47
F0
sg24
S'B'
sg48
(lp2469
sg50
(lp2470
sg52
F0
sg53
S''
sg54
F0
sg55
(lp2471
sg57
S'O'
sg58
g2337
sg26
S'A'
sg59
F0
sg60
(lp2472
sg62
I0
sg63
S''
sg9
S"O4'"
p2473
sg64
F0
sS'f'
(lp2474
sg66
S''
sg67
I0
sS'q'
F0
sg68
S'ATOM  '
p2475
sg70
S' '
sg71
S''
sS'v'
(lp2476
I0
aI0
aI0
asg27
S'DT'
p2477
sS'x'
(lp2478
F6.077
aF-1.681
aF-16.253
asg29
g1873
sg23
I42
sba(ipmx.atom
Atom
p2479
(dp2480
g34
(lp2481
sg36
I0
sg21
g2334
sS'm'
F0
sg37
S''
sg38
S" C1'"
p2482
sg40
S' '
sg41
S''
sg42
S''
sg43
I43
sg44
F0
sg45
I2
sg46
F1
sg47
F0
sg24
S'B'
sg48
(lp2483
sg50
(lp2484
sg52
F0
sg53
S''
sg54
F0
sg55
(lp2485
sg57
S'C'
sg58
g2337
sg26
S'A'
sg59
F0
sg60
(lp2486
sg62
I0
sg63
S''
sg9
S"C1'"
p2487
sg64
F0
sS'f'
(lp2488
sg66
S''
sg67
I0
sS'q'
F0
sg68
S'ATOM  '
p2489
sg70
S' '
sg71
S''
sS'v'
(lp2490
I0
aI0
aI0
asg27
S'DT'
p2491
sS'x'
(lp2492
F5.5099999999999998
aF-1.7569999999999999
aF-14.952999999999999
asg29
g1873
sg23
I43
sba(ipmx.atom
Atom
p2493
(dp2494
g34
(lp2495
sg36
I0
sg21
g2334
sS'm'
F0
sg37
S''
sg38
S" H1'"
p2496
sg40
S' '
sg41
S''
sg42
S''
sg43
I44
sg44
F0
sg45
I2
sg46
F1
sg47
F0
sg24
S'B'
sg48
(lp2497
sg50
(lp2498
sg52
F0
sg53
S''
sg54
F0
sg55
(lp2499
sg57
S'H'
sg58
g2337
sg26
S'A'
sg59
F0
sg60
(lp2500
sg62
I0
sg63
S''
sg9
S"H1'"
p2501
sg64
F0
sS'f'
(lp2502
sg66
S''
sg67
I0
sS'q'
F0
sg68
S'ATOM  '
p2503
sg70
S' '
sg71
S''
sS'v'
(lp2504
I0
aI0
aI0
asg27
S'DT'
p2505
sS'x'
(lp2506
F5.5309999999999997
aF-0.755
aF-14.513999999999999
asg29
g1873
sg23
I44
sba(ipmx.atom
Atom
p2507
(dp2508
g34
(lp2509
sg36
I0
sg21
g2334
sS'm'
F0
sg37
S''
sg38
S' N1 '
p2510
sg40
S' '
sg41
S''
sg42
S''
sg43
I45
sg44
F0
sg45
I2
sg46
F1
sg47
F0
sg24
S'B'
sg48
(lp2511
sg50
(lp2512
sg52
F0
sg53
S''
sg54
F0
sg55
(lp2513
sg57
S'N'
sg58
g2337
sg26
S'A'
sg59
F0
sg60
(lp2514
sg62
I0
sg63
S''
sg9
S'N1'
p2515
sg64
F0
sS'f'
(lp2516
sg66
S''
sg67
I0
sS'q'
F0
sg68
S'ATOM  '
p2517
sg70
S' '
sg71
S''
sS'v'
(lp2518
I0
aI0
aI0
asg27
S'DT'
p2519
sS'x'
(lp2520
F4.0949999999999998
aF-2.2290000000000001
aF-15.042999999999999
asg29
g1873
sg23
I45
sba(ipmx.atom
Atom
p2521
(dp2522
g34
(lp2523
sg36
I0
sg21
g2334
sS'm'
F0
sg37
S''
sg38
S' C6 '
p2524
sg40
S' '
sg41
S''
sg42
S''
sg43
I46
sg44
F0
sg45
I2
sg46
F1
sg47
F0
sg24
S'B'
sg48
(lp2525
sg50
(lp2526
sg52
F0
sg53
S''
sg54
F0
sg55
(lp2527
sg57
S'C'
sg58
g2337
sg26
S'A'
sg59
F0
sg60
(lp2528
sg62
I0
sg63
S''
sg9
S'C6'
p2529
sg64
F0
sS'f'
(lp2530
sg66
S''
sg67
I0
sS'q'
F0
sg68
S'ATOM  '
p2531
sg70
S' '
sg71
S''
sS'v'
(lp2532
I0
aI0
aI0
asg27
S'DT'
p2533
sS'x'
(lp2534
F3.7549999999999999
aF-3.5720000000000001
aF-15.098000000000001
asg29
g1873
sg23
I46
sba(ipmx.atom
Atom
p2535
(dp2536
g34
(lp2537
sg36
I0
sg21
g2334
sS'm'
F0
sg37
S''
sg38
S' H6 '
p2538
sg40
S' '
sg41
S''
sg42
S''
sg43
I47
sg44
F0
sg45
I2
sg46
F1
sg47
F0
sg24
S'B'
sg48
(lp2539
sg50
(lp2540
sg52
F0
sg53
S''
sg54
F0
sg55
(lp2541
sg57
S'H'
sg58
g2337
sg26
S'A'
sg59
F0
sg60
(lp2542
sg62
I0
sg63
S''
sg9
S'H6'
p2543
sg64
F0
sS'f'
(lp2544
sg66
S''
sg67
I0
sS'q'
F0
sg68
S'ATOM  '
p2545
sg70
S' '
sg71
S''
sS'v'
(lp2546
I0
aI0
aI0
asg27
S'DT'
p2547
sS'x'
(lp2548
F4.524
aF-4.319
aF-15.095000000000001
asg29
g1873
sg23
I47
sba(ipmx.atom
Atom
p2549
(dp2550
g34
(lp2551
sg36
I0
sg21
g2334
sS'm'
F0
sg37
S''
sg38
S' C5 '
p2552
sg40
S' '
sg41
S''
sg42
S''
sg43
I48
sg44
F0
sg45
I2
sg46
F1
sg47
F0
sg24
S'B'
sg48
(lp2553
sg50
(lp2554
sg52
F0
sg53
S''
sg54
F0
sg55
(lp2555
sg57
S'C'
sg58
g2337
sg26
S'A'
sg59
F0
sg60
(lp2556
sg62
I0
sg63
S''
sg9
S'C5'
p2557
sg64
F0
sS'f'
(lp2558
sg66
S''
sg67
I0
sS'q'
F0
sg68
S'ATOM  '
p2559
sg70
S' '
sg71
S''
sS'v'
(lp2560
I0
aI0
aI0
asg27
S'DT'
p2561
sS'x'
(lp2562
F2.4529999999999998
aF-3.9750000000000001
aF-15.132
asg29
g1873
sg23
I48
sba(ipmx.atom
Atom
p2563
(dp2564
g34
(lp2565
sg36
I0
sg21
g2334
sS'm'
F0
sg37
S''
sg38
S' C7 '
p2566
sg40
S' '
sg41
S''
sg42
S''
sg43
I49
sg44
F0
sg45
I2
sg46
F1
sg47
F0
sg24
S'B'
sg48
(lp2567
sg50
(lp2568
sg52
F0
sg53
S''
sg54
F0
sg55
(lp2569
sg57
S'C'
sg58
g2337
sg26
S'A'
sg59
F0
sg60
(lp2570
sg62
I0
sg63
S''
sg9
S'C7'
p2571
sg64
F0
sS'f'
(lp2572
sg66
S''
sg67
I0
sS'q'
F0
sg68
S'ATOM  '
p2573
sg70
S' '
sg71
S''
sS'v'
(lp2574
I0
aI0
aI0
asg27
S'DT'
p2575
sS'x'
(lp2576
F2.0139999999999998
aF-5.4379999999999997
aF-15.106999999999999
asg29
g1873
sg23
I49
sba(ipmx.atom
Atom
p2577
(dp2578
g34
(lp2579
sg36
I0
sg21
g2334
sS'm'
F0
sg37
S''
sg38
S' H71'
p2580
sg40
S' '
sg41
S''
sg42
S''
sg43
I50
sg44
F0
sg45
I2
sg46
F1
sg47
F0
sg24
S'B'
sg48
(lp2581
sg50
(lp2582
sg52
F0
sg53
S''
sg54
F0
sg55
(lp2583
sg57
S'H'
sg58
g2337
sg26
S'A'
sg59
F0
sg60
(lp2584
sg62
I0
sg63
S''
sg9
S'H71'
p2585
sg64
F0
sS'f'
(lp2586
sg66
S''
sg67
I0
sS'q'
F0
sg68
S'ATOM  '
p2587
sg70
S' '
sg71
S''
sS'v'
(lp2588
I0
aI0
aI0
asg27
S'DT'
p2589
sS'x'
(lp2590
F2.073
aF-5.8419999999999996
aF-14.108000000000001
asg29
g1873
sg23
I50
sba(ipmx.atom
Atom
p2591
(dp2592
g34
(lp2593
sg36
I0
sg21
g2334
sS'm'
F0
sg37
S''
sg38
S' H72'
p2594
sg40
S' '
sg41
S''
sg42
S''
sg43
I51
sg44
F0
sg45
I2
sg46
F1
sg47
F0
sg24
S'B'
sg48
(lp2595
sg50
(lp2596
sg52
F0
sg53
S''
sg54
F0
sg55
(lp2597
sg57
S'H'
sg58
g2337
sg26
S'A'
sg59
F0
sg60
(lp2598
sg62
I0
sg63
S''
sg9
S'H72'
p2599
sg64
F0
sS'f'
(lp2600
sg66
S''
sg67
I0
sS'q'
F0
sg68
S'ATOM  '
p2601
sg70
S' '
sg71
S''
sS'v'
(lp2602
I0
aI0
aI0
asg27
S'DT'
p2603
sS'x'
(lp2604
F2.6160000000000001
aF-6.1470000000000002
aF-15.599
asg29
g1873
sg23
I51
sba(ipmx.atom
Atom
p2605
(dp2606
g34
(lp2607
sg36
I0
sg21
g2334
sS'm'
F0
sg37
S''
sg38
S' H73'
p2608
sg40
S' '
sg41
S''
sg42
S''
sg43
I52
sg44
F0
sg45
I2
sg46
F1
sg47
F0
sg24
S'B'
sg48
(lp2609
sg50
(lp2610
sg52
F0
sg53
S''
sg54
F0
sg55
(lp2611
sg57
S'H'
sg58
g2337
sg26
S'A'
sg59
F0
sg60
(lp2612
sg62
I0
sg63
S''
sg9
S'H73'
p2613
sg64
F0
sS'f'
(lp2614
sg66
S''
sg67
I0
sS'q'
F0
sg68
S'ATOM  '
p2615
sg70
S' '
sg71
S''
sS'v'
(lp2616
I0
aI0
aI0
asg27
S'DT'
p2617
sS'x'
(lp2618
F1.042
aF-5.5350000000000001
aF-15.597
asg29
g1873
sg23
I52
sba(ipmx.atom
Atom
p2619
(dp2620
g34
(lp2621
sg36
I0
sg21
g2334
sS'm'
F0
sg37
S''
sg38
S' C4 '
p2622
sg40
S' '
sg41
S''
sg42
S''
sg43
I53
sg44
F0
sg45
I2
sg46
F1
sg47
F0
sg24
S'B'
sg48
(lp2623
sg50
(lp2624
sg52
F0
sg53
S''
sg54
F0
sg55
(lp2625
sg57
S'C'
sg58
g2337
sg26
S'A'
sg59
F0
sg60
(lp2626
sg62
I0
sg63
S''
sg9
S'C4'
p2627
sg64
F0
sS'f'
(lp2628
sg66
S''
sg67
I0
sS'q'
F0
sg68
S'ATOM  '
p2629
sg70
S' '
sg71
S''
sS'v'
(lp2630
I0
aI0
aI0
asg27
S'DT'
p2631
sS'x'
(lp2632
F1.4019999999999999
aF-2.9860000000000002
aF-15.154
asg29
g1873
sg23
I53
sba(ipmx.atom
Atom
p2633
(dp2634
g34
(lp2635
sg36
I0
sg21
g2334
sS'm'
F0
sg37
S''
sg38
S' O4 '
p2636
sg40
S' '
sg41
S''
sg42
S''
sg43
I54
sg44
F0
sg45
I2
sg46
F1
sg47
F0
sg24
S'B'
sg48
(lp2637
sg50
(lp2638
sg52
F0
sg53
S''
sg54
F0
sg55
(lp2639
sg57
S'O'
sg58
g2337
sg26
S'A'
sg59
F0
sg60
(lp2640
sg62
I0
sg63
S''
sg9
S'O4'
p2641
sg64
F0
sS'f'
(lp2642
sg66
S''
sg67
I0
sS'q'
F0
sg68
S'ATOM  '
p2643
sg70
S' '
sg71
S''
sS'v'
(lp2644
I0
aI0
aI0
asg27
S'DT'
p2645
sS'x'
(lp2646
F0.20799999999999999
aF-3.242
aF-15.202999999999999
asg29
g1873
sg23
I54
sba(ipmx.atom
Atom
p2647
(dp2648
g34
(lp2649
sg36
I0
sg21
g2334
sS'm'
F0
sg37
S''
sg38
S' N3 '
p2650
sg40
S' '
sg41
S''
sg42
S''
sg43
I55
sg44
F0
sg45
I2
sg46
F1
sg47
F0
sg24
S'B'
sg48
(lp2651
sg50
(lp2652
sg52
F0
sg53
S''
sg54
F0
sg55
(lp2653
sg57
S'N'
sg58
g2337
sg26
S'A'
sg59
F0
sg60
(lp2654
sg62
I0
sg63
S''
sg9
S'N3'
p2655
sg64
F0
sS'f'
(lp2656
sg66
S''
sg67
I0
sS'q'
F0
sg68
S'ATOM  '
p2657
sg70
S' '
sg71
S''
sS'v'
(lp2658
I0
aI0
aI0
asg27
S'DT'
p2659
sS'x'
(lp2660
F1.7989999999999999
aF-1.6839999999999999
aF-15.077
asg29
g1873
sg23
I55
sba(ipmx.atom
Atom
p2661
(dp2662
g34
(lp2663
sg36
I0
sg21
g2334
sS'm'
F0
sg37
S''
sg38
S' H3 '
p2664
sg40
S' '
sg41
S''
sg42
S''
sg43
I56
sg44
F0
sg45
I2
sg46
F1
sg47
F0
sg24
S'B'
sg48
(lp2665
sg50
(lp2666
sg52
F0
sg53
S''
sg54
F0
sg55
(lp2667
sg57
S'H'
sg58
g2337
sg26
S'A'
sg59
F0
sg60
(lp2668
sg62
I0
sg63
S''
sg9
S'H3'
p2669
sg64
F0
sS'f'
(lp2670
sg66
S''
sg67
I0
sS'q'
F0
sg68
S'ATOM  '
p2671
sg70
S' '
sg71
S''
sS'v'
(lp2672
I0
aI0
aI0
asg27
S'DT'
p2673
sS'x'
(lp2674
F1.079
aF-0.98099999999999998
aF-15.055999999999999
asg29
g1873
sg23
I56
sba(ipmx.atom
Atom
p2675
(dp2676
g34
(lp2677
sg36
I0
sg21
g2334
sS'm'
F0
sg37
S''
sg38
S' C2 '
p2678
sg40
S' '
sg41
S''
sg42
S''
sg43
I57
sg44
F0
sg45
I2
sg46
F1
sg47
F0
sg24
S'B'
sg48
(lp2679
sg50
(lp2680
sg52
F0
sg53
S''
sg54
F0
sg55
(lp2681
sg57
S'C'
sg58
g2337
sg26
S'A'
sg59
F0
sg60
(lp2682
sg62
I0
sg63
S''
sg9
S'C2'
p2683
sg64
F0
sS'f'
(lp2684
sg66
S''
sg67
I0
sS'q'
F0
sg68
S'ATOM  '
p2685
sg70
S' '
sg71
S''
sS'v'
(lp2686
I0
aI0
aI0
asg27
S'DT'
p2687
sS'x'
(lp2688
F3.0990000000000002
aF-1.248
aF-15.018000000000001
asg29
g1873
sg23
I57
sba(ipmx.atom
Atom
p2689
(dp2690
g34
(lp2691
sg36
I0
sg21
g2334
sS'm'
F0
sg37
S''
sg38
S' O  '
p2692
sg40
S' '
sg41
S''
sg42
S''
sg43
I58
sg44
F0
sg45
I2
sg46
F1
sg47
F0
sg24
S'B'
sg48
(lp2693
sg50
(lp2694
sg52
F0
sg53
S''
sg54
F0
sg55
(lp2695
sg57
S'O'
sg58
g2337
sg26
S'A'
sg59
F0
sg60
(lp2696
sg62
I0
sg63
S''
sg9
S'O'
sg64
F0
sS'f'
(lp2697
sg66
S''
sg67
I0
sS'q'
F0
sg68
S'ATOM  '
p2698
sg70
S' '
sg71
S''
sS'v'
(lp2699
I0
aI0
aI0
asg27
S'DT'
p2700
sS'x'
(lp2701
F3.3130000000000002
aF-0.043999999999999997
aF-14.916
asg29
g1873
sg23
I58
sba(ipmx.atom
Atom
p2702
(dp2703
g34
(lp2704
sg36
I0
sg21
g2334
sS'm'
F0
sg37
S''
sg38
S" C3'"
p2705
sg40
S' '
sg41
S''
sg42
S''
sg43
I59
sg44
F0
sg45
I2
sg46
F1
sg47
F0
sg24
S'B'
sg48
(lp2706
sg50
(lp2707
sg52
F0
sg53
S''
sg54
F0
sg55
(lp2708
sg57
S'C'
sg58
g2337
sg26
S'A'
sg59
F0
sg60
(lp2709
sg62
I0
sg63
S''
sg9
S"C3'"
p2710
sg64
F0
sS'f'
(lp2711
sg66
S''
sg67
I0
sS'q'
F0
sg68
S'ATOM  '
p2712
sg70
S' '
sg71
S''
sS'v'
(lp2713
I0
aI0
aI0
asg27
S'DT'
p2714
sS'x'
(lp2715
F7.7939999999999996
aF-2.5459999999999998
aF-14.81
asg29
g1873
sg23
I59
sba(ipmx.atom
Atom
p2716
(dp2717
g34
(lp2718
sg36
I0
sg21
g2334
sS'm'
F0
sg37
S''
sg38
S" H3'"
p2719
sg40
S' '
sg41
S''
sg42
S''
sg43
I60
sg44
F0
sg45
I2
sg46
F1
sg47
F0
sg24
S'B'
sg48
(lp2720
sg50
(lp2721
sg52
F0
sg53
S''
sg54
F0
sg55
(lp2722
sg57
S'H'
sg58
g2337
sg26
S'A'
sg59
F0
sg60
(lp2723
sg62
I0
sg63
S''
sg9
S"H3'"
p2724
sg64
F0
sS'f'
(lp2725
sg66
S''
sg67
I0
sS'q'
F0
sg68
S'ATOM  '
p2726
sg70
S' '
sg71
S''
sS'v'
(lp2727
I0
aI0
aI0
asg27
S'DT'
p2728
sS'x'
(lp2729
F8.3369999999999997
aF-3.4780000000000002
aF-14.670999999999999
asg29
g1873
sg23
I60
sba(ipmx.atom
Atom
p2730
(dp2731
g34
(lp2732
sg36
I0
sg21
g2334
sS'm'
F0
sg37
S''
sg38
S" C2'"
p2733
sg40
S' '
sg41
S''
sg42
S''
sg43
I61
sg44
F0
sg45
I2
sg46
F1
sg47
F0
sg24
S'B'
sg48
(lp2734
sg50
(lp2735
sg52
F0
sg53
S''
sg54
F0
sg55
(lp2736
sg57
S'C'
sg58
g2337
sg26
S'A'
sg59
F0
sg60
(lp2737
sg62
I0
sg63
S''
sg9
S"C2'"
p2738
sg64
F0
sS'f'
(lp2739
sg66
S''
sg67
I0
sS'q'
F0
sg68
S'ATOM  '
p2740
sg70
S' '
sg71
S''
sS'v'
(lp2741
I0
aI0
aI0
asg27
S'DT'
p2742
sS'x'
(lp2743
F6.4409999999999998
aF-2.6269999999999998
aF-14.101000000000001
asg29
g1873
sg23
I61
sba(ipmx.atom
Atom
p2744
(dp2745
g34
(lp2746
sg36
I0
sg21
g2334
sS'm'
F0
sg37
S''
sg38
S"1H2'"
p2747
sg40
S' '
sg41
S''
sg42
S''
sg43
I62
sg44
F0
sg45
I2
sg46
F1
sg47
F0
sg24
S'B'
sg48
(lp2748
sg50
(lp2749
sg52
F0
sg53
S''
sg54
F0
sg55
(lp2750
sg57
S'H'
sg58
g2337
sg26
S'A'
sg59
F0
sg60
(lp2751
sg62
I0
sg63
S''
sg9
S"H2'1"
p2752
sg64
F0
sS'f'
(lp2753
sg66
S''
sg67
I0
sS'q'
F0
sg68
S'ATOM  '
p2754
sg70
S' '
sg71
S''
sS'v'
(lp2755
I0
aI0
aI0
asg27
S'DT'
p2756
sS'x'
(lp2757
F6.1150000000000002
aF-3.661
aF-14.042
asg29
g1873
sg23
I62
sba(ipmx.atom
Atom
p2758
(dp2759
g34
(lp2760
sg36
I0
sg21
g2334
sS'm'
F0
sg37
S''
sg38
S"2H2'"
p2761
sg40
S' '
sg41
S''
sg42
S''
sg43
I63
sg44
F0
sg45
I2
sg46
F1
sg47
F0
sg24
S'B'
sg48
(lp2762
sg50
(lp2763
sg52
F0
sg53
S''
sg54
F0
sg55
(lp2764
sg57
S'H'
sg58
g2337
sg26
S'A'
sg59
F0
sg60
(lp2765
sg62
I0
sg63
S''
sg9
S"H2'2"
p2766
sg64
F0
sS'f'
(lp2767
sg66
S''
sg67
I0
sS'q'
F0
sg68
S'ATOM  '
p2768
sg70
S' '
sg71
S''
sS'v'
(lp2769
I0
aI0
aI0
asg27
S'DT'
p2770
sS'x'
(lp2771
F6.4880000000000004
aF-2.29
aF-13.086
asg29
g1873
sg23
I63
sba(ipmx.atom
Atom
p2772
(dp2773
g34
(lp2774
sg36
I0
sg21
g2334
sS'm'
F0
sg37
S''
sg38
S" O3'"
p2775
sg40
S' '
sg41
S''
sg42
S''
sg43
I64
sg44
F0
sg45
I2
sg46
F1
sg47
F0
sg24
S'B'
sg48
(lp2776
sg50
(lp2777
sg52
F0
sg53
S''
sg54
F0
sg55
(lp2778
sg57
S'O'
sg58
g2337
sg26
S'A'
sg59
F0
sg60
(lp2779
sg62
I0
sg63
S''
sg9
S"O3'"
p2780
sg64
F0
sS'f'
(lp2781
sg66
S''
sg67
I0
sS'q'
F0
sg68
S'ATOM  '
p2782
sg70
S' '
sg71
S''
sS'v'
(lp2783
I0
aI0
aI0
asg27
S'DT'
p2784
sS'x'
(lp2785
F8.6620000000000008
aF-1.454
aF-14.442
asg29
g1873
sg23
I64
sbasg43
I2
sg507
Nsbasg30
(lp2786
g2341
ag2353
ag2367
ag2381
ag2395
ag2409
ag2423
ag2437
ag2451
ag2465
ag2479
ag2493
ag2507
ag2521
ag2535
ag2549
ag2563
ag2577
ag2591
ag2605
ag2619
ag2633
ag2647
ag2661
ag2675
ag2689
ag2702
ag2716
ag2730
ag2744
ag2758
ag2772
asg509
I0
sg26
S'A'
sg29
g1873
sg510
I00
sg43
S'B'
sbssg16
(lp2787
g1883
ag2337
asg30
(lp2788
g1887
ag1899
ag1913
ag1927
ag1941
ag1955
ag1969
ag1983
ag1997
ag2011
ag2025
ag2039
ag2053
ag2067
ag2081
ag2095
ag2109
ag2123
ag2137
ag2151
ag2165
ag2179
ag2193
ag2207
ag2221
ag2235
ag2249
ag2263
ag2277
ag2291
ag2305
ag2319
ag2341
ag2353
ag2367
ag2381
ag2395
ag2409
ag2423
ag2437
ag2451
ag2465
ag2479
ag2493
ag2507
ag2521
ag2535
ag2549
ag2563
ag2577
ag2591
ag2605
ag2619
ag2633
ag2647
ag2661
ag2675
ag2689
ag2702
ag2716
ag2730
ag2744
ag2758
ag2772
asg26
S'A'
sg967
(lp2789
g1880
ag2334
asg43
I0
sg969
I0
sbsS'g'
(ipmx.model
Model
p2790
(dp2791
g4
(lp2792
(lp2793
I0
aI0
aI0
aa(lp2794
I0
aI0
aI0
aa(lp2795
I0
aI0
aI0
aasg9
Nsg10
g11
sg12
(dp2796
S'A'
(ipmx.chain
Chain
p2797
(dp2798
g16
(lp2799
(ipmx.molecule
Molecule
p2800
(dp2801
g20
I0
sg21
g2797
sg22
S''
sg23
I1
sg24
S'A'
sg25
Nsg26
S'A'
sg27
S'DC'
p2802
sg29
g2790
sg30
(lp2803
(ipmx.atom
Atom
p2804
(dp2805
g34
(lp2806
sg36
I0
sg21
g2797
sS'm'
F0
sg37
S''
sg38
S' P  '
p2807
sg40
S' '
sg41
S''
sg42
S''
sg43
I1
sg44
F0
sg45
I1
sg46
F1
sg47
F0
sg24
S'A'
sg48
(lp2808
sg50
(lp2809
sg52
F0
sg53
S''
sg54
F0
sg55
(lp2810
sg57
S'P'
sg58
g2800
sg26
S'A'
sg59
F0
sg60
(lp2811
sg62
I0
sg63
S''
sg9
S'P'
sg64
F0
sS'f'
(lp2812
sg66
S''
sg67
I0
sS'q'
F0
sg68
S'ATOM  '
p2813
sg70
S' '
sg71
S''
sS'v'
(lp2814
I0
aI0
aI0
asg27
g2802
sS'x'
(lp2815
F-8.1780000000000008
aF3.7690000000000001
aF-13.832000000000001
asg29
g2790
sg23
I1
sba(ipmx.atom
Atom
p2816
(dp2817
g34
(lp2818
sg36
I0
sg21
g2797
sS'm'
F0
sg37
S''
sg38
S' O1P'
p2819
sg40
S' '
sg41
S''
sg42
S''
sg43
I2
sg44
F0
sg45
I1
sg46
F1
sg47
F0
sg24
S'A'
sg48
(lp2820
sg50
(lp2821
sg52
F0
sg53
S''
sg54
F0
sg55
(lp2822
sg57
S'O'
sg58
g2800
sg26
S'A'
sg59
F0
sg60
(lp2823
sg62
I0
sg63
S''
sg9
S'O1P'
p2824
sg64
F0
sS'f'
(lp2825
sg66
S''
sg67
I0
sS'q'
F0
sg68
S'ATOM  '
p2826
sg70
S' '
sg71
S''
sS'v'
(lp2827
I0
aI0
aI0
asg27
S'DC'
p2828
sS'x'
(lp2829
F-8.8770000000000007
aF5.0629999999999997
aF-13.994999999999999
asg29
g2790
sg23
I2
sba(ipmx.atom
Atom
p2830
(dp2831
g34
(lp2832
sg36
I0
sg21
g2797
sS'm'
F0
sg37
S''
sg38
S' O2P'
p2833
sg40
S' '
sg41
S''
sg42
S''
sg43
I3
sg44
F0
sg45
I1
sg46
F1
sg47
F0
sg24
S'A'
sg48
(lp2834
sg50
(lp2835
sg52
F0
sg53
S''
sg54
F0
sg55
(lp2836
sg57
S'O'
sg58
g2800
sg26
S'A'
sg59
F0
sg60
(lp2837
sg62
I0
sg63
S''
sg9
S'O2P'
p2838
sg64
F0
sS'f'
(lp2839
sg66
S''
sg67
I0
sS'q'
F0
sg68
S'ATOM  '
p2840
sg70
S' '
sg71
S''
sS'v'
(lp2841
I0
aI0
aI0
asg27
S'DC'
p2842
sS'x'
(lp2843
F-8.532
aF2.6099999999999999
aF-14.673
asg29
g2790
sg23
I3
sba(ipmx.atom
Atom
p2844
(dp2845
g34
(lp2846
sg36
I0
sg21
g2797
sS'm'
F0
sg37
S''
sg38
S" O5'"
p2847
sg40
S' '
sg41
S''
sg42
S''
sg43
I4
sg44
F0
sg45
I1
sg46
F1
sg47
F0
sg24
S'A'
sg48
(lp2848
sg50
(lp2849
sg52
F0
sg53
S''
sg54
F0
sg55
(lp2850
sg57
S'O'
sg58
g2800
sg26
S'A'
sg59
F0
sg60
(lp2851
sg62
I0
sg63
S''
sg9
S"O5'"
p2852
sg64
F0
sS'f'
(lp2853
sg66
S''
sg67
I0
sS'q'
F0
sg68
S'ATOM  '
p2854
sg70
S' '
sg71
S''
sS'v'
(lp2855
I0
aI0
aI0
asg27
S'DC'
p2856
sS'x'
(lp2857
F-6.6420000000000003
aF4.0949999999999998
aF-14.022
asg29
g2790
sg23
I4
sba(ipmx.atom
Atom
p2858
(dp2859
g34
(lp2860
sg36
I0
sg21
g2797
sS'm'
F0
sg37
S''
sg38
S" C5'"
p2861
sg40
S' '
sg41
S''
sg42
S''
sg43
I5
sg44
F0
sg45
I1
sg46
F1
sg47
F0
sg24
S'A'
sg48
(lp2862
sg50
(lp2863
sg52
F0
sg53
S''
sg54
F0
sg55
(lp2864
sg57
S'C'
sg58
g2800
sg26
S'A'
sg59
F0
sg60
(lp2865
sg62
I0
sg63
S''
sg9
S"C5'"
p2866
sg64
F0
sS'f'
(lp2867
sg66
S''
sg67
I0
sS'q'
F0
sg68
S'ATOM  '
p2868
sg70
S' '
sg71
S''
sS'v'
(lp2869
I0
aI0
aI0
asg27
S'DC'
p2870
sS'x'
(lp2871
F-5.9690000000000003
aF4.9359999999999999
aF-13.103
asg29
g2790
sg23
I5
sba(ipmx.atom
Atom
p2872
(dp2873
g34
(lp2874
sg36
I0
sg21
g2797
sS'm'
F0
sg37
S''
sg38
S"1H5'"
p2875
sg40
S' '
sg41
S''
sg42
S''
sg43
I6
sg44
F0
sg45
I1
sg46
F1
sg47
F0
sg24
S'A'
sg48
(lp2876
sg50
(lp2877
sg52
F0
sg53
S''
sg54
F0
sg55
(lp2878
sg57
S'H'
sg58
g2800
sg26
S'A'
sg59
F0
sg60
(lp2879
sg62
I0
sg63
S''
sg9
S"H5'1"
p2880
sg64
F0
sS'f'
(lp2881
sg66
S''
sg67
I0
sS'q'
F0
sg68
S'ATOM  '
p2882
sg70
S' '
sg71
S''
sS'v'
(lp2883
I0
aI0
aI0
asg27
S'DC'
p2884
sS'x'
(lp2885
F-6.6870000000000003
aF5.6440000000000001
aF-12.686999999999999
asg29
g2790
sg23
I6
sba(ipmx.atom
Atom
p2886
(dp2887
g34
(lp2888
sg36
I0
sg21
g2797
sS'm'
F0
sg37
S''
sg38
S"2H5'"
p2889
sg40
S' '
sg41
S''
sg42
S''
sg43
I7
sg44
F0
sg45
I1
sg46
F1
sg47
F0
sg24
S'A'
sg48
(lp2890
sg50
(lp2891
sg52
F0
sg53
S''
sg54
F0
sg55
(lp2892
sg57
S'H'
sg58
g2800
sg26
S'A'
sg59
F0
sg60
(lp2893
sg62
I0
sg63
S''
sg9
S"H5'2"
p2894
sg64
F0
sS'f'
(lp2895
sg66
S''
sg67
I0
sS'q'
F0
sg68
S'ATOM  '
p2896
sg70
S' '
sg71
S''
sS'v'
(lp2897
I0
aI0
aI0
asg27
S'DC'
p2898
sS'x'
(lp2899
F-5.6120000000000001
aF4.3300000000000001
aF-12.268000000000001
asg29
g2790
sg23
I7
sba(ipmx.atom
Atom
p2900
(dp2901
g34
(lp2902
sg36
I0
sg21
g2797
sS'm'
F0
sg37
S''
sg38
S" C4'"
p2903
sg40
S' '
sg41
S''
sg42
S''
sg43
I8
sg44
F0
sg45
I1
sg46
F1
sg47
F0
sg24
S'A'
sg48
(lp2904
sg50
(lp2905
sg52
F0
sg53
S''
sg54
F0
sg55
(lp2906
sg57
S'C'
sg58
g2800
sg26
S'A'
sg59
F0
sg60
(lp2907
sg62
I0
sg63
S''
sg9
S"C4'"
p2908
sg64
F0
sS'f'
(lp2909
sg66
S''
sg67
I0
sS'q'
F0
sg68
S'ATOM  '
p2910
sg70
S' '
sg71
S''
sS'v'
(lp2911
I0
aI0
aI0
asg27
S'DC'
p2912
sS'x'
(lp2913
F-4.798
aF5.7050000000000001
aF-13.741
asg29
g2790
sg23
I8
sba(ipmx.atom
Atom
p2914
(dp2915
g34
(lp2916
sg36
I0
sg21
g2797
sS'm'
F0
sg37
S''
sg38
S" H4'"
p2917
sg40
S' '
sg41
S''
sg42
S''
sg43
I9
sg44
F0
sg45
I1
sg46
F1
sg47
F0
sg24
S'A'
sg48
(lp2918
sg50
(lp2919
sg52
F0
sg53
S''
sg54
F0
sg55
(lp2920
sg57
S'H'
sg58
g2800
sg26
S'A'
sg59
F0
sg60
(lp2921
sg62
I0
sg63
S''
sg9
S"H4'"
p2922
sg64
F0
sS'f'
(lp2923
sg66
S''
sg67
I0
sS'q'
F0
sg68
S'ATOM  '
p2924
sg70
S' '
sg71
S''
sS'v'
(lp2925
I0
aI0
aI0
asg27
S'DC'
p2926
sS'x'
(lp2927
F-4.593
aF6.5499999999999998
aF-13.09
asg29
g2790
sg23
I9
sba(ipmx.atom
Atom
p2928
(dp2929
g34
(lp2930
sg36
I0
sg21
g2797
sS'm'
F0
sg37
S''
sg38
S" O4'"
p2931
sg40
S' '
sg41
S''
sg42
S''
sg43
I10
sg44
F0
sg45
I1
sg46
F1
sg47
F0
sg24
S'A'
sg48
(lp2932
sg50
(lp2933
sg52
F0
sg53
S''
sg54
F0
sg55
(lp2934
sg57
S'O'
sg58
g2800
sg26
S'A'
sg59
F0
sg60
(lp2935
sg62
I0
sg63
S''
sg9
S"O4'"
p2936
sg64
F0
sS'f'
(lp2937
sg66
S''
sg67
I0
sS'q'
F0
sg68
S'ATOM  '
p2938
sg70
S' '
sg71
S''
sS'v'
(lp2939
I0
aI0
aI0
asg27
S'DC'
p2940
sS'x'
(lp2941
F-3.6709999999999998
aF4.8300000000000001
aF-13.747999999999999
asg29
g2790
sg23
I10
sba(ipmx.atom
Atom
p2942
(dp2943
g34
(lp2944
sg36
I0
sg21
g2797
sS'm'
F0
sg37
S''
sg38
S" C1'"
p2945
sg40
S' '
sg41
S''
sg42
S''
sg43
I11
sg44
F0
sg45
I1
sg46
F1
sg47
F0
sg24
S'A'
sg48
(lp2946
sg50
(lp2947
sg52
F0
sg53
S''
sg54
F0
sg55
(lp2948
sg57
S'C'
sg58
g2800
sg26
S'A'
sg59
F0
sg60
(lp2949
sg62
I0
sg63
S''
sg9
S"C1'"
p2950
sg64
F0
sS'f'
(lp2951
sg66
S''
sg67
I0
sS'q'
F0
sg68
S'ATOM  '
p2952
sg70
S' '
sg71
S''
sS'v'
(lp2953
I0
aI0
aI0
asg27
S'DC'
p2954
sS'x'
(lp2955
F-3.4729999999999999
aF4.343
aF-15.066000000000001
asg29
g2790
sg23
I11
sba(ipmx.atom
Atom
p2956
(dp2957
g34
(lp2958
sg36
I0
sg21
g2797
sS'm'
F0
sg37
S''
sg38
S" H1'"
p2959
sg40
S' '
sg41
S''
sg42
S''
sg43
I12
sg44
F0
sg45
I1
sg46
F1
sg47
F0
sg24
S'A'
sg48
(lp2960
sg50
(lp2961
sg52
F0
sg53
S''
sg54
F0
sg55
(lp2962
sg57
S'H'
sg58
g2800
sg26
S'A'
sg59
F0
sg60
(lp2963
sg62
I0
sg63
S''
sg9
S"H1'"
p2964
sg64
F0
sS'f'
(lp2965
sg66
S''
sg67
I0
sS'q'
F0
sg68
S'ATOM  '
p2966
sg70
S' '
sg71
S''
sS'v'
(lp2967
I0
aI0
aI0
asg27
S'DC'
p2968
sS'x'
(lp2969
F-2.536
aF4.7619999999999996
aF-15.442
asg29
g2790
sg23
I12
sba(ipmx.atom
Atom
p2970
(dp2971
g34
(lp2972
sg36
I0
sg21
g2797
sS'm'
F0
sg37
S''
sg38
S' N1 '
p2973
sg40
S' '
sg41
S''
sg42
S''
sg43
I13
sg44
F0
sg45
I1
sg46
F1
sg47
F0
sg24
S'A'
sg48
(lp2974
sg50
(lp2975
sg52
F0
sg53
S''
sg54
F0
sg55
(lp2976
sg57
S'N'
sg58
g2800
sg26
S'A'
sg59
F0
sg60
(lp2977
sg62
I0
sg63
S''
sg9
S'N1'
p2978
sg64
F0
sS'f'
(lp2979
sg66
S''
sg67
I0
sS'q'
F0
sg68
S'ATOM  '
p2980
sg70
S' '
sg71
S''
sS'v'
(lp2981
I0
aI0
aI0
asg27
S'DC'
p2982
sS'x'
(lp2983
F-3.379
aF2.8519999999999999
aF-15.077999999999999
asg29
g2790
sg23
I13
sba(ipmx.atom
Atom
p2984
(dp2985
g34
(lp2986
sg36
I0
sg21
g2797
sS'm'
F0
sg37
S''
sg38
S' C6 '
p2987
sg40
S' '
sg41
S''
sg42
S''
sg43
I14
sg44
F0
sg45
I1
sg46
F1
sg47
F0
sg24
S'A'
sg48
(lp2988
sg50
(lp2989
sg52
F0
sg53
S''
sg54
F0
sg55
(lp2990
sg57
S'C'
sg58
g2800
sg26
S'A'
sg59
F0
sg60
(lp2991
sg62
I0
sg63
S''
sg9
S'C6'
p2992
sg64
F0
sS'f'
(lp2993
sg66
S''
sg67
I0
sS'q'
F0
sg68
S'ATOM  '
p2994
sg70
S' '
sg71
S''
sS'v'
(lp2995
I0
aI0
aI0
asg27
S'DC'
p2996
sS'x'
(lp2997
F-4.4989999999999997
aF2.0600000000000001
aF-15.103
asg29
g2790
sg23
I14
sba(ipmx.atom
Atom
p2998
(dp2999
g34
(lp3000
sg36
I0
sg21
g2797
sS'm'
F0
sg37
S''
sg38
S' H6 '
p3001
sg40
S' '
sg41
S''
sg42
S''
sg43
I15
sg44
F0
sg45
I1
sg46
F1
sg47
F0
sg24
S'A'
sg48
(lp3002
sg50
(lp3003
sg52
F0
sg53
S''
sg54
F0
sg55
(lp3004
sg57
S'H'
sg58
g2800
sg26
S'A'
sg59
F0
sg60
(lp3005
sg62
I0
sg63
S''
sg9
S'H6'
p3006
sg64
F0
sS'f'
(lp3007
sg66
S''
sg67
I0
sS'q'
F0
sg68
S'ATOM  '
p3008
sg70
S' '
sg71
S''
sS'v'
(lp3009
I0
aI0
aI0
asg27
S'DC'
p3010
sS'x'
(lp3011
F-5.476
aF2.5049999999999999
aF-15.103
asg29
g2790
sg23
I15
sba(ipmx.atom
Atom
p3012
(dp3013
g34
(lp3014
sg36
I0
sg21
g2797
sS'm'
F0
sg37
S''
sg38
S' C5 '
p3015
sg40
S' '
sg41
S''
sg42
S''
sg43
I16
sg44
F0
sg45
I1
sg46
F1
sg47
F0
sg24
S'A'
sg48
(lp3016
sg50
(lp3017
sg52
F0
sg53
S''
sg54
F0
sg55
(lp3018
sg57
S'C'
sg58
g2800
sg26
S'A'
sg59
F0
sg60
(lp3019
sg62
I0
sg63
S''
sg9
S'C5'
p3020
sg64
F0
sS'f'
(lp3021
sg66
S''
sg67
I0
sS'q'
F0
sg68
S'ATOM  '
p3022
sg70
S' '
sg71
S''
sS'v'
(lp3023
I0
aI0
aI0
asg27
S'DC'
p3024
sS'x'
(lp3025
F-4.4029999999999996
aF0.71299999999999997
aF-15.105
asg29
g2790
sg23
I16
sba(ipmx.atom
Atom
p3026
(dp3027
g34
(lp3028
sg36
I0
sg21
g2797
sS'm'
F0
sg37
S''
sg38
S' H5 '
p3029
sg40
S' '
sg41
S''
sg42
S''
sg43
I17
sg44
F0
sg45
I1
sg46
F1
sg47
F0
sg24
S'A'
sg48
(lp3030
sg50
(lp3031
sg52
F0
sg53
S''
sg54
F0
sg55
(lp3032
sg57
S'H'
sg58
g2800
sg26
S'A'
sg59
F0
sg60
(lp3033
sg62
I0
sg63
S''
sg9
S'H5'
p3034
sg64
F0
sS'f'
(lp3035
sg66
S''
sg67
I0
sS'q'
F0
sg68
S'ATOM  '
p3036
sg70
S' '
sg71
S''
sS'v'
(lp3037
I0
aI0
aI0
asg27
S'DC'
p3038
sS'x'
(lp3039
F-5.3019999999999996
aF0.11700000000000001
aF-15.103
asg29
g2790
sg23
I17
sba(ipmx.atom
Atom
p3040
(dp3041
g34
(lp3042
sg36
I0
sg21
g2797
sS'm'
F0
sg37
S''
sg38
S' C4 '
p3043
sg40
S' '
sg41
S''
sg42
S''
sg43
I18
sg44
F0
sg45
I1
sg46
F1
sg47
F0
sg24
S'A'
sg48
(lp3044
sg50
(lp3045
sg52
F0
sg53
S''
sg54
F0
sg55
(lp3046
sg57
S'C'
sg58
g2800
sg26
S'A'
sg59
F0
sg60
(lp3047
sg62
I0
sg63
S''
sg9
S'C4'
p3048
sg64
F0
sS'f'
(lp3049
sg66
S''
sg67
I0
sS'q'
F0
sg68
S'ATOM  '
p3050
sg70
S' '
sg71
S''
sS'v'
(lp3051
I0
aI0
aI0
asg27
S'DC'
p3052
sS'x'
(lp3053
F-3.1019999999999999
aF0.16700000000000001
aF-15.106999999999999
asg29
g2790
sg23
I18
sba(ipmx.atom
Atom
p3054
(dp3055
g34
(lp3056
sg36
I0
sg21
g2797
sS'm'
F0
sg37
S''
sg38
S' N4 '
p3057
sg40
S' '
sg41
S''
sg42
S''
sg43
I19
sg44
F0
sg45
I1
sg46
F1
sg47
F0
sg24
S'A'
sg48
(lp3058
sg50
(lp3059
sg52
F0
sg53
S''
sg54
F0
sg55
(lp3060
sg57
S'N'
sg58
g2800
sg26
S'A'
sg59
F0
sg60
(lp3061
sg62
I0
sg63
S''
sg9
S'N4'
p3062
sg64
F0
sS'f'
(lp3063
sg66
S''
sg67
I0
sS'q'
F0
sg68
S'ATOM  '
p3064
sg70
S' '
sg71
S''
sS'v'
(lp3065
I0
aI0
aI0
asg27
S'DC'
p3066
sS'x'
(lp3067
F-2.964
aF-1.1220000000000001
aF-15.087
asg29
g2790
sg23
I19
sba(ipmx.atom
Atom
p3068
(dp3069
g34
(lp3070
sg36
I0
sg21
g2797
sS'm'
F0
sg37
S''
sg38
S' H41'
p3071
sg40
S' '
sg41
S''
sg42
S''
sg43
I20
sg44
F0
sg45
I1
sg46
F1
sg47
F0
sg24
S'A'
sg48
(lp3072
sg50
(lp3073
sg52
F0
sg53
S''
sg54
F0
sg55
(lp3074
sg57
S'H'
sg58
g2800
sg26
S'A'
sg59
F0
sg60
(lp3075
sg62
I0
sg63
S''
sg9
S'H41'
p3076
sg64
F0
sS'f'
(lp3077
sg66
S''
sg67
I0
sS'q'
F0
sg68
S'ATOM  '
p3078
sg70
S' '
sg71
S''
sS'v'
(lp3079
I0
aI0
aI0
asg27
S'DC'
p3080
sS'x'
(lp3081
F-2.0249999999999999
aF-1.502
aF-15.109999999999999
asg29
g2790
sg23
I20
sba(ipmx.atom
Atom
p3082
(dp3083
g34
(lp3084
sg36
I0
sg21
g2797
sS'm'
F0
sg37
S''
sg38
S' H42'
p3085
sg40
S' '
sg41
S''
sg42
S''
sg43
I21
sg44
F0
sg45
I1
sg46
F1
sg47
F0
sg24
S'A'
sg48
(lp3086
sg50
(lp3087
sg52
F0
sg53
S''
sg54
F0
sg55
(lp3088
sg57
S'H'
sg58
g2800
sg26
S'A'
sg59
F0
sg60
(lp3089
sg62
I0
sg63
S''
sg9
S'H42'
p3090
sg64
F0
sS'f'
(lp3091
sg66
S''
sg67
I0
sS'q'
F0
sg68
S'ATOM  '
p3092
sg70
S' '
sg71
S''
sS'v'
(lp3093
I0
aI0
aI0
asg27
S'DC'
p3094
sS'x'
(lp3095
F-3.7610000000000001
aF-1.7190000000000001
aF-15.082000000000001
asg29
g2790
sg23
I21
sba(ipmx.atom
Atom
p3096
(dp3097
g34
(lp3098
sg36
I0
sg21
g2797
sS'm'
F0
sg37
S''
sg38
S' N3 '
p3099
sg40
S' '
sg41
S''
sg42
S''
sg43
I22
sg44
F0
sg45
I1
sg46
F1
sg47
F0
sg24
S'A'
sg48
(lp3100
sg50
(lp3101
sg52
F0
sg53
S''
sg54
F0
sg55
(lp3102
sg57
S'N'
sg58
g2800
sg26
S'A'
sg59
F0
sg60
(lp3103
sg62
I0
sg63
S''
sg9
S'N3'
p3104
sg64
F0
sS'f'
(lp3105
sg66
S''
sg67
I0
sS'q'
F0
sg68
S'ATOM  '
p3106
sg70
S' '
sg71
S''
sS'v'
(lp3107
I0
aI0
aI0
asg27
S'DC'
p3108
sS'x'
(lp3109
F-2.0019999999999998
aF0.88800000000000001
aF-15.098000000000001
asg29
g2790
sg23
I22
sba(ipmx.atom
Atom
p3110
(dp3111
g34
(lp3112
sg36
I0
sg21
g2797
sS'm'
F0
sg37
S''
sg38
S' C2 '
p3113
sg40
S' '
sg41
S''
sg42
S''
sg43
I23
sg44
F0
sg45
I1
sg46
F1
sg47
F0
sg24
S'A'
sg48
(lp3114
sg50
(lp3115
sg52
F0
sg53
S''
sg54
F0
sg55
(lp3116
sg57
S'C'
sg58
g2800
sg26
S'A'
sg59
F0
sg60
(lp3117
sg62
I0
sg63
S''
sg9
S'C2'
p3118
sg64
F0
sS'f'
(lp3119
sg66
S''
sg67
I0
sS'q'
F0
sg68
S'ATOM  '
p3120
sg70
S' '
sg71
S''
sS'v'
(lp3121
I0
aI0
aI0
asg27
S'DC'
p3122
sS'x'
(lp3123
F-2.1200000000000001
aF2.242
aF-15.082000000000001
asg29
g2790
sg23
I23
sba(ipmx.atom
Atom
p3124
(dp3125
g34
(lp3126
sg36
I0
sg21
g2797
sS'm'
F0
sg37
S''
sg38
S' O  '
p3127
sg40
S' '
sg41
S''
sg42
S''
sg43
I24
sg44
F0
sg45
I1
sg46
F1
sg47
F0
sg24
S'A'
sg48
(lp3128
sg50
(lp3129
sg52
F0
sg53
S''
sg54
F0
sg55
(lp3130
sg57
S'O'
sg58
g2800
sg26
S'A'
sg59
F0
sg60
(lp3131
sg62
I0
sg63
S''
sg9
S'O'
sg64
F0
sS'f'
(lp3132
sg66
S''
sg67
I0
sS'q'
F0
sg68
S'ATOM  '
p3133
sg70
S' '
sg71
S''
sS'v'
(lp3134
I0
aI0
aI0
asg27
S'DC'
p3135
sS'x'
(lp3136
F-1.0740000000000001
aF2.8900000000000001
aF-15.083
asg29
g2790
sg23
I24
sba(ipmx.atom
Atom
p3137
(dp3138
g34
(lp3139
sg36
I0
sg21
g2797
sS'm'
F0
sg37
S''
sg38
S" C3'"
p3140
sg40
S' '
sg41
S''
sg42
S''
sg43
I25
sg44
F0
sg45
I1
sg46
F1
sg47
F0
sg24
S'A'
sg48
(lp3141
sg50
(lp3142
sg52
F0
sg53
S''
sg54
F0
sg55
(lp3143
sg57
S'C'
sg58
g2800
sg26
S'A'
sg59
F0
sg60
(lp3144
sg62
I0
sg63
S''
sg9
S"C3'"
p3145
sg64
F0
sS'f'
(lp3146
sg66
S''
sg67
I0
sS'q'
F0
sg68
S'ATOM  '
p3147
sg70
S' '
sg71
S''
sS'v'
(lp3148
I0
aI0
aI0
asg27
S'DC'
p3149
sS'x'
(lp3150
F-5.0789999999999997
aF6.1719999999999997
aF-15.201000000000001
asg29
g2790
sg23
I25
sba(ipmx.atom
Atom
p3151
(dp3152
g34
(lp3153
sg36
I0
sg21
g2797
sS'm'
F0
sg37
S''
sg38
S" H3'"
p3154
sg40
S' '
sg41
S''
sg42
S''
sg43
I26
sg44
F0
sg45
I1
sg46
F1
sg47
F0
sg24
S'A'
sg48
(lp3155
sg50
(lp3156
sg52
F0
sg53
S''
sg54
F0
sg55
(lp3157
sg57
S'H'
sg58
g2800
sg26
S'A'
sg59
F0
sg60
(lp3158
sg62
I0
sg63
S''
sg9
S"H3'"
p3159
sg64
F0
sS'f'
(lp3160
sg66
S''
sg67
I0
sS'q'
F0
sg68
S'ATOM  '
p3161
sg70
S' '
sg71
S''
sS'v'
(lp3162
I0
aI0
aI0
asg27
S'DC'
p3163
sS'x'
(lp3164
F-6.149
aF6.3090000000000002
aF-15.331
asg29
g2790
sg23
I26
sba(ipmx.atom
Atom
p3165
(dp3166
g34
(lp3167
sg36
I0
sg21
g2797
sS'm'
F0
sg37
S''
sg38
S" C2'"
p3168
sg40
S' '
sg41
S''
sg42
S''
sg43
I27
sg44
F0
sg45
I1
sg46
F1
sg47
F0
sg24
S'A'
sg48
(lp3169
sg50
(lp3170
sg52
F0
sg53
S''
sg54
F0
sg55
(lp3171
sg57
S'C'
sg58
g2800
sg26
S'A'
sg59
F0
sg60
(lp3172
sg62
I0
sg63
S''
sg9
S"C2'"
p3173
sg64
F0
sS'f'
(lp3174
sg66
S''
sg67
I0
sS'q'
F0
sg68
S'ATOM  '
p3175
sg70
S' '
sg71
S''
sS'v'
(lp3176
I0
aI0
aI0
asg27
S'DC'
p3177
sS'x'
(lp3178
F-4.5999999999999996
aF4.9199999999999999
aF-15.935
asg29
g2790
sg23
I27
sba(ipmx.atom
Atom
p3179
(dp3180
g34
(lp3181
sg36
I0
sg21
g2797
sS'm'
F0
sg37
S''
sg38
S"1H2'"
p3182
sg40
S' '
sg41
S''
sg42
S''
sg43
I28
sg44
F0
sg45
I1
sg46
F1
sg47
F0
sg24
S'A'
sg48
(lp3183
sg50
(lp3184
sg52
F0
sg53
S''
sg54
F0
sg55
(lp3185
sg57
S'H'
sg58
g2800
sg26
S'A'
sg59
F0
sg60
(lp3186
sg62
I0
sg63
S''
sg9
S"H2'1"
p3187
sg64
F0
sS'f'
(lp3188
sg66
S''
sg67
I0
sS'q'
F0
sg68
S'ATOM  '
p3189
sg70
S' '
sg71
S''
sS'v'
(lp3190
I0
aI0
aI0
asg27
S'DC'
p3191
sS'x'
(lp3192
F-5.4390000000000001
aF4.2469999999999999
aF-16.067
asg29
g2790
sg23
I28
sba(ipmx.atom
Atom
p3193
(dp3194
g34
(lp3195
sg36
I0
sg21
g2797
sS'm'
F0
sg37
S''
sg38
S"2H2'"
p3196
sg40
S' '
sg41
S''
sg42
S''
sg43
I29
sg44
F0
sg45
I1
sg46
F1
sg47
F0
sg24
S'A'
sg48
(lp3197
sg50
(lp3198
sg52
F0
sg53
S''
sg54
F0
sg55
(lp3199
sg57
S'H'
sg58
g2800
sg26
S'A'
sg59
F0
sg60
(lp3200
sg62
I0
sg63
S''
sg9
S"H2'2"
p3201
sg64
F0
sS'f'
(lp3202
sg66
S''
sg67
I0
sS'q'
F0
sg68
S'ATOM  '
p3203
sg70
S' '
sg71
S''
sS'v'
(lp3204
I0
aI0
aI0
asg27
S'DC'
p3205
sS'x'
(lp3206
F-4.2519999999999998
aF5.125
aF-16.925000000000001
asg29
g2790
sg23
I29
sba(ipmx.atom
Atom
p3207
(dp3208
g34
(lp3209
sg36
I0
sg21
g2797
sS'm'
F0
sg37
S''
sg38
S" O3'"
p3210
sg40
S' '
sg41
S''
sg42
S''
sg43
I30
sg44
F0
sg45
I1
sg46
F1
sg47
F0
sg24
S'A'
sg48
(lp3211
sg50
(lp3212
sg52
F0
sg53
S''
sg54
F0
sg55
(lp3213
sg57
S'O'
sg58
g2800
sg26
S'A'
sg59
F0
sg60
(lp3214
sg62
I0
sg63
S''
sg9
S"O3'"
p3215
sg64
F0
sS'f'
(lp3216
sg66
S''
sg67
I0
sS'q'
F0
sg68
S'ATOM  '
p3217
sg70
S' '
sg71
S''
sS'v'
(lp3218
I0
aI0
aI0
asg27
S'DC'
p3219
sS'x'
(lp3220
F-4.4690000000000003
aF7.3979999999999997
aF-15.643000000000001
asg29
g2790
sg23
I30
sbasg43
I1
sg507
Nsbasg30
(lp3221
g2804
ag2816
ag2830
ag2844
ag2858
ag2872
ag2886
ag2900
ag2914
ag2928
ag2942
ag2956
ag2970
ag2984
ag2998
ag3012
ag3026
ag3040
ag3054
ag3068
ag3082
ag3096
ag3110
ag3124
ag3137
ag3151
ag3165
ag3179
ag3193
ag3207
asg509
I0
sg26
S'A'
sg29
g2790
sg510
I00
sg43
S'A'
sbsS'B'
(ipmx.chain
Chain
p3222
(dp3223
g16
(lp3224
(ipmx.molecule
Molecule
p3225
(dp3226
g20
I0
sg21
g3222
sg22
S''
sg23
I2
sg24
S'B'
sg25
Nsg26
S'A'
sg27
S'DG'
p3227
sg29
g2790
sg30
(lp3228
(ipmx.atom
Atom
p3229
(dp3230
g34
(lp3231
sg36
I0
sg21
g3222
sS'm'
F0
sg37
S''
sg38
S' P  '
p3232
sg40
S' '
sg41
S''
sg42
S''
sg43
I31
sg44
F0
sg45
I2
sg46
F1
sg47
F0
sg24
S'B'
sg48
(lp3233
sg50
(lp3234
sg52
F0
sg53
S''
sg54
F0
sg55
(lp3235
sg57
S'P'
sg58
g3225
sg26
S'A'
sg59
F0
sg60
(lp3236
sg62
I0
sg63
S''
sg9
S'P'
sg64
F0
sS'f'
(lp3237
sg66
S''
sg67
I0
sS'q'
F0
sg68
S'ATOM  '
p3238
sg70
S' '
sg71
S''
sS'v'
(lp3239
I0
aI0
aI0
asg27
g3227
sS'x'
(lp3240
F6.7140000000000004
aF-6.2770000000000001
aF-16.300999999999998
asg29
g2790
sg23
I31
sba(ipmx.atom
Atom
p3241
(dp3242
g34
(lp3243
sg36
I0
sg21
g3222
sS'm'
F0
sg37
S''
sg38
S' O1P'
p3244
sg40
S' '
sg41
S''
sg42
S''
sg43
I32
sg44
F0
sg45
I2
sg46
F1
sg47
F0
sg24
S'B'
sg48
(lp3245
sg50
(lp3246
sg52
F0
sg53
S''
sg54
F0
sg55
(lp3247
sg57
S'O'
sg58
g3225
sg26
S'A'
sg59
F0
sg60
(lp3248
sg62
I0
sg63
S''
sg9
S'O1P'
p3249
sg64
F0
sS'f'
(lp3250
sg66
S''
sg67
I0
sS'q'
F0
sg68
S'ATOM  '
p3251
sg70
S' '
sg71
S''
sS'v'
(lp3252
I0
aI0
aI0
asg27
S'DG'
p3253
sS'x'
(lp3254
F8.2070000000000007
aF-6.4509999999999996
aF-16.209
asg29
g2790
sg23
I32
sba(ipmx.atom
Atom
p3255
(dp3256
g34
(lp3257
sg36
I0
sg21
g3222
sS'm'
F0
sg37
S''
sg38
S' O2P'
p3258
sg40
S' '
sg41
S''
sg42
S''
sg43
I33
sg44
F0
sg45
I2
sg46
F1
sg47
F0
sg24
S'B'
sg48
(lp3259
sg50
(lp3260
sg52
F0
sg53
S''
sg54
F0
sg55
(lp3261
sg57
S'O'
sg58
g3225
sg26
S'A'
sg59
F0
sg60
(lp3262
sg62
I0
sg63
S''
sg9
S'O2P'
p3263
sg64
F0
sS'f'
(lp3264
sg66
S''
sg67
I0
sS'q'
F0
sg68
S'ATOM  '
p3265
sg70
S' '
sg71
S''
sS'v'
(lp3266
I0
aI0
aI0
asg27
S'DG'
p3267
sS'x'
(lp3268
F5.8230000000000004
aF-7.0570000000000004
aF-15.462
asg29
g2790
sg23
I33
sba(ipmx.atom
Atom
p3269
(dp3270
g34
(lp3271
sg36
I0
sg21
g3222
sS'm'
F0
sg37
S''
sg38
S" O5'"
p3272
sg40
S' '
sg41
S''
sg42
S''
sg43
I34
sg44
F0
sg45
I2
sg46
F1
sg47
F0
sg24
S'B'
sg48
(lp3273
sg50
(lp3274
sg52
F0
sg53
S''
sg54
F0
sg55
(lp3275
sg57
S'O'
sg58
g3225
sg26
S'A'
sg59
F0
sg60
(lp3276
sg62
I0
sg63
S''
sg9
S"O5'"
p3277
sg64
F0
sS'f'
(lp3278
sg66
S''
sg67
I0
sS'q'
F0
sg68
S'ATOM  '
p3279
sg70
S' '
sg71
S''
sS'v'
(lp3280
I0
aI0
aI0
asg27
S'DG'
p3281
sS'x'
(lp3282
F6.4509999999999996
aF-4.7130000000000001
aF-16.120000000000001
asg29
g2790
sg23
I34
sba(ipmx.atom
Atom
p3283
(dp3284
g34
(lp3285
sg36
I0
sg21
g3222
sS'm'
F0
sg37
S''
sg38
S" C5'"
p3286
sg40
S' '
sg41
S''
sg42
S''
sg43
I35
sg44
F0
sg45
I2
sg46
F1
sg47
F0
sg24
S'B'
sg48
(lp3287
sg50
(lp3288
sg52
F0
sg53
S''
sg54
F0
sg55
(lp3289
sg57
S'C'
sg58
g3225
sg26
S'A'
sg59
F0
sg60
(lp3290
sg62
I0
sg63
S''
sg9
S"C5'"
p3291
sg64
F0
sS'f'
(lp3292
sg66
S''
sg67
I0
sS'q'
F0
sg68
S'ATOM  '
p3293
sg70
S' '
sg71
S''
sS'v'
(lp3294
I0
aI0
aI0
asg27
S'DG'
p3295
sS'x'
(lp3296
F7.0529999999999999
aF-3.742
aF-16.975999999999999
asg29
g2790
sg23
I35
sba(ipmx.atom
Atom
p3297
(dp3298
g34
(lp3299
sg36
I0
sg21
g3222
sS'm'
F0
sg37
S''
sg38
S"1H5'"
p3300
sg40
S' '
sg41
S''
sg42
S''
sg43
I36
sg44
F0
sg45
I2
sg46
F1
sg47
F0
sg24
S'B'
sg48
(lp3301
sg50
(lp3302
sg52
F0
sg53
S''
sg54
F0
sg55
(lp3303
sg57
S'H'
sg58
g3225
sg26
S'A'
sg59
F0
sg60
(lp3304
sg62
I0
sg63
S''
sg9
S"H5'1"
p3305
sg64
F0
sS'f'
(lp3306
sg66
S''
sg67
I0
sS'q'
F0
sg68
S'ATOM  '
p3307
sg70
S' '
sg71
S''
sS'v'
(lp3308
I0
aI0
aI0
asg27
S'DG'
p3309
sS'x'
(lp3310
F8.0020000000000007
aF-4.1239999999999997
aF-17.361999999999998
asg29
g2790
sg23
I36
sba(ipmx.atom
Atom
p3311
(dp3312
g34
(lp3313
sg36
I0
sg21
g3222
sS'm'
F0
sg37
S''
sg38
S"2H5'"
p3314
sg40
S' '
sg41
S''
sg42
S''
sg43
I37
sg44
F0
sg45
I2
sg46
F1
sg47
F0
sg24
S'B'
sg48
(lp3315
sg50
(lp3316
sg52
F0
sg53
S''
sg54
F0
sg55
(lp3317
sg57
S'H'
sg58
g3225
sg26
S'A'
sg59
F0
sg60
(lp3318
sg62
I0
sg63
S''
sg9
S"H5'2"
p3319
sg64
F0
sS'f'
(lp3320
sg66
S''
sg67
I0
sS'q'
F0
sg68
S'ATOM  '
p3321
sg70
S' '
sg71
S''
sS'v'
(lp3322
I0
aI0
aI0
asg27
S'DG'
p3323
sS'x'
(lp3324
F6.4009999999999998
aF-3.577
aF-17.835000000000001
asg29
g2790
sg23
I37
sba(ipmx.atom
Atom
p3325
(dp3326
g34
(lp3327
sg36
I0
sg21
g3222
sS'm'
F0
sg37
S''
sg38
S" C4'"
p3328
sg40
S' '
sg41
S''
sg42
S''
sg43
I38
sg44
F0
sg45
I2
sg46
F1
sg47
F0
sg24
S'B'
sg48
(lp3329
sg50
(lp3330
sg52
F0
sg53
S''
sg54
F0
sg55
(lp3331
sg57
S'C'
sg58
g3225
sg26
S'A'
sg59
F0
sg60
(lp3332
sg62
I0
sg63
S''
sg9
S"C4'"
p3333
sg64
F0
sS'f'
(lp3334
sg66
S''
sg67
I0
sS'q'
F0
sg68
S'ATOM  '
p3335
sg70
S' '
sg71
S''
sS'v'
(lp3336
I0
aI0
aI0
asg27
S'DG'
p3337
sS'x'
(lp3338
F7.3159999999999998
aF-2.3900000000000001
aF-16.289000000000001
asg29
g2790
sg23
I38
sba(ipmx.atom
Atom
p3339
(dp3340
g34
(lp3341
sg36
I0
sg21
g3222
sS'm'
F0
sg37
S''
sg38
S" H4'"
p3342
sg40
S' '
sg41
S''
sg42
S''
sg43
I39
sg44
F0
sg45
I2
sg46
F1
sg47
F0
sg24
S'B'
sg48
(lp3343
sg50
(lp3344
sg52
F0
sg53
S''
sg54
F0
sg55
(lp3345
sg57
S'H'
sg58
g3225
sg26
S'A'
sg59
F0
sg60
(lp3346
sg62
I0
sg63
S''
sg9
S"H4'"
p3347
sg64
F0
sS'f'
(lp3348
sg66
S''
sg67
I0
sS'q'
F0
sg68
S'ATOM  '
p3349
sg70
S' '
sg71
S''
sS'v'
(lp3350
I0
aI0
aI0
asg27
S'DG'
p3351
sS'x'
(lp3352
F8.0589999999999993
aF-1.851
aF-16.864999999999998
asg29
g2790
sg23
I39
sba(ipmx.atom
Atom
p3353
(dp3354
g34
(lp3355
sg36
I0
sg21
g3222
sS'm'
F0
sg37
S''
sg38
S" O4'"
p3356
sg40
S' '
sg41
S''
sg42
S''
sg43
I40
sg44
F0
sg45
I2
sg46
F1
sg47
F0
sg24
S'B'
sg48
(lp3357
sg50
(lp3358
sg52
F0
sg53
S''
sg54
F0
sg55
(lp3359
sg57
S'O'
sg58
g3225
sg26
S'A'
sg59
F0
sg60
(lp3360
sg62
I0
sg63
S''
sg9
S"O4'"
p3361
sg64
F0
sS'f'
(lp3362
sg66
S''
sg67
I0
sS'q'
F0
sg68
S'ATOM  '
p3363
sg70
S' '
sg71
S''
sS'v'
(lp3364
I0
aI0
aI0
asg27
S'DG'
p3365
sS'x'
(lp3366
F6.0999999999999996
aF-1.6339999999999999
aF-16.286000000000001
asg29
g2790
sg23
I40
sba(ipmx.atom
Atom
p3367
(dp3368
g34
(lp3369
sg36
I0
sg21
g3222
sS'm'
F0
sg37
S''
sg38
S" C1'"
p3370
sg40
S' '
sg41
S''
sg42
S''
sg43
I41
sg44
F0
sg45
I2
sg46
F1
sg47
F0
sg24
S'B'
sg48
(lp3371
sg50
(lp3372
sg52
F0
sg53
S''
sg54
F0
sg55
(lp3373
sg57
S'C'
sg58
g3225
sg26
S'A'
sg59
F0
sg60
(lp3374
sg62
I0
sg63
S''
sg9
S"C1'"
p3375
sg64
F0
sS'f'
(lp3376
sg66
S''
sg67
I0
sS'q'
F0
sg68
S'ATOM  '
p3377
sg70
S' '
sg71
S''
sS'v'
(lp3378
I0
aI0
aI0
asg27
S'DG'
p3379
sS'x'
(lp3380
F5.5270000000000001
aF-1.6970000000000001
aF-14.997999999999999
asg29
g2790
sg23
I41
sba(ipmx.atom
Atom
p3381
(dp3382
g34
(lp3383
sg36
I0
sg21
g3222
sS'm'
F0
sg37
S''
sg38
S" H1'"
p3384
sg40
S' '
sg41
S''
sg42
S''
sg43
I42
sg44
F0
sg45
I2
sg46
F1
sg47
F0
sg24
S'B'
sg48
(lp3385
sg50
(lp3386
sg52
F0
sg53
S''
sg54
F0
sg55
(lp3387
sg57
S'H'
sg58
g3225
sg26
S'A'
sg59
F0
sg60
(lp3388
sg62
I0
sg63
S''
sg9
S"H1'"
p3389
sg64
F0
sS'f'
(lp3390
sg66
S''
sg67
I0
sS'q'
F0
sg68
S'ATOM  '
p3391
sg70
S' '
sg71
S''
sS'v'
(lp3392
I0
aI0
aI0
asg27
S'DG'
p3393
sS'x'
(lp3394
F5.5270000000000001
aF-0.71299999999999997
aF-14.531000000000001
asg29
g2790
sg23
I42
sba(ipmx.atom
Atom
p3395
(dp3396
g34
(lp3397
sg36
I0
sg21
g3222
sS'm'
F0
sg37
S''
sg38
S' N9 '
p3398
sg40
S' '
sg41
S''
sg42
S''
sg43
I43
sg44
F0
sg45
I2
sg46
F1
sg47
F0
sg24
S'B'
sg48
(lp3399
sg50
(lp3400
sg52
F0
sg53
S''
sg54
F0
sg55
(lp3401
sg57
S'N'
sg58
g3225
sg26
S'A'
sg59
F0
sg60
(lp3402
sg62
I0
sg63
S''
sg9
S'N9'
p3403
sg64
F0
sS'f'
(lp3404
sg66
S''
sg67
I0
sS'q'
F0
sg68
S'ATOM  '
p3405
sg70
S' '
sg71
S''
sS'v'
(lp3406
I0
aI0
aI0
asg27
S'DG'
p3407
sS'x'
(lp3408
F4.1239999999999997
aF-2.1850000000000001
aF-15.037000000000001
asg29
g2790
sg23
I43
sba(ipmx.atom
Atom
p3409
(dp3410
g34
(lp3411
sg36
I0
sg21
g3222
sS'm'
F0
sg37
S''
sg38
S' C8 '
p3412
sg40
S' '
sg41
S''
sg42
S''
sg43
I44
sg44
F0
sg45
I2
sg46
F1
sg47
F0
sg24
S'B'
sg48
(lp3413
sg50
(lp3414
sg52
F0
sg53
S''
sg54
F0
sg55
(lp3415
sg57
S'C'
sg58
g3225
sg26
S'A'
sg59
F0
sg60
(lp3416
sg62
I0
sg63
S''
sg9
S'C8'
p3417
sg64
F0
sS'f'
(lp3418
sg66
S''
sg67
I0
sS'q'
F0
sg68
S'ATOM  '
p3419
sg70
S' '
sg71
S''
sS'v'
(lp3420
I0
aI0
aI0
asg27
S'DG'
p3421
sS'x'
(lp3422
F3.637
aF-3.4660000000000002
aF-15.084
asg29
g2790
sg23
I44
sba(ipmx.atom
Atom
p3423
(dp3424
g34
(lp3425
sg36
I0
sg21
g3222
sS'm'
F0
sg37
S''
sg38
S' H8 '
p3426
sg40
S' '
sg41
S''
sg42
S''
sg43
I45
sg44
F0
sg45
I2
sg46
F1
sg47
F0
sg24
S'B'
sg48
(lp3427
sg50
(lp3428
sg52
F0
sg53
S''
sg54
F0
sg55
(lp3429
sg57
S'H'
sg58
g3225
sg26
S'A'
sg59
F0
sg60
(lp3430
sg62
I0
sg63
S''
sg9
S'H8'
p3431
sg64
F0
sS'f'
(lp3432
sg66
S''
sg67
I0
sS'q'
F0
sg68
S'ATOM  '
p3433
sg70
S' '
sg71
S''
sS'v'
(lp3434
I0
aI0
aI0
asg27
S'DG'
p3435
sS'x'
(lp3436
F4.2889999999999997
aF-4.327
aF-15.084
asg29
g2790
sg23
I45
sba(ipmx.atom
Atom
p3437
(dp3438
g34
(lp3439
sg36
I0
sg21
g3222
sS'm'
F0
sg37
S''
sg38
S' N7 '
p3440
sg40
S' '
sg41
S''
sg42
S''
sg43
I46
sg44
F0
sg45
I2
sg46
F1
sg47
F0
sg24
S'B'
sg48
(lp3441
sg50
(lp3442
sg52
F0
sg53
S''
sg54
F0
sg55
(lp3443
sg57
S'N'
sg58
g3225
sg26
S'A'
sg59
F0
sg60
(lp3444
sg62
I0
sg63
S''
sg9
S'N7'
p3445
sg64
F0
sS'f'
(lp3446
sg66
S''
sg67
I0
sS'q'
F0
sg68
S'ATOM  '
p3447
sg70
S' '
sg71
S''
sS'v'
(lp3448
I0
aI0
aI0
asg27
S'DG'
p3449
sS'x'
(lp3450
F2.3359999999999999
aF-3.552
aF-15.151
asg29
g2790
sg23
I46
sba(ipmx.atom
Atom
p3451
(dp3452
g34
(lp3453
sg36
I0
sg21
g3222
sS'm'
F0
sg37
S''
sg38
S' C5 '
p3454
sg40
S' '
sg41
S''
sg42
S''
sg43
I47
sg44
F0
sg45
I2
sg46
F1
sg47
F0
sg24
S'B'
sg48
(lp3455
sg50
(lp3456
sg52
F0
sg53
S''
sg54
F0
sg55
(lp3457
sg57
S'C'
sg58
g3225
sg26
S'A'
sg59
F0
sg60
(lp3458
sg62
I0
sg63
S''
sg9
S'C5'
p3459
sg64
F0
sS'f'
(lp3460
sg66
S''
sg67
I0
sS'q'
F0
sg68
S'ATOM  '
p3461
sg70
S' '
sg71
S''
sS'v'
(lp3462
I0
aI0
aI0
asg27
S'DG'
p3463
sS'x'
(lp3464
F1.9259999999999999
aF-2.218
aF-15.105
asg29
g2790
sg23
I47
sba(ipmx.atom
Atom
p3465
(dp3466
g34
(lp3467
sg36
I0
sg21
g3222
sS'm'
F0
sg37
S''
sg38
S' C6 '
p3468
sg40
S' '
sg41
S''
sg42
S''
sg43
I48
sg44
F0
sg45
I2
sg46
F1
sg47
F0
sg24
S'B'
sg48
(lp3469
sg50
(lp3470
sg52
F0
sg53
S''
sg54
F0
sg55
(lp3471
sg57
S'C'
sg58
g3225
sg26
S'A'
sg59
F0
sg60
(lp3472
sg62
I0
sg63
S''
sg9
S'C6'
p3473
sg64
F0
sS'f'
(lp3474
sg66
S''
sg67
I0
sS'q'
F0
sg68
S'ATOM  '
p3475
sg70
S' '
sg71
S''
sS'v'
(lp3476
I0
aI0
aI0
asg27
S'DG'
p3477
sS'x'
(lp3478
F0.622
aF-1.6339999999999999
aF-15.117000000000001
asg29
g2790
sg23
I48
sba(ipmx.atom
Atom
p3479
(dp3480
g34
(lp3481
sg36
I0
sg21
g3222
sS'm'
F0
sg37
S''
sg38
S' O6 '
p3482
sg40
S' '
sg41
S''
sg42
S''
sg43
I49
sg44
F0
sg45
I2
sg46
F1
sg47
F0
sg24
S'B'
sg48
(lp3483
sg50
(lp3484
sg52
F0
sg53
S''
sg54
F0
sg55
(lp3485
sg57
S'O'
sg58
g3225
sg26
S'A'
sg59
F0
sg60
(lp3486
sg62
I0
sg63
S''
sg9
S'O6'
p3487
sg64
F0
sS'f'
(lp3488
sg66
S''
sg67
I0
sS'q'
F0
sg68
S'ATOM  '
p3489
sg70
S' '
sg71
S''
sS'v'
(lp3490
I0
aI0
aI0
asg27
S'DG'
p3491
sS'x'
(lp3492
F-0.46700000000000003
aF-2.198
aF-15.178000000000001
asg29
g2790
sg23
I49
sba(ipmx.atom
Atom
p3493
(dp3494
g34
(lp3495
sg36
I0
sg21
g3222
sS'm'
F0
sg37
S''
sg38
S' N1 '
p3496
sg40
S' '
sg41
S''
sg42
S''
sg43
I50
sg44
F0
sg45
I2
sg46
F1
sg47
F0
sg24
S'B'
sg48
(lp3497
sg50
(lp3498
sg52
F0
sg53
S''
sg54
F0
sg55
(lp3499
sg57
S'N'
sg58
g3225
sg26
S'A'
sg59
F0
sg60
(lp3500
sg62
I0
sg63
S''
sg9
S'N1'
p3501
sg64
F0
sS'f'
(lp3502
sg66
S''
sg67
I0
sS'q'
F0
sg68
S'ATOM  '
p3503
sg70
S' '
sg71
S''
sS'v'
(lp3504
I0
aI0
aI0
asg27
S'DG'
p3505
sS'x'
(lp3506
F0.63200000000000001
aF-0.254
aF-15.038
asg29
g2790
sg23
I50
sba(ipmx.atom
Atom
p3507
(dp3508
g34
(lp3509
sg36
I0
sg21
g3222
sS'm'
F0
sg37
S''
sg38
S' H1 '
p3510
sg40
S' '
sg41
S''
sg42
S''
sg43
I51
sg44
F0
sg45
I2
sg46
F1
sg47
F0
sg24
S'B'
sg48
(lp3511
sg50
(lp3512
sg52
F0
sg53
S''
sg54
F0
sg55
(lp3513
sg57
S'H'
sg58
g3225
sg26
S'A'
sg59
F0
sg60
(lp3514
sg62
I0
sg63
S''
sg9
S'H1'
p3515
sg64
F0
sS'f'
(lp3516
sg66
S''
sg67
I0
sS'q'
F0
sg68
S'ATOM  '
p3517
sg70
S' '
sg71
S''
sS'v'
(lp3518
I0
aI0
aI0
asg27
S'DG'
p3519
sS'x'
(lp3520
F-0.255
aF0.22
aF-15.048
asg29
g2790
sg23
I51
sba(ipmx.atom
Atom
p3521
(dp3522
g34
(lp3523
sg36
I0
sg21
g3222
sS'm'
F0
sg37
S''
sg38
S' C2 '
p3524
sg40
S' '
sg41
S''
sg42
S''
sg43
I52
sg44
F0
sg45
I2
sg46
F1
sg47
F0
sg24
S'B'
sg48
(lp3525
sg50
(lp3526
sg52
F0
sg53
S''
sg54
F0
sg55
(lp3527
sg57
S'C'
sg58
g3225
sg26
S'A'
sg59
F0
sg60
(lp3528
sg62
I0
sg63
S''
sg9
S'C2'
p3529
sg64
F0
sS'f'
(lp3530
sg66
S''
sg67
I0
sS'q'
F0
sg68
S'ATOM  '
p3531
sg70
S' '
sg71
S''
sS'v'
(lp3532
I0
aI0
aI0
asg27
S'DG'
p3533
sS'x'
(lp3534
F1.7589999999999999
aF0.49099999999999999
aF-14.946
asg29
g2790
sg23
I52
sba(ipmx.atom
Atom
p3535
(dp3536
g34
(lp3537
sg36
I0
sg21
g3222
sS'm'
F0
sg37
S''
sg38
S' N2 '
p3538
sg40
S' '
sg41
S''
sg42
S''
sg43
I53
sg44
F0
sg45
I2
sg46
F1
sg47
F0
sg24
S'B'
sg48
(lp3539
sg50
(lp3540
sg52
F0
sg53
S''
sg54
F0
sg55
(lp3541
sg57
S'N'
sg58
g3225
sg26
S'A'
sg59
F0
sg60
(lp3542
sg62
I0
sg63
S''
sg9
S'N2'
p3543
sg64
F0
sS'f'
(lp3544
sg66
S''
sg67
I0
sS'q'
F0
sg68
S'ATOM  '
p3545
sg70
S' '
sg71
S''
sS'v'
(lp3546
I0
aI0
aI0
asg27
S'DG'
p3547
sS'x'
(lp3548
F1.595
aF1.7889999999999999
aF-14.858000000000001
asg29
g2790
sg23
I53
sba(ipmx.atom
Atom
p3549
(dp3550
g34
(lp3551
sg36
I0
sg21
g3222
sS'm'
F0
sg37
S''
sg38
S' H21'
p3552
sg40
S' '
sg41
S''
sg42
S''
sg43
I54
sg44
F0
sg45
I2
sg46
F1
sg47
F0
sg24
S'B'
sg48
(lp3553
sg50
(lp3554
sg52
F0
sg53
S''
sg54
F0
sg55
(lp3555
sg57
S'H'
sg58
g3225
sg26
S'A'
sg59
F0
sg60
(lp3556
sg62
I0
sg63
S''
sg9
S'H21'
p3557
sg64
F0
sS'f'
(lp3558
sg66
S''
sg67
I0
sS'q'
F0
sg68
S'ATOM  '
p3559
sg70
S' '
sg71
S''
sS'v'
(lp3560
I0
aI0
aI0
asg27
S'DG'
p3561
sS'x'
(lp3562
F2.411
aF2.3660000000000001
aF-14.77
asg29
g2790
sg23
I54
sba(ipmx.atom
Atom
p3563
(dp3564
g34
(lp3565
sg36
I0
sg21
g3222
sS'm'
F0
sg37
S''
sg38
S' H22'
p3566
sg40
S' '
sg41
S''
sg42
S''
sg43
I55
sg44
F0
sg45
I2
sg46
F1
sg47
F0
sg24
S'B'
sg48
(lp3567
sg50
(lp3568
sg52
F0
sg53
S''
sg54
F0
sg55
(lp3569
sg57
S'H'
sg58
g3225
sg26
S'A'
sg59
F0
sg60
(lp3570
sg62
I0
sg63
S''
sg9
S'H22'
p3571
sg64
F0
sS'f'
(lp3572
sg66
S''
sg67
I0
sS'q'
F0
sg68
S'ATOM  '
p3573
sg70
S' '
sg71
S''
sS'v'
(lp3574
I0
aI0
aI0
asg27
S'DG'
p3575
sS'x'
(lp3576
F0.66000000000000003
aF2.2010000000000001
aF-14.884
asg29
g2790
sg23
I55
sba(ipmx.atom
Atom
p3577
(dp3578
g34
(lp3579
sg36
I0
sg21
g3222
sS'm'
F0
sg37
S''
sg38
S' N3 '
p3580
sg40
S' '
sg41
S''
sg42
S''
sg43
I56
sg44
F0
sg45
I2
sg46
F1
sg47
F0
sg24
S'B'
sg48
(lp3581
sg50
(lp3582
sg52
F0
sg53
S''
sg54
F0
sg55
(lp3583
sg57
S'N'
sg58
g3225
sg26
S'A'
sg59
F0
sg60
(lp3584
sg62
I0
sg63
S''
sg9
S'N3'
p3585
sg64
F0
sS'f'
(lp3586
sg66
S''
sg67
I0
sS'q'
F0
sg68
S'ATOM  '
p3587
sg70
S' '
sg71
S''
sS'v'
(lp3588
I0
aI0
aI0
asg27
S'DG'
p3589
sS'x'
(lp3590
F2.992
aF-0.0070000000000000001
aF-14.914999999999999
asg29
g2790
sg23
I56
sba(ipmx.atom
Atom
p3591
(dp3592
g34
(lp3593
sg36
I0
sg21
g3222
sS'm'
F0
sg37
S''
sg38
S' C4 '
p3594
sg40
S' '
sg41
S''
sg42
S''
sg43
I57
sg44
F0
sg45
I2
sg46
F1
sg47
F0
sg24
S'B'
sg48
(lp3595
sg50
(lp3596
sg52
F0
sg53
S''
sg54
F0
sg55
(lp3597
sg57
S'C'
sg58
g3225
sg26
S'A'
sg59
F0
sg60
(lp3598
sg62
I0
sg63
S''
sg9
S'C4'
p3599
sg64
F0
sS'f'
(lp3600
sg66
S''
sg67
I0
sS'q'
F0
sg68
S'ATOM  '
p3601
sg70
S' '
sg71
S''
sS'v'
(lp3602
I0
aI0
aI0
asg27
S'DG'
p3603
sS'x'
(lp3604
F3.0129999999999999
aF-1.373
aF-15.015000000000001
asg29
g2790
sg23
I57
sba(ipmx.atom
Atom
p3605
(dp3606
g34
(lp3607
sg36
I0
sg21
g3222
sS'm'
F0
sg37
S''
sg38
S" C3'"
p3608
sg40
S' '
sg41
S''
sg42
S''
sg43
I58
sg44
F0
sg45
I2
sg46
F1
sg47
F0
sg24
S'B'
sg48
(lp3609
sg50
(lp3610
sg52
F0
sg53
S''
sg54
F0
sg55
(lp3611
sg57
S'C'
sg58
g3225
sg26
S'A'
sg59
F0
sg60
(lp3612
sg62
I0
sg63
S''
sg9
S"C3'"
p3613
sg64
F0
sS'f'
(lp3614
sg66
S''
sg67
I0
sS'q'
F0
sg68
S'ATOM  '
p3615
sg70
S' '
sg71
S''
sS'v'
(lp3616
I0
aI0
aI0
asg27
S'DG'
p3617
sS'x'
(lp3618
F7.8529999999999998
aF-2.5110000000000001
aF-14.853
asg29
g2790
sg23
I58
sba(ipmx.atom
Atom
p3619
(dp3620
g34
(lp3621
sg36
I0
sg21
g3222
sS'm'
F0
sg37
S''
sg38
S" H3'"
p3622
sg40
S' '
sg41
S''
sg42
S''
sg43
I59
sg44
F0
sg45
I2
sg46
F1
sg47
F0
sg24
S'B'
sg48
(lp3623
sg50
(lp3624
sg52
F0
sg53
S''
sg54
F0
sg55
(lp3625
sg57
S'H'
sg58
g3225
sg26
S'A'
sg59
F0
sg60
(lp3626
sg62
I0
sg63
S''
sg9
S"H3'"
p3627
sg64
F0
sS'f'
(lp3628
sg66
S''
sg67
I0
sS'q'
F0
sg68
S'ATOM  '
p3629
sg70
S' '
sg71
S''
sS'v'
(lp3630
I0
aI0
aI0
asg27
S'DG'
p3631
sS'x'
(lp3632
F8.3610000000000007
aF-3.46
aF-14.677
asg29
g2790
sg23
I59
sba(ipmx.atom
Atom
p3633
(dp3634
g34
(lp3635
sg36
I0
sg21
g3222
sS'm'
F0
sg37
S''
sg38
S" C2'"
p3636
sg40
S' '
sg41
S''
sg42
S''
sg43
I60
sg44
F0
sg45
I2
sg46
F1
sg47
F0
sg24
S'B'
sg48
(lp3637
sg50
(lp3638
sg52
F0
sg53
S''
sg54
F0
sg55
(lp3639
sg57
S'C'
sg58
g3225
sg26
S'A'
sg59
F0
sg60
(lp3640
sg62
I0
sg63
S''
sg9
S"C2'"
p3641
sg64
F0
sS'f'
(lp3642
sg66
S''
sg67
I0
sS'q'
F0
sg68
S'ATOM  '
p3643
sg70
S' '
sg71
S''
sS'v'
(lp3644
I0
aI0
aI0
asg27
S'DG'
p3645
sS'x'
(lp3646
F6.4969999999999999
aF-2.544
aF-14.206
asg29
g2790
sg23
I60
sba(ipmx.atom
Atom
p3647
(dp3648
g34
(lp3649
sg36
I0
sg21
g3222
sS'm'
F0
sg37
S''
sg38
S"1H2'"
p3650
sg40
S' '
sg41
S''
sg42
S''
sg43
I61
sg44
F0
sg45
I2
sg46
F1
sg47
F0
sg24
S'B'
sg48
(lp3651
sg50
(lp3652
sg52
F0
sg53
S''
sg54
F0
sg55
(lp3653
sg57
S'H'
sg58
g3225
sg26
S'A'
sg59
F0
sg60
(lp3654
sg62
I0
sg63
S''
sg9
S"H2'1"
p3655
sg64
F0
sS'f'
(lp3656
sg66
S''
sg67
I0
sS'q'
F0
sg68
S'ATOM  '
p3657
sg70
S' '
sg71
S''
sS'v'
(lp3658
I0
aI0
aI0
asg27
S'DG'
p3659
sS'x'
(lp3660
F6.1420000000000003
aF-3.5760000000000001
aF-14.138999999999999
asg29
g2790
sg23
I61
sba(ipmx.atom
Atom
p3661
(dp3662
g34
(lp3663
sg36
I0
sg21
g3222
sS'm'
F0
sg37
S''
sg38
S"2H2'"
p3664
sg40
S' '
sg41
S''
sg42
S''
sg43
I62
sg44
F0
sg45
I2
sg46
F1
sg47
F0
sg24
S'B'
sg48
(lp3665
sg50
(lp3666
sg52
F0
sg53
S''
sg54
F0
sg55
(lp3667
sg57
S'H'
sg58
g3225
sg26
S'A'
sg59
F0
sg60
(lp3668
sg62
I0
sg63
S''
sg9
S"H2'2"
p3669
sg64
F0
sS'f'
(lp3670
sg66
S''
sg67
I0
sS'q'
F0
sg68
S'ATOM  '
p3671
sg70
S' '
sg71
S''
sS'v'
(lp3672
I0
aI0
aI0
asg27
S'DG'
p3673
sS'x'
(lp3674
F6.6200000000000001
aF-2.0830000000000002
aF-13.255000000000001
asg29
g2790
sg23
I62
sba(ipmx.atom
Atom
p3675
(dp3676
g34
(lp3677
sg36
I0
sg21
g3222
sS'm'
F0
sg37
S''
sg38
S" O3'"
p3678
sg40
S' '
sg41
S''
sg42
S''
sg43
I63
sg44
F0
sg45
I2
sg46
F1
sg47
F0
sg24
S'B'
sg48
(lp3679
sg50
(lp3680
sg52
F0
sg53
S''
sg54
F0
sg55
(lp3681
sg57
S'O'
sg58
g3225
sg26
S'A'
sg59
F0
sg60
(lp3682
sg62
I0
sg63
S''
sg9
S"O3'"
p3683
sg64
F0
sS'f'
(lp3684
sg66
S''
sg67
I0
sS'q'
F0
sg68
S'ATOM  '
p3685
sg70
S' '
sg71
S''
sS'v'
(lp3686
I0
aI0
aI0
asg27
S'DG'
p3687
sS'x'
(lp3688
F8.7140000000000004
aF-1.421
aF-14.452999999999999
asg29
g2790
sg23
I63
sbasg43
I2
sg507
Nsbasg30
(lp3689
g3229
ag3241
ag3255
ag3269
ag3283
ag3297
ag3311
ag3325
ag3339
ag3353
ag3367
ag3381
ag3395
ag3409
ag3423
ag3437
ag3451
ag3465
ag3479
ag3493
ag3507
ag3521
ag3535
ag3549
ag3563
ag3577
ag3591
ag3605
ag3619
ag3633
ag3647
ag3661
ag3675
asg509
I0
sg26
S'A'
sg29
g2790
sg510
I00
sg43
S'B'
sbssg16
(lp3690
g2800
ag3225
asg30
(lp3691
g2804
ag2816
ag2830
ag2844
ag2858
ag2872
ag2886
ag2900
ag2914
ag2928
ag2942
ag2956
ag2970
ag2984
ag2998
ag3012
ag3026
ag3040
ag3054
ag3068
ag3082
ag3096
ag3110
ag3124
ag3137
ag3151
ag3165
ag3179
ag3193
ag3207
ag3229
ag3241
ag3255
ag3269
ag3283
ag3297
ag3311
ag3325
ag3339
ag3353
ag3367
ag3381
ag3395
ag3409
ag3423
ag3437
ag3451
ag3465
ag3479
ag3493
ag3507
ag3521
ag3535
ag3549
ag3563
ag3577
ag3591
ag3605
ag3619
ag3633
ag3647
ag3661
ag3675
asg26
S'A'
sg967
(lp3692
g2797
ag3222
asg43
I0
sg969
I0
sbs.