(dp0
S'a'
p1
(ipmx.model
Model
p2
(dp3
S'box'
p4
(lp5
(lp6
I0
aI0
aI0
aa(lp7
I0
aI0
aI0
aa(lp8
I0
aI0
aI0
aasS'name'
p9
NsS'title'
p10
S'PMX MODEL'
p11
sS'chdic'
p12
(dp13
S'A'
p14
(ipmx.chain
Chain
p15
(dp16
S'residues'
p17
(lp18
(ipmx.molecule
Molecule
p19
(dp20
S'natoms'
p21
I0
sS'chain'
p22
g15
sS'real_resname'
p23
S''
p24
sS'orig_id'
p25
I1
sS'chain_id'
p26
S'A'
p27
sS'next'
p28
NsS'unity'
p29
S'A'
p30
sS'resname'
p31
S'DT'
p32
sS'model'
p33
g2
sS'atoms'
p34
(lp35
(ipmx.atom
Atom
p36
(dp37
S'neighbors'
p38
(lp39
sS'code'
p40
I0
sg22
g15
sS'm'
p41
F0.0
sS'ptype'
p42
g24
sS'long_name'
p43
S' P  '
p44
sS'altloc'
p45
S' '
p46
sS'atomtypeB'
p47
g24
sS'id'
p48
I1
sS'resnr'
p49
I1
sg25
I1
sS'vdw14'
p50
F0.0
sg26
S'A'
p51
sS'b14'
p52
(lp53
sS'b13'
p54
(lp55
sS'bonds'
p56
(lp57
sS'order'
p58
I0
sS'type'
p59
g24
sS'bfac'
p60
F0.0
sS'mB'
p61
F0.0
sS'symbol'
p62
S'P'
p63
sS'molecule'
p64
g19
sg29
S'A'
p65
sS'qB'
p66
F0.0
sS'connected'
p67
(lp68
sS'cgnr'
p69
F0.0
sS'boxid'
p70
I0
sS'hyb'
p71
g24
sg9
S'P'
p72
sS'vdw'
p73
F0.0
sS'f'
p74
(lp75
sS'atype'
p76
g24
sS'typeB'
p77
g24
sS'q'
p78
F0.0
sS'race'
p79
S'ATOM  '
p80
sS'grpnr'
p81
S' '
p82
sS'atomtype'
p83
g24
sS'v'
p84
(lp85
I0
aI0
aI0
asg31
g32
sS'x'
p86
(lp87
F-8.181
aF3.77
aF-13.834
asg33
g2
sS'occ'
p88
F1.0
sba(ipmx.atom
Atom
p89
(dp90
g38
(lp91
sg40
I0
sg22
g15
sg41
F0.0
sg42
g24
sg43
S' O1P'
p92
sg45
S' '
p93
sg47
g24
sg48
I2
sg49
I1
sg25
I2
sg50
F0.0
sg26
S'A'
p94
sg52
(lp95
sg54
(lp96
sg56
(lp97
sg58
I0
sg59
g24
sg60
F0.0
sg61
F0.0
sg62
S'O'
p98
sg64
g19
sg29
S'A'
p99
sg66
F0.0
sg67
(lp100
sg69
F0.0
sg70
I0
sg71
g24
sg9
S'O1P'
p101
sg73
F0.0
sg74
(lp102
sg76
g24
sg77
g24
sg78
F0.0
sg79
S'ATOM  '
p103
sg81
S' '
p104
sg83
g24
sg84
(lp105
I0
aI0
aI0
asg31
S'DT'
p106
sg86
(lp107
F-8.886
aF5.063
aF-14.001
asg33
g2
sg88
F1.0
sba(ipmx.atom
Atom
p108
(dp109
g38
(lp110
sg40
I0
sg22
g15
sg41
F0.0
sg42
g24
sg43
S' O2P'
p111
sg45
S' '
p112
sg47
g24
sg48
I3
sg49
I1
sg25
I3
sg50
F0.0
sg26
S'A'
p113
sg52
(lp114
sg54
(lp115
sg56
(lp116
sg58
I0
sg59
g24
sg60
F0.0
sg61
F0.0
sg62
S'O'
p117
sg64
g19
sg29
S'A'
p118
sg66
F0.0
sg67
(lp119
sg69
F0.0
sg70
I0
sg71
g24
sg9
S'O2P'
p120
sg73
F0.0
sg74
(lp121
sg76
g24
sg77
g24
sg78
F0.0
sg79
S'ATOM  '
p122
sg81
S' '
p123
sg83
g24
sg84
(lp124
I0
aI0
aI0
asg31
S'DT'
p125
sg86
(lp126
F-8.536
aF2.608
aF-14.668
asg33
g2
sg88
F1.0
sba(ipmx.atom
Atom
p127
(dp128
g38
(lp129
sg40
I0
sg22
g15
sg41
F0.0
sg42
g24
sg43
S" O5'"
p130
sg45
S' '
p131
sg47
g24
sg48
I4
sg49
I1
sg25
I4
sg50
F0.0
sg26
S'A'
p132
sg52
(lp133
sg54
(lp134
sg56
(lp135
sg58
I0
sg59
g24
sg60
F0.0
sg61
F0.0
sg62
S'O'
p136
sg64
g19
sg29
S'A'
p137
sg66
F0.0
sg67
(lp138
sg69
F0.0
sg70
I0
sg71
g24
sg9
S"O5'"
p139
sg73
F0.0
sg74
(lp140
sg76
g24
sg77
g24
sg78
F0.0
sg79
S'ATOM  '
p141
sg81
S' '
p142
sg83
g24
sg84
(lp143
I0
aI0
aI0
asg31
S'DT'
p144
sg86
(lp145
F-6.641
aF4.095
aF-14.022
asg33
g2
sg88
F1.0
sba(ipmx.atom
Atom
p146
(dp147
g38
(lp148
sg40
I0
sg22
g15
sg41
F0.0
sg42
g24
sg43
S" C5'"
p149
sg45
S' '
p150
sg47
g24
sg48
I5
sg49
I1
sg25
I5
sg50
F0.0
sg26
S'A'
p151
sg52
(lp152
sg54
(lp153
sg56
(lp154
sg58
I0
sg59
g24
sg60
F0.0
sg61
F0.0
sg62
S'C'
p155
sg64
g19
sg29
S'A'
p156
sg66
F0.0
sg67
(lp157
sg69
F0.0
sg70
I0
sg71
g24
sg9
S"C5'"
p158
sg73
F0.0
sg74
(lp159
sg76
g24
sg77
g24
sg78
F0.0
sg79
S'ATOM  '
p160
sg81
S' '
p161
sg83
g24
sg84
(lp162
I0
aI0
aI0
asg31
S'DT'
p163
sg86
(lp164
F-5.962
aF4.931
aF-13.101
asg33
g2
sg88
F1.0
sba(ipmx.atom
Atom
p165
(dp166
g38
(lp167
sg40
I0
sg22
g15
sg41
F0.0
sg42
g24
sg43
S"1H5'"
p168
sg45
S' '
p169
sg47
g24
sg48
I6
sg49
I1
sg25
I6
sg50
F0.0
sg26
S'A'
p170
sg52
(lp171
sg54
(lp172
sg56
(lp173
sg58
I0
sg59
g24
sg60
F0.0
sg61
F0.0
sg62
S'H'
p174
sg64
g19
sg29
S'A'
p175
sg66
F0.0
sg67
(lp176
sg69
F0.0
sg70
I0
sg71
g24
sg9
S"H5'1"
p177
sg73
F0.0
sg74
(lp178
sg76
g24
sg77
g24
sg78
F0.0
sg79
S'ATOM  '
p179
sg81
S' '
p180
sg83
g24
sg84
(lp181
I0
aI0
aI0
asg31
S'DT'
p182
sg86
(lp183
F-6.68
aF5.639
aF-12.687
asg33
g2
sg88
F1.0
sba(ipmx.atom
Atom
p184
(dp185
g38
(lp186
sg40
I0
sg22
g15
sg41
F0.0
sg42
g24
sg43
S"2H5'"
p187
sg45
S' '
p188
sg47
g24
sg48
I7
sg49
I1
sg25
I7
sg50
F0.0
sg26
S'A'
p189
sg52
(lp190
sg54
(lp191
sg56
(lp192
sg58
I0
sg59
g24
sg60
F0.0
sg61
F0.0
sg62
S'H'
p193
sg64
g19
sg29
S'A'
p194
sg66
F0.0
sg67
(lp195
sg69
F0.0
sg70
I0
sg71
g24
sg9
S"H5'2"
p196
sg73
F0.0
sg74
(lp197
sg76
g24
sg77
g24
sg78
F0.0
sg79
S'ATOM  '
p198
sg81
S' '
p199
sg83
g24
sg84
(lp200
I0
aI0
aI0
asg31
S'DT'
p201
sg86
(lp202
F-5.603
aF4.323
aF-12.268
asg33
g2
sg88
F1.0
sba(ipmx.atom
Atom
p203
(dp204
g38
(lp205
sg40
I0
sg22
g15
sg41
F0.0
sg42
g24
sg43
S" C4'"
p206
sg45
S' '
p207
sg47
g24
sg48
I8
sg49
I1
sg25
I8
sg50
F0.0
sg26
S'A'
p208
sg52
(lp209
sg54
(lp210
sg56
(lp211
sg58
I0
sg59
g24
sg60
F0.0
sg61
F0.0
sg62
S'C'
p212
sg64
g19
sg29
S'A'
p213
sg66
F0.0
sg67
(lp214
sg69
F0.0
sg70
I0
sg71
g24
sg9
S"C4'"
p215
sg73
F0.0
sg74
(lp216
sg76
g24
sg77
g24
sg78
F0.0
sg79
S'ATOM  '
p217
sg81
S' '
p218
sg83
g24
sg84
(lp219
I0
aI0
aI0
asg31
S'DT'
p220
sg86
(lp221
F-4.793
aF5.702
aF-13.739
asg33
g2
sg88
F1.0
sba(ipmx.atom
Atom
p222
(dp223
g38
(lp224
sg40
I0
sg22
g15
sg41
F0.0
sg42
g24
sg43
S" H4'"
p225
sg45
S' '
p226
sg47
g24
sg48
I9
sg49
I1
sg25
I9
sg50
F0.0
sg26
S'A'
p227
sg52
(lp228
sg54
(lp229
sg56
(lp230
sg58
I0
sg59
g24
sg60
F0.0
sg61
F0.0
sg62
S'H'
p231
sg64
g19
sg29
S'A'
p232
sg66
F0.0
sg67
(lp233
sg69
F0.0
sg70
I0
sg71
g24
sg9
S"H4'"
p234
sg73
F0.0
sg74
(lp235
sg76
g24
sg77
g24
sg78
F0.0
sg79
S'ATOM  '
p236
sg81
S' '
p237
sg83
g24
sg84
(lp238
I0
aI0
aI0
asg31
S'DT'
p239
sg86
(lp240
F-4.59
aF6.548
aF-13.089
asg33
g2
sg88
F1.0
sba(ipmx.atom
Atom
p241
(dp242
g38
(lp243
sg40
I0
sg22
g15
sg41
F0.0
sg42
g24
sg43
S" O4'"
p244
sg45
S' '
p245
sg47
g24
sg48
I10
sg49
I1
sg25
I10
sg50
F0.0
sg26
S'A'
p246
sg52
(lp247
sg54
(lp248
sg56
(lp249
sg58
I0
sg59
g24
sg60
F0.0
sg61
F0.0
sg62
S'O'
p250
sg64
g19
sg29
S'A'
p251
sg66
F0.0
sg67
(lp252
sg69
F0.0
sg70
I0
sg71
g24
sg9
S"O4'"
p253
sg73
F0.0
sg74
(lp254
sg76
g24
sg77
g24
sg78
F0.0
sg79
S'ATOM  '
p255
sg81
S' '
p256
sg83
g24
sg84
(lp257
I0
aI0
aI0
asg31
S'DT'
p258
sg86
(lp259
F-3.664
aF4.832
aF-13.748
asg33
g2
sg88
F1.0
sba(ipmx.atom
Atom
p260
(dp261
g38
(lp262
sg40
I0
sg22
g15
sg41
F0.0
sg42
g24
sg43
S" C1'"
p263
sg45
S' '
p264
sg47
g24
sg48
I11
sg49
I1
sg25
I11
sg50
F0.0
sg26
S'A'
p265
sg52
(lp266
sg54
(lp267
sg56
(lp268
sg58
I0
sg59
g24
sg60
F0.0
sg61
F0.0
sg62
S'C'
p269
sg64
g19
sg29
S'A'
p270
sg66
F0.0
sg67
(lp271
sg69
F0.0
sg70
I0
sg71
g24
sg9
S"C1'"
p272
sg73
F0.0
sg74
(lp273
sg76
g24
sg77
g24
sg78
F0.0
sg79
S'ATOM  '
p274
sg81
S' '
p275
sg83
g24
sg84
(lp276
I0
aI0
aI0
asg31
S'DT'
p277
sg86
(lp278
F-3.472
aF4.351
aF-15.067
asg33
g2
sg88
F1.0
sba(ipmx.atom
Atom
p279
(dp280
g38
(lp281
sg40
I0
sg22
g15
sg41
F0.0
sg42
g24
sg43
S" H1'"
p282
sg45
S' '
p283
sg47
g24
sg48
I12
sg49
I1
sg25
I12
sg50
F0.0
sg26
S'A'
p284
sg52
(lp285
sg54
(lp286
sg56
(lp287
sg58
I0
sg59
g24
sg60
F0.0
sg61
F0.0
sg62
S'H'
p288
sg64
g19
sg29
S'A'
p289
sg66
F0.0
sg67
(lp290
sg69
F0.0
sg70
I0
sg71
g24
sg9
S"H1'"
p291
sg73
F0.0
sg74
(lp292
sg76
g24
sg77
g24
sg78
F0.0
sg79
S'ATOM  '
p293
sg81
S' '
p294
sg83
g24
sg84
(lp295
I0
aI0
aI0
asg31
S'DT'
p296
sg86
(lp297
F-2.531
aF4.763
aF-15.444
asg33
g2
sg88
F1.0
sba(ipmx.atom
Atom
p298
(dp299
g38
(lp300
sg40
I0
sg22
g15
sg41
F0.0
sg42
g24
sg43
S' N1 '
p301
sg45
S' '
p302
sg47
g24
sg48
I13
sg49
I1
sg25
I13
sg50
F0.0
sg26
S'A'
p303
sg52
(lp304
sg54
(lp305
sg56
(lp306
sg58
I0
sg59
g24
sg60
F0.0
sg61
F0.0
sg62
S'N'
p307
sg64
g19
sg29
S'A'
p308
sg66
F0.0
sg67
(lp309
sg69
F0.0
sg70
I0
sg71
g24
sg9
S'N1'
p310
sg73
F0.0
sg74
(lp311
sg76
g24
sg77
g24
sg78
F0.0
sg79
S'ATOM  '
p312
sg81
S' '
p313
sg83
g24
sg84
(lp314
I0
aI0
aI0
asg31
S'DT'
p315
sg86
(lp316
F-3.385
aF2.863
aF-15.071
asg33
g2
sg88
F1.0
sba(ipmx.atom
Atom
p317
(dp318
g38
(lp319
sg40
I0
sg22
g15
sg41
F0.0
sg42
g24
sg43
S' C6 '
p320
sg45
S' '
p321
sg47
g24
sg48
I14
sg49
I1
sg25
I14
sg50
F0.0
sg26
S'A'
p322
sg52
(lp323
sg54
(lp324
sg56
(lp325
sg58
I0
sg59
g24
sg60
F0.0
sg61
F0.0
sg62
S'C'
p326
sg64
g19
sg29
S'A'
p327
sg66
F0.0
sg67
(lp328
sg69
F0.0
sg70
I0
sg71
g24
sg9
S'C6'
p329
sg73
F0.0
sg74
(lp330
sg76
g24
sg77
g24
sg78
F0.0
sg79
S'ATOM  '
p331
sg81
S' '
p332
sg83
g24
sg84
(lp333
I0
aI0
aI0
asg31
S'DT'
p334
sg86
(lp335
F-4.508
aF2.054
aF-15.103
asg33
g2
sg88
F1.0
sba(ipmx.atom
Atom
p336
(dp337
g38
(lp338
sg40
I0
sg22
g15
sg41
F0.0
sg42
g24
sg43
S' H6 '
p339
sg45
S' '
p340
sg47
g24
sg48
I15
sg49
I1
sg25
I15
sg50
F0.0
sg26
S'A'
p341
sg52
(lp342
sg54
(lp343
sg56
(lp344
sg58
I0
sg59
g24
sg60
F0.0
sg61
F0.0
sg62
S'H'
p345
sg64
g19
sg29
S'A'
p346
sg66
F0.0
sg67
(lp347
sg69
F0.0
sg70
I0
sg71
g24
sg9
S'H6'
p348
sg73
F0.0
sg74
(lp349
sg76
g24
sg77
g24
sg78
F0.0
sg79
S'ATOM  '
p350
sg81
S' '
p351
sg83
g24
sg84
(lp352
I0
aI0
aI0
asg31
S'DT'
p353
sg86
(lp354
F-5.49
aF2.493
aF-15.111
asg33
g2
sg88
F1.0
sba(ipmx.atom
Atom
p355
(dp356
g38
(lp357
sg40
I0
sg22
g15
sg41
F0.0
sg42
g24
sg43
S' C5 '
p358
sg45
S' '
p359
sg47
g24
sg48
I16
sg49
I1
sg25
I16
sg50
F0.0
sg26
S'A'
p360
sg52
(lp361
sg54
(lp362
sg56
(lp363
sg58
I0
sg59
g24
sg60
F0.0
sg61
F0.0
sg62
S'C'
p364
sg64
g19
sg29
S'A'
p365
sg66
F0.0
sg67
(lp366
sg69
F0.0
sg70
I0
sg71
g24
sg9
S'C5'
p367
sg73
F0.0
sg74
(lp368
sg76
g24
sg77
g24
sg78
F0.0
sg79
S'ATOM  '
p369
sg81
S' '
p370
sg83
g24
sg84
(lp371
I0
aI0
aI0
asg31
S'DT'
p372
sg86
(lp373
F-4.405
aF0.701
aF-15.134
asg33
g2
sg88
F1.0
sba(ipmx.atom
Atom
p374
(dp375
g38
(lp376
sg40
I0
sg22
g15
sg41
F0.0
sg42
g24
sg43
S' C7 '
p377
sg45
S' '
p378
sg47
g24
sg48
I17
sg49
I1
sg25
I17
sg50
F0.0
sg26
S'A'
p379
sg52
(lp380
sg54
(lp381
sg56
(lp382
sg58
I0
sg59
g24
sg60
F0.0
sg61
F0.0
sg62
S'C'
p383
sg64
g19
sg29
S'A'
p384
sg66
F0.0
sg67
(lp385
sg69
F0.0
sg70
I0
sg71
g24
sg9
S'C7'
p386
sg73
F0.0
sg74
(lp387
sg76
g24
sg77
g24
sg78
F0.0
sg79
S'ATOM  '
p388
sg81
S' '
p389
sg83
g24
sg84
(lp390
I0
aI0
aI0
asg31
S'DT'
p391
sg86
(lp392
F-5.631
aF-0.199
aF-15.195
asg33
g2
sg88
F1.0
sba(ipmx.atom
Atom
p393
(dp394
g38
(lp395
sg40
I0
sg22
g15
sg41
F0.0
sg42
g24
sg43
S' H71'
p396
sg45
S' '
p397
sg47
g24
sg48
I18
sg49
I1
sg25
I18
sg50
F0.0
sg26
S'A'
p398
sg52
(lp399
sg54
(lp400
sg56
(lp401
sg58
I0
sg59
g24
sg60
F0.0
sg61
F0.0
sg62
S'H'
p402
sg64
g19
sg29
S'A'
p403
sg66
F0.0
sg67
(lp404
sg69
F0.0
sg70
I0
sg71
g24
sg9
S'H71'
p405
sg73
F0.0
sg74
(lp406
sg76
g24
sg77
g24
sg78
F0.0
sg79
S'ATOM  '
p407
sg81
S' '
p408
sg83
g24
sg84
(lp409
I0
aI0
aI0
asg31
S'DT'
p410
sg86
(lp411
F-6.007
aF-0.251
aF-16.208
asg33
g2
sg88
F1.0
sba(ipmx.atom
Atom
p412
(dp413
g38
(lp414
sg40
I0
sg22
g15
sg41
F0.0
sg42
g24
sg43
S' H72'
p415
sg45
S' '
p416
sg47
g24
sg48
I19
sg49
I1
sg25
I19
sg50
F0.0
sg26
S'A'
p417
sg52
(lp418
sg54
(lp419
sg56
(lp420
sg58
I0
sg59
g24
sg60
F0.0
sg61
F0.0
sg62
S'H'
p421
sg64
g19
sg29
S'A'
p422
sg66
F0.0
sg67
(lp423
sg69
F0.0
sg70
I0
sg71
g24
sg9
S'H72'
p424
sg73
F0.0
sg74
(lp425
sg76
g24
sg77
g24
sg78
F0.0
sg79
S'ATOM  '
p426
sg81
S' '
p427
sg83
g24
sg84
(lp428
I0
aI0
aI0
asg31
S'DT'
p429
sg86
(lp430
F-6.464
aF0.147
aF-14.626
asg33
g2
sg88
F1.0
sba(ipmx.atom
Atom
p431
(dp432
g38
(lp433
sg40
I0
sg22
g15
sg41
F0.0
sg42
g24
sg43
S' H73'
p434
sg45
S' '
p435
sg47
g24
sg48
I20
sg49
I1
sg25
I20
sg50
F0.0
sg26
S'A'
p436
sg52
(lp437
sg54
(lp438
sg56
(lp439
sg58
I0
sg59
g24
sg60
F0.0
sg61
F0.0
sg62
S'H'
p440
sg64
g19
sg29
S'A'
p441
sg66
F0.0
sg67
(lp442
sg69
F0.0
sg70
I0
sg71
g24
sg9
S'H73'
p443
sg73
F0.0
sg74
(lp444
sg76
g24
sg77
g24
sg78
F0.0
sg79
S'ATOM  '
p445
sg81
S' '
p446
sg83
g24
sg84
(lp447
I0
aI0
aI0
asg31
S'DT'
p448
sg86
(lp449
F-5.378
aF-1.182
aF-14.796
asg33
g2
sg88
F1.0
sba(ipmx.atom
Atom
p450
(dp451
g38
(lp452
sg40
I0
sg22
g15
sg41
F0.0
sg42
g24
sg43
S' C4 '
p453
sg45
S' '
p454
sg47
g24
sg48
I21
sg49
I1
sg25
I21
sg50
F0.0
sg26
S'A'
p455
sg52
(lp456
sg54
(lp457
sg56
(lp458
sg58
I0
sg59
g24
sg60
F0.0
sg61
F0.0
sg62
S'C'
p459
sg64
g19
sg29
S'A'
p460
sg66
F0.0
sg67
(lp461
sg69
F0.0
sg70
I0
sg71
g24
sg9
S'C4'
p462
sg73
F0.0
sg74
(lp463
sg76
g24
sg77
g24
sg78
F0.0
sg79
S'ATOM  '
p464
sg81
S' '
p465
sg83
g24
sg84
(lp466
I0
aI0
aI0
asg31
S'DT'
p467
sg86
(lp468
F-3.103
aF0.073
aF-15.111
asg33
g2
sg88
F1.0
sba(ipmx.atom
Atom
p469
(dp470
g38
(lp471
sg40
I0
sg22
g15
sg41
F0.0
sg42
g24
sg43
S' O4 '
p472
sg45
S' '
p473
sg47
g24
sg48
I22
sg49
I1
sg25
I22
sg50
F0.0
sg26
S'A'
p474
sg52
(lp475
sg54
(lp476
sg56
(lp477
sg58
I0
sg59
g24
sg60
F0.0
sg61
F0.0
sg62
S'O'
p478
sg64
g19
sg29
S'A'
p479
sg66
F0.0
sg67
(lp480
sg69
F0.0
sg70
I0
sg71
g24
sg9
S'O4'
p481
sg73
F0.0
sg74
(lp482
sg76
g24
sg77
g24
sg78
F0.0
sg79
S'ATOM  '
p483
sg81
S' '
p484
sg83
g24
sg84
(lp485
I0
aI0
aI0
asg31
S'DT'
p486
sg86
(lp487
F-2.909
aF-1.134
aF-15.112
asg33
g2
sg88
F1.0
sba(ipmx.atom
Atom
p488
(dp489
g38
(lp490
sg40
I0
sg22
g15
sg41
F0.0
sg42
g24
sg43
S' N3 '
p491
sg45
S' '
p492
sg47
g24
sg48
I23
sg49
I1
sg25
I23
sg50
F0.0
sg26
S'A'
p493
sg52
(lp494
sg54
(lp495
sg56
(lp496
sg58
I0
sg59
g24
sg60
F0.0
sg61
F0.0
sg62
S'N'
p497
sg64
g19
sg29
S'A'
p498
sg66
F0.0
sg67
(lp499
sg69
F0.0
sg70
I0
sg71
g24
sg9
S'N3'
p500
sg73
F0.0
sg74
(lp501
sg76
g24
sg77
g24
sg78
F0.0
sg79
S'ATOM  '
p502
sg81
S' '
p503
sg83
g24
sg84
(lp504
I0
aI0
aI0
asg31
S'DT'
p505
sg86
(lp506
F-2.033
aF0.926
aF-15.096
asg33
g2
sg88
F1.0
sba(ipmx.atom
Atom
p507
(dp508
g38
(lp509
sg40
I0
sg22
g15
sg41
F0.0
sg42
g24
sg43
S' H3 '
p510
sg45
S' '
p511
sg47
g24
sg48
I24
sg49
I1
sg25
I24
sg50
F0.0
sg26
S'A'
p512
sg52
(lp513
sg54
(lp514
sg56
(lp515
sg58
I0
sg59
g24
sg60
F0.0
sg61
F0.0
sg62
S'H'
p516
sg64
g19
sg29
S'A'
p517
sg66
F0.0
sg67
(lp518
sg69
F0.0
sg70
I0
sg71
g24
sg9
S'H3'
p519
sg73
F0.0
sg74
(lp520
sg76
g24
sg77
g24
sg78
F0.0
sg79
S'ATOM  '
p521
sg81
S' '
p522
sg83
g24
sg84
(lp523
I0
aI0
aI0
asg31
S'DT'
p524
sg86
(lp525
F-1.112
aF0.52
aF-15.094
asg33
g2
sg88
F1.0
sba(ipmx.atom
Atom
p526
(dp527
g38
(lp528
sg40
I0
sg22
g15
sg41
F0.0
sg42
g24
sg43
S' C2 '
p529
sg45
S' '
p530
sg47
g24
sg48
I25
sg49
I1
sg25
I25
sg50
F0.0
sg26
S'A'
p531
sg52
(lp532
sg54
(lp533
sg56
(lp534
sg58
I0
sg59
g24
sg60
F0.0
sg61
F0.0
sg62
S'C'
p535
sg64
g19
sg29
S'A'
p536
sg66
F0.0
sg67
(lp537
sg69
F0.0
sg70
I0
sg71
g24
sg9
S'C2'
p538
sg73
F0.0
sg74
(lp539
sg76
g24
sg77
g24
sg78
F0.0
sg79
S'ATOM  '
p540
sg81
S' '
p541
sg83
g24
sg84
(lp542
I0
aI0
aI0
asg31
S'DT'
p543
sg86
(lp544
F-2.105
aF2.297
aF-15.08
asg33
g2
sg88
F1.0
sba(ipmx.atom
Atom
p545
(dp546
g38
(lp547
sg40
I0
sg22
g15
sg41
F0.0
sg42
g24
sg43
S' O  '
p548
sg45
S' '
p549
sg47
g24
sg48
I26
sg49
I1
sg25
I26
sg50
F0.0
sg26
S'A'
p550
sg52
(lp551
sg54
(lp552
sg56
(lp553
sg58
I0
sg59
g24
sg60
F0.0
sg61
F0.0
sg62
S'O'
p554
sg64
g19
sg29
S'A'
p555
sg66
F0.0
sg67
(lp556
sg69
F0.0
sg70
I0
sg71
g24
sg9
S'O2'
p557
sg73
F0.0
sg74
(lp558
sg76
g24
sg77
g24
sg78
F0.0
sg79
S'ATOM  '
p559
sg81
S' '
p560
sg83
g24
sg84
(lp561
I0
aI0
aI0
asg31
S'DT'
p562
sg86
(lp563
F-1.063
aF2.944
aF-15.101
asg33
g2
sg88
F1.0
sba(ipmx.atom
Atom
p564
(dp565
g38
(lp566
sg40
I0
sg22
g15
sg41
F0.0
sg42
g24
sg43
S" C3'"
p567
sg45
S' '
p568
sg47
g24
sg48
I27
sg49
I1
sg25
I27
sg50
F0.0
sg26
S'A'
p569
sg52
(lp570
sg54
(lp571
sg56
(lp572
sg58
I0
sg59
g24
sg60
F0.0
sg61
F0.0
sg62
S'C'
p573
sg64
g19
sg29
S'A'
p574
sg66
F0.0
sg67
(lp575
sg69
F0.0
sg70
I0
sg71
g24
sg9
S"C3'"
p576
sg73
F0.0
sg74
(lp577
sg76
g24
sg77
g24
sg78
F0.0
sg79
S'ATOM  '
p578
sg81
S' '
p579
sg83
g24
sg84
(lp580
I0
aI0
aI0
asg31
S'DT'
p581
sg86
(lp582
F-5.078
aF6.175
aF-15.197
asg33
g2
sg88
F1.0
sba(ipmx.atom
Atom
p583
(dp584
g38
(lp585
sg40
I0
sg22
g15
sg41
F0.0
sg42
g24
sg43
S" H3'"
p586
sg45
S' '
p587
sg47
g24
sg48
I28
sg49
I1
sg25
I28
sg50
F0.0
sg26
S'A'
p588
sg52
(lp589
sg54
(lp590
sg56
(lp591
sg58
I0
sg59
g24
sg60
F0.0
sg61
F0.0
sg62
S'H'
p592
sg64
g19
sg29
S'A'
p593
sg66
F0.0
sg67
(lp594
sg69
F0.0
sg70
I0
sg71
g24
sg9
S"H3'"
p595
sg73
F0.0
sg74
(lp596
sg76
g24
sg77
g24
sg78
F0.0
sg79
S'ATOM  '
p597
sg81
S' '
p598
sg83
g24
sg84
(lp599
I0
aI0
aI0
asg31
S'DT'
p600
sg86
(lp601
F-6.148
aF6.307
aF-15.33
asg33
g2
sg88
F1.0
sba(ipmx.atom
Atom
p602
(dp603
g38
(lp604
sg40
I0
sg22
g15
sg41
F0.0
sg42
g24
sg43
S" C2'"
p605
sg45
S' '
p606
sg47
g24
sg48
I29
sg49
I1
sg25
I29
sg50
F0.0
sg26
S'A'
p607
sg52
(lp608
sg54
(lp609
sg56
(lp610
sg58
I0
sg59
g24
sg60
F0.0
sg61
F0.0
sg62
S'C'
p611
sg64
g19
sg29
S'A'
p612
sg66
F0.0
sg67
(lp613
sg69
F0.0
sg70
I0
sg71
g24
sg9
S"C2'"
p614
sg73
F0.0
sg74
(lp615
sg76
g24
sg77
g24
sg78
F0.0
sg79
S'ATOM  '
p616
sg81
S' '
p617
sg83
g24
sg84
(lp618
I0
aI0
aI0
asg31
S'DT'
p619
sg86
(lp620
F-4.597
aF4.927
aF-15.934
asg33
g2
sg88
F1.0
sba(ipmx.atom
Atom
p621
(dp622
g38
(lp623
sg40
I0
sg22
g15
sg41
F0.0
sg42
g24
sg43
S"1H2'"
p624
sg45
S' '
p625
sg47
g24
sg48
I30
sg49
I1
sg25
I30
sg50
F0.0
sg26
S'A'
p626
sg52
(lp627
sg54
(lp628
sg56
(lp629
sg58
I0
sg59
g24
sg60
F0.0
sg61
F0.0
sg62
S'H'
p630
sg64
g19
sg29
S'A'
p631
sg66
F0.0
sg67
(lp632
sg69
F0.0
sg70
I0
sg71
g24
sg9
S"H2'1"
p633
sg73
F0.0
sg74
(lp634
sg76
g24
sg77
g24
sg78
F0.0
sg79
S'ATOM  '
p635
sg81
S' '
p636
sg83
g24
sg84
(lp637
I0
aI0
aI0
asg31
S'DT'
p638
sg86
(lp639
F-5.431
aF4.251
aF-16.069
asg33
g2
sg88
F1.0
sba(ipmx.atom
Atom
p640
(dp641
g38
(lp642
sg40
I0
sg22
g15
sg41
F0.0
sg42
g24
sg43
S"2H2'"
p643
sg45
S' '
p644
sg47
g24
sg48
I31
sg49
I1
sg25
I31
sg50
F0.0
sg26
S'A'
p645
sg52
(lp646
sg54
(lp647
sg56
(lp648
sg58
I0
sg59
g24
sg60
F0.0
sg61
F0.0
sg62
S'H'
p649
sg64
g19
sg29
S'A'
p650
sg66
F0.0
sg67
(lp651
sg69
F0.0
sg70
I0
sg71
g24
sg9
S"H2'2"
p652
sg73
F0.0
sg74
(lp653
sg76
g24
sg77
g24
sg78
F0.0
sg79
S'ATOM  '
p654
sg81
S' '
p655
sg83
g24
sg84
(lp656
I0
aI0
aI0
asg31
S'DT'
p657
sg86
(lp658
F-4.241
aF5.144
aF-16.918
asg33
g2
sg88
F1.0
sba(ipmx.atom
Atom
p659
(dp660
g38
(lp661
sg40
I0
sg22
g15
sg41
F0.0
sg42
g24
sg43
S" O3'"
p662
sg45
S' '
p663
sg47
g24
sg48
I32
sg49
I1
sg25
I32
sg50
F0.0
sg26
S'A'
p664
sg52
(lp665
sg54
(lp666
sg56
(lp667
sg58
I0
sg59
g24
sg60
F0.0
sg61
F0.0
sg62
S'O'
p668
sg64
g19
sg29
S'A'
p669
sg66
F0.0
sg67
(lp670
sg69
F0.0
sg70
I0
sg71
g24
sg9
S"O3'"
p671
sg73
F0.0
sg74
(lp672
sg76
g24
sg77
g24
sg78
F0.0
sg79
S'ATOM  '
p673
sg81
S' '
p674
sg83
g24
sg84
(lp675
I0
aI0
aI0
asg31
S'DT'
p676
sg86
(lp677
F-4.467
aF7.4
aF-15.637
asg33
g2
sg88
F1.0
sbasg48
I1
sS'previous'
p678
Nsbasg34
(lp679
g36
ag89
ag108
ag127
ag146
ag165
ag184
ag203
ag222
ag241
ag260
ag279
ag298
ag317
ag336
ag355
ag374
ag393
ag412
ag431
ag450
ag469
ag488
ag507
ag526
ag545
ag564
ag583
ag602
ag621
ag640
ag659
asS'nres'
p680
I0
sg29
S'A'
p681
sg33
g2
sS'residue_tree_ok'
p682
I00
sg48
S'A'
p683
sbsS'B'
p684
(ipmx.chain
Chain
p685
(dp686
g17
(lp687
(ipmx.molecule
Molecule
p688
(dp689
g21
I0
sg22
g685
sg23
g24
sg25
I2
sg26
S'B'
p690
sg28
Nsg29
S'A'
p691
sg31
S'DA'
p692
sg33
g2
sg34
(lp693
(ipmx.atom
Atom
p694
(dp695
g38
(lp696
sg40
I0
sg22
g685
sg41
F0.0
sg42
g24
sg43
S' P  '
p697
sg45
S' '
p698
sg47
g24
sg48
I33
sg49
I2
sg25
I33
sg50
F0.0
sg26
S'B'
p699
sg52
(lp700
sg54
(lp701
sg56
(lp702
sg58
I0
sg59
g24
sg60
F0.0
sg61
F0.0
sg62
S'P'
p703
sg64
g688
sg29
S'A'
p704
sg66
F0.0
sg67
(lp705
sg69
F0.0
sg70
I0
sg71
g24
sg9
S'P'
p706
sg73
F0.0
sg74
(lp707
sg76
g24
sg77
g24
sg78
F0.0
sg79
S'ATOM  '
p708
sg81
S' '
p709
sg83
g24
sg84
(lp710
I0
aI0
aI0
asg31
g692
sg86
(lp711
F6.736
aF-6.269
aF-16.319
asg33
g2
sg88
F1.0
sba(ipmx.atom
Atom
p712
(dp713
g38
(lp714
sg40
I0
sg22
g685
sg41
F0.0
sg42
g24
sg43
S' O1P'
p715
sg45
S' '
p716
sg47
g24
sg48
I34
sg49
I2
sg25
I34
sg50
F0.0
sg26
S'B'
p717
sg52
(lp718
sg54
(lp719
sg56
(lp720
sg58
I0
sg59
g24
sg60
F0.0
sg61
F0.0
sg62
S'O'
p721
sg64
g688
sg29
S'A'
p722
sg66
F0.0
sg67
(lp723
sg69
F0.0
sg70
I0
sg71
g24
sg9
S'O1P'
p724
sg73
F0.0
sg74
(lp725
sg76
g24
sg77
g24
sg78
F0.0
sg79
S'ATOM  '
p726
sg81
S' '
p727
sg83
g24
sg84
(lp728
I0
aI0
aI0
asg31
S'DA'
p729
sg86
(lp730
F8.219
aF-6.444
aF-16.231
asg33
g2
sg88
F1.0
sba(ipmx.atom
Atom
p731
(dp732
g38
(lp733
sg40
I0
sg22
g685
sg41
F0.0
sg42
g24
sg43
S' O2P'
p734
sg45
S' '
p735
sg47
g24
sg48
I35
sg49
I2
sg25
I35
sg50
F0.0
sg26
S'B'
p736
sg52
(lp737
sg54
(lp738
sg56
(lp739
sg58
I0
sg59
g24
sg60
F0.0
sg61
F0.0
sg62
S'O'
p740
sg64
g688
sg29
S'A'
p741
sg66
F0.0
sg67
(lp742
sg69
F0.0
sg70
I0
sg71
g24
sg9
S'O2P'
p743
sg73
F0.0
sg74
(lp744
sg76
g24
sg77
g24
sg78
F0.0
sg79
S'ATOM  '
p745
sg81
S' '
p746
sg83
g24
sg84
(lp747
I0
aI0
aI0
asg31
S'DA'
p748
sg86
(lp749
F5.841
aF-7.064
aF-15.485
asg33
g2
sg88
F1.0
sba(ipmx.atom
Atom
p750
(dp751
g38
(lp752
sg40
I0
sg22
g685
sg41
F0.0
sg42
g24
sg43
S" O5'"
p753
sg45
S' '
p754
sg47
g24
sg48
I36
sg49
I2
sg25
I36
sg50
F0.0
sg26
S'B'
p755
sg52
(lp756
sg54
(lp757
sg56
(lp758
sg58
I0
sg59
g24
sg60
F0.0
sg61
F0.0
sg62
S'O'
p759
sg64
g688
sg29
S'A'
p760
sg66
F0.0
sg67
(lp761
sg69
F0.0
sg70
I0
sg71
g24
sg9
S"O5'"
p762
sg73
F0.0
sg74
(lp763
sg76
g24
sg77
g24
sg78
F0.0
sg79
S'ATOM  '
p764
sg81
S' '
p765
sg83
g24
sg84
(lp766
I0
aI0
aI0
asg31
S'DA'
p767
sg86
(lp768
F6.465
aF-4.711
aF-16.12
asg33
g2
sg88
F1.0
sba(ipmx.atom
Atom
p769
(dp770
g38
(lp771
sg40
I0
sg22
g685
sg41
F0.0
sg42
g24
sg43
S" C5'"
p772
sg45
S' '
p773
sg47
g24
sg48
I37
sg49
I2
sg25
I37
sg50
F0.0
sg26
S'B'
p774
sg52
(lp775
sg54
(lp776
sg56
(lp777
sg58
I0
sg59
g24
sg60
F0.0
sg61
F0.0
sg62
S'C'
p778
sg64
g688
sg29
S'A'
p779
sg66
F0.0
sg67
(lp780
sg69
F0.0
sg70
I0
sg71
g24
sg9
S"C5'"
p781
sg73
F0.0
sg74
(lp782
sg76
g24
sg77
g24
sg78
F0.0
sg79
S'ATOM  '
p783
sg81
S' '
p784
sg83
g24
sg84
(lp785
I0
aI0
aI0
asg31
S'DA'
p786
sg86
(lp787
F7.064
aF-3.739
aF-16.973
asg33
g2
sg88
F1.0
sba(ipmx.atom
Atom
p788
(dp789
g38
(lp790
sg40
I0
sg22
g685
sg41
F0.0
sg42
g24
sg43
S"1H5'"
p791
sg45
S' '
p792
sg47
g24
sg48
I38
sg49
I2
sg25
I38
sg50
F0.0
sg26
S'B'
p793
sg52
(lp794
sg54
(lp795
sg56
(lp796
sg58
I0
sg59
g24
sg60
F0.0
sg61
F0.0
sg62
S'H'
p797
sg64
g688
sg29
S'A'
p798
sg66
F0.0
sg67
(lp799
sg69
F0.0
sg70
I0
sg71
g24
sg9
S"H5'1"
p800
sg73
F0.0
sg74
(lp801
sg76
g24
sg77
g24
sg78
F0.0
sg79
S'ATOM  '
p802
sg81
S' '
p803
sg83
g24
sg84
(lp804
I0
aI0
aI0
asg31
S'DA'
p805
sg86
(lp806
F8.013
aF-4.116
aF-17.363
asg33
g2
sg88
F1.0
sba(ipmx.atom
Atom
p807
(dp808
g38
(lp809
sg40
I0
sg22
g685
sg41
F0.0
sg42
g24
sg43
S"2H5'"
p810
sg45
S' '
p811
sg47
g24
sg48
I39
sg49
I2
sg25
I39
sg50
F0.0
sg26
S'B'
p812
sg52
(lp813
sg54
(lp814
sg56
(lp815
sg58
I0
sg59
g24
sg60
F0.0
sg61
F0.0
sg62
S'H'
p816
sg64
g688
sg29
S'A'
p817
sg66
F0.0
sg67
(lp818
sg69
F0.0
sg70
I0
sg71
g24
sg9
S"H5'2"
p819
sg73
F0.0
sg74
(lp820
sg76
g24
sg77
g24
sg78
F0.0
sg79
S'ATOM  '
p821
sg81
S' '
p822
sg83
g24
sg84
(lp823
I0
aI0
aI0
asg31
S'DA'
p824
sg86
(lp825
F6.417
aF-3.572
aF-17.838
asg33
g2
sg88
F1.0
sba(ipmx.atom
Atom
p826
(dp827
g38
(lp828
sg40
I0
sg22
g685
sg41
F0.0
sg42
g24
sg43
S" C4'"
p829
sg45
S' '
p830
sg47
g24
sg48
I40
sg49
I2
sg25
I40
sg50
F0.0
sg26
S'B'
p831
sg52
(lp832
sg54
(lp833
sg56
(lp834
sg58
I0
sg59
g24
sg60
F0.0
sg61
F0.0
sg62
S'C'
p835
sg64
g688
sg29
S'A'
p836
sg66
F0.0
sg67
(lp837
sg69
F0.0
sg70
I0
sg71
g24
sg9
S"C4'"
p838
sg73
F0.0
sg74
(lp839
sg76
g24
sg77
g24
sg78
F0.0
sg79
S'ATOM  '
p840
sg81
S' '
p841
sg83
g24
sg84
(lp842
I0
aI0
aI0
asg31
S'DA'
p843
sg86
(lp844
F7.318
aF-2.397
aF-16.261
asg33
g2
sg88
F1.0
sba(ipmx.atom
Atom
p845
(dp846
g38
(lp847
sg40
I0
sg22
g685
sg41
F0.0
sg42
g24
sg43
S" H4'"
p848
sg45
S' '
p849
sg47
g24
sg48
I41
sg49
I2
sg25
I41
sg50
F0.0
sg26
S'B'
p850
sg52
(lp851
sg54
(lp852
sg56
(lp853
sg58
I0
sg59
g24
sg60
F0.0
sg61
F0.0
sg62
S'H'
p854
sg64
g688
sg29
S'A'
p855
sg66
F0.0
sg67
(lp856
sg69
F0.0
sg70
I0
sg71
g24
sg9
S"H4'"
p857
sg73
F0.0
sg74
(lp858
sg76
g24
sg77
g24
sg78
F0.0
sg79
S'ATOM  '
p859
sg81
S' '
p860
sg83
g24
sg84
(lp861
I0
aI0
aI0
asg31
S'DA'
p862
sg86
(lp863
F8.06
aF-1.849
aF-16.838
asg33
g2
sg88
F1.0
sba(ipmx.atom
Atom
p864
(dp865
g38
(lp866
sg40
I0
sg22
g685
sg41
F0.0
sg42
g24
sg43
S" O4'"
p867
sg45
S' '
p868
sg47
g24
sg48
I42
sg49
I2
sg25
I42
sg50
F0.0
sg26
S'B'
p869
sg52
(lp870
sg54
(lp871
sg56
(lp872
sg58
I0
sg59
g24
sg60
F0.0
sg61
F0.0
sg62
S'O'
p873
sg64
g688
sg29
S'A'
p874
sg66
F0.0
sg67
(lp875
sg69
F0.0
sg70
I0
sg71
g24
sg9
S"O4'"
p876
sg73
F0.0
sg74
(lp877
sg76
g24
sg77
g24
sg78
F0.0
sg79
S'ATOM  '
p878
sg81
S' '
p879
sg83
g24
sg84
(lp880
I0
aI0
aI0
asg31
S'DA'
p881
sg86
(lp882
F6.102
aF-1.654
aF-16.247
asg33
g2
sg88
F1.0
sba(ipmx.atom
Atom
p883
(dp884
g38
(lp885
sg40
I0
sg22
g685
sg41
F0.0
sg42
g24
sg43
S" C1'"
p886
sg45
S' '
p887
sg47
g24
sg48
I43
sg49
I2
sg25
I43
sg50
F0.0
sg26
S'B'
p888
sg52
(lp889
sg54
(lp890
sg56
(lp891
sg58
I0
sg59
g24
sg60
F0.0
sg61
F0.0
sg62
S'C'
p892
sg64
g688
sg29
S'A'
p893
sg66
F0.0
sg67
(lp894
sg69
F0.0
sg70
I0
sg71
g24
sg9
S"C1'"
p895
sg73
F0.0
sg74
(lp896
sg76
g24
sg77
g24
sg78
F0.0
sg79
S'ATOM  '
p897
sg81
S' '
p898
sg83
g24
sg84
(lp899
I0
aI0
aI0
asg31
S'DA'
p900
sg86
(lp901
F5.532
aF-1.721
aF-14.947
asg33
g2
sg88
F1.0
sba(ipmx.atom
Atom
p902
(dp903
g38
(lp904
sg40
I0
sg22
g685
sg41
F0.0
sg42
g24
sg43
S" H1'"
p905
sg45
S' '
p906
sg47
g24
sg48
I44
sg49
I2
sg25
I44
sg50
F0.0
sg26
S'B'
p907
sg52
(lp908
sg54
(lp909
sg56
(lp910
sg58
I0
sg59
g24
sg60
F0.0
sg61
F0.0
sg62
S'H'
p911
sg64
g688
sg29
S'A'
p912
sg66
F0.0
sg67
(lp913
sg69
F0.0
sg70
I0
sg71
g24
sg9
S"H1'"
p914
sg73
F0.0
sg74
(lp915
sg76
g24
sg77
g24
sg78
F0.0
sg79
S'ATOM  '
p916
sg81
S' '
p917
sg83
g24
sg84
(lp918
I0
aI0
aI0
asg31
S'DA'
p919
sg86
(lp920
F5.541
aF-0.723
aF-14.506
asg33
g2
sg88
F1.0
sba(ipmx.atom
Atom
p921
(dp922
g38
(lp923
sg40
I0
sg22
g685
sg41
F0.0
sg42
g24
sg43
S' N9 '
p924
sg45
S' '
p925
sg47
g24
sg48
I45
sg49
I2
sg25
I45
sg50
F0.0
sg26
S'B'
p926
sg52
(lp927
sg54
(lp928
sg56
(lp929
sg58
I0
sg59
g24
sg60
F0.0
sg61
F0.0
sg62
S'N'
p930
sg64
g688
sg29
S'A'
p931
sg66
F0.0
sg67
(lp932
sg69
F0.0
sg70
I0
sg71
g24
sg9
S'N9'
p933
sg73
F0.0
sg74
(lp934
sg76
g24
sg77
g24
sg78
F0.0
sg79
S'ATOM  '
p935
sg81
S' '
p936
sg83
g24
sg84
(lp937
I0
aI0
aI0
asg31
S'DA'
p938
sg86
(lp939
F4.131
aF-2.202
aF-15.027
asg33
g2
sg88
F1.0
sba(ipmx.atom
Atom
p940
(dp941
g38
(lp942
sg40
I0
sg22
g685
sg41
F0.0
sg42
g24
sg43
S' C8 '
p943
sg45
S' '
p944
sg47
g24
sg48
I46
sg49
I2
sg25
I46
sg50
F0.0
sg26
S'B'
p945
sg52
(lp946
sg54
(lp947
sg56
(lp948
sg58
I0
sg59
g24
sg60
F0.0
sg61
F0.0
sg62
S'C'
p949
sg64
g688
sg29
S'A'
p950
sg66
F0.0
sg67
(lp951
sg69
F0.0
sg70
I0
sg71
g24
sg9
S'C8'
p952
sg73
F0.0
sg74
(lp953
sg76
g24
sg77
g24
sg78
F0.0
sg79
S'ATOM  '
p954
sg81
S' '
p955
sg83
g24
sg84
(lp956
I0
aI0
aI0
asg31
S'DA'
p957
sg86
(lp958
F3.662
aF-3.49
aF-15.087
asg33
g2
sg88
F1.0
sba(ipmx.atom
Atom
p959
(dp960
g38
(lp961
sg40
I0
sg22
g685
sg41
F0.0
sg42
g24
sg43
S' H8 '
p962
sg45
S' '
p963
sg47
g24
sg48
I47
sg49
I2
sg25
I47
sg50
F0.0
sg26
S'B'
p964
sg52
(lp965
sg54
(lp966
sg56
(lp967
sg58
I0
sg59
g24
sg60
F0.0
sg61
F0.0
sg62
S'H'
p968
sg64
g688
sg29
S'A'
p969
sg66
F0.0
sg67
(lp970
sg69
F0.0
sg70
I0
sg71
g24
sg9
S'H8'
p971
sg73
F0.0
sg74
(lp972
sg76
g24
sg77
g24
sg78
F0.0
sg79
S'ATOM  '
p973
sg81
S' '
p974
sg83
g24
sg84
(lp975
I0
aI0
aI0
asg31
S'DA'
p976
sg86
(lp977
F4.334
aF-4.334
aF-15.088
asg33
g2
sg88
F1.0
sba(ipmx.atom
Atom
p978
(dp979
g38
(lp980
sg40
I0
sg22
g685
sg41
F0.0
sg42
g24
sg43
S' N7 '
p981
sg45
S' '
p982
sg47
g24
sg48
I48
sg49
I2
sg25
I48
sg50
F0.0
sg26
S'B'
p983
sg52
(lp984
sg54
(lp985
sg56
(lp986
sg58
I0
sg59
g24
sg60
F0.0
sg61
F0.0
sg62
S'N'
p987
sg64
g688
sg29
S'A'
p988
sg66
F0.0
sg67
(lp989
sg69
F0.0
sg70
I0
sg71
g24
sg9
S'N7'
p990
sg73
F0.0
sg74
(lp991
sg76
g24
sg77
g24
sg78
F0.0
sg79
S'ATOM  '
p992
sg81
S' '
p993
sg83
g24
sg84
(lp994
I0
aI0
aI0
asg31
S'DA'
p995
sg86
(lp996
F2.363
aF-3.609
aF-15.17
asg33
g2
sg88
F1.0
sba(ipmx.atom
Atom
p997
(dp998
g38
(lp999
sg40
I0
sg22
g685
sg41
F0.0
sg42
g24
sg43
S' C5 '
p1000
sg45
S' '
p1001
sg47
g24
sg48
I49
sg49
I2
sg25
I49
sg50
F0.0
sg26
S'B'
p1002
sg52
(lp1003
sg54
(lp1004
sg56
(lp1005
sg58
I0
sg59
g24
sg60
F0.0
sg61
F0.0
sg62
S'C'
p1006
sg64
g688
sg29
S'A'
p1007
sg66
F0.0
sg67
(lp1008
sg69
F0.0
sg70
I0
sg71
g24
sg9
S'C5'
p1009
sg73
F0.0
sg74
(lp1010
sg76
g24
sg77
g24
sg78
F0.0
sg79
S'ATOM  '
p1011
sg81
S' '
p1012
sg83
g24
sg84
(lp1013
I0
aI0
aI0
asg31
S'DA'
p1014
sg86
(lp1015
F1.945
aF-2.276
aF-15.112
asg33
g2
sg88
F1.0
sba(ipmx.atom
Atom
p1016
(dp1017
g38
(lp1018
sg40
I0
sg22
g685
sg41
F0.0
sg42
g24
sg43
S' C6 '
p1019
sg45
S' '
p1020
sg47
g24
sg48
I50
sg49
I2
sg25
I50
sg50
F0.0
sg26
S'B'
p1021
sg52
(lp1022
sg54
(lp1023
sg56
(lp1024
sg58
I0
sg59
g24
sg60
F0.0
sg61
F0.0
sg62
S'C'
p1025
sg64
g688
sg29
S'A'
p1026
sg66
F0.0
sg67
(lp1027
sg69
F0.0
sg70
I0
sg71
g24
sg9
S'C6'
p1028
sg73
F0.0
sg74
(lp1029
sg76
g24
sg77
g24
sg78
F0.0
sg79
S'ATOM  '
p1030
sg81
S' '
p1031
sg83
g24
sg84
(lp1032
I0
aI0
aI0
asg31
S'DA'
p1033
sg86
(lp1034
F0.685
aF-1.645
aF-15.126
asg33
g2
sg88
F1.0
sba(ipmx.atom
Atom
p1035
(dp1036
g38
(lp1037
sg40
I0
sg22
g685
sg41
F0.0
sg42
g24
sg43
S' N6 '
p1038
sg45
S' '
p1039
sg47
g24
sg48
I51
sg49
I2
sg25
I51
sg50
F0.0
sg26
S'B'
p1040
sg52
(lp1041
sg54
(lp1042
sg56
(lp1043
sg58
I0
sg59
g24
sg60
F0.0
sg61
F0.0
sg62
S'N'
p1044
sg64
g688
sg29
S'A'
p1045
sg66
F0.0
sg67
(lp1046
sg69
F0.0
sg70
I0
sg71
g24
sg9
S'N6'
p1047
sg73
F0.0
sg74
(lp1048
sg76
g24
sg77
g24
sg78
F0.0
sg79
S'ATOM  '
p1049
sg81
S' '
p1050
sg83
g24
sg84
(lp1051
I0
aI0
aI0
asg31
S'DA'
p1052
sg86
(lp1053
F-0.447
aF-2.319
aF-15.218
asg33
g2
sg88
F1.0
sba(ipmx.atom
Atom
p1054
(dp1055
g38
(lp1056
sg40
I0
sg22
g685
sg41
F0.0
sg42
g24
sg43
S' H61'
p1057
sg45
S' '
p1058
sg47
g24
sg48
I52
sg49
I2
sg25
I52
sg50
F0.0
sg26
S'B'
p1059
sg52
(lp1060
sg54
(lp1061
sg56
(lp1062
sg58
I0
sg59
g24
sg60
F0.0
sg61
F0.0
sg62
S'H'
p1063
sg64
g688
sg29
S'A'
p1064
sg66
F0.0
sg67
(lp1065
sg69
F0.0
sg70
I0
sg71
g24
sg9
S'H61'
p1066
sg73
F0.0
sg74
(lp1067
sg76
g24
sg77
g24
sg78
F0.0
sg79
S'ATOM  '
p1068
sg81
S' '
p1069
sg83
g24
sg84
(lp1070
I0
aI0
aI0
asg31
S'DA'
p1071
sg86
(lp1072
F-0.384
aF-3.318
aF-15.252
asg33
g2
sg88
F1.0
sba(ipmx.atom
Atom
p1073
(dp1074
g38
(lp1075
sg40
I0
sg22
g685
sg41
F0.0
sg42
g24
sg43
S' H62'
p1076
sg45
S' '
p1077
sg47
g24
sg48
I53
sg49
I2
sg25
I53
sg50
F0.0
sg26
S'B'
p1078
sg52
(lp1079
sg54
(lp1080
sg56
(lp1081
sg58
I0
sg59
g24
sg60
F0.0
sg61
F0.0
sg62
S'H'
p1082
sg64
g688
sg29
S'A'
p1083
sg66
F0.0
sg67
(lp1084
sg69
F0.0
sg70
I0
sg71
g24
sg9
S'H62'
p1085
sg73
F0.0
sg74
(lp1086
sg76
g24
sg77
g24
sg78
F0.0
sg79
S'ATOM  '
p1087
sg81
S' '
p1088
sg83
g24
sg84
(lp1089
I0
aI0
aI0
asg31
S'DA'
p1090
sg86
(lp1091
F-1.335
aF-1.833
aF-15.214
asg33
g2
sg88
F1.0
sba(ipmx.atom
Atom
p1092
(dp1093
g38
(lp1094
sg40
I0
sg22
g685
sg41
F0.0
sg42
g24
sg43
S' N1 '
p1095
sg45
S' '
p1096
sg47
g24
sg48
I54
sg49
I2
sg25
I54
sg50
F0.0
sg26
S'B'
p1097
sg52
(lp1098
sg54
(lp1099
sg56
(lp1100
sg58
I0
sg59
g24
sg60
F0.0
sg61
F0.0
sg62
S'N'
p1101
sg64
g688
sg29
S'A'
p1102
sg66
F0.0
sg67
(lp1103
sg69
F0.0
sg70
I0
sg71
g24
sg9
S'N1'
p1104
sg73
F0.0
sg74
(lp1105
sg76
g24
sg77
g24
sg78
F0.0
sg79
S'ATOM  '
p1106
sg81
S' '
p1107
sg83
g24
sg84
(lp1108
I0
aI0
aI0
asg31
S'DA'
p1109
sg86
(lp1110
F0.575
aF-0.317
aF-15.049
asg33
g2
sg88
F1.0
sba(ipmx.atom
Atom
p1111
(dp1112
g38
(lp1113
sg40
I0
sg22
g685
sg41
F0.0
sg42
g24
sg43
S' C2 '
p1114
sg45
S' '
p1115
sg47
g24
sg48
I55
sg49
I2
sg25
I55
sg50
F0.0
sg26
S'B'
p1116
sg52
(lp1117
sg54
(lp1118
sg56
(lp1119
sg58
I0
sg59
g24
sg60
F0.0
sg61
F0.0
sg62
S'C'
p1120
sg64
g688
sg29
S'A'
p1121
sg66
F0.0
sg67
(lp1122
sg69
F0.0
sg70
I0
sg71
g24
sg9
S'C2'
p1123
sg73
F0.0
sg74
(lp1124
sg76
g24
sg77
g24
sg78
F0.0
sg79
S'ATOM  '
p1125
sg81
S' '
p1126
sg83
g24
sg84
(lp1127
I0
aI0
aI0
asg31
S'DA'
p1128
sg86
(lp1129
F1.699
aF0.388
aF-14.961
asg33
g2
sg88
F1.0
sba(ipmx.atom
Atom
p1130
(dp1131
g38
(lp1132
sg40
I0
sg22
g685
sg41
F0.0
sg42
g24
sg43
S' H2 '
p1133
sg45
S' '
p1134
sg47
g24
sg48
I56
sg49
I2
sg25
I56
sg50
F0.0
sg26
S'B'
p1135
sg52
(lp1136
sg54
(lp1137
sg56
(lp1138
sg58
I0
sg59
g24
sg60
F0.0
sg61
F0.0
sg62
S'H'
p1139
sg64
g688
sg29
S'A'
p1140
sg66
F0.0
sg67
(lp1141
sg69
F0.0
sg70
I0
sg71
g24
sg9
S'H2'
p1142
sg73
F0.0
sg74
(lp1143
sg76
g24
sg77
g24
sg78
F0.0
sg79
S'ATOM  '
p1144
sg81
S' '
p1145
sg83
g24
sg84
(lp1146
I0
aI0
aI0
asg31
S'DA'
p1147
sg86
(lp1148
F1.591
aF1.462
aF-14.887
asg33
g2
sg88
F1.0
sba(ipmx.atom
Atom
p1149
(dp1150
g38
(lp1151
sg40
I0
sg22
g685
sg41
F0.0
sg42
g24
sg43
S' N3 '
p1152
sg45
S' '
p1153
sg47
g24
sg48
I57
sg49
I2
sg25
I57
sg50
F0.0
sg26
S'B'
p1154
sg52
(lp1155
sg54
(lp1156
sg56
(lp1157
sg58
I0
sg59
g24
sg60
F0.0
sg61
F0.0
sg62
S'N'
p1158
sg64
g688
sg29
S'A'
p1159
sg66
F0.0
sg67
(lp1160
sg69
F0.0
sg70
I0
sg71
g24
sg9
S'N3'
p1161
sg73
F0.0
sg74
(lp1162
sg76
g24
sg77
g24
sg78
F0.0
sg79
S'ATOM  '
p1163
sg81
S' '
p1164
sg83
g24
sg84
(lp1165
I0
aI0
aI0
asg31
S'DA'
p1166
sg86
(lp1167
F2.945
aF-0.057
aF-14.937
asg33
g2
sg88
F1.0
sba(ipmx.atom
Atom
p1168
(dp1169
g38
(lp1170
sg40
I0
sg22
g685
sg41
F0.0
sg42
g24
sg43
S' C4 '
p1171
sg45
S' '
p1172
sg47
g24
sg48
I58
sg49
I2
sg25
I58
sg50
F0.0
sg26
S'B'
p1173
sg52
(lp1174
sg54
(lp1175
sg56
(lp1176
sg58
I0
sg59
g24
sg60
F0.0
sg61
F0.0
sg62
S'C'
p1177
sg64
g688
sg29
S'A'
p1178
sg66
F0.0
sg67
(lp1179
sg69
F0.0
sg70
I0
sg71
g24
sg9
S'C4'
p1180
sg73
F0.0
sg74
(lp1181
sg76
g24
sg77
g24
sg78
F0.0
sg79
S'ATOM  '
p1182
sg81
S' '
p1183
sg83
g24
sg84
(lp1184
I0
aI0
aI0
asg31
S'DA'
p1185
sg86
(lp1186
F3.005
aF-1.414
aF-15.024
asg33
g2
sg88
F1.0
sba(ipmx.atom
Atom
p1187
(dp1188
g38
(lp1189
sg40
I0
sg22
g685
sg41
F0.0
sg42
g24
sg43
S" C3'"
p1190
sg45
S' '
p1191
sg47
g24
sg48
I59
sg49
I2
sg25
I59
sg50
F0.0
sg26
S'B'
p1192
sg52
(lp1193
sg54
(lp1194
sg56
(lp1195
sg58
I0
sg59
g24
sg60
F0.0
sg61
F0.0
sg62
S'C'
p1196
sg64
g688
sg29
S'A'
p1197
sg66
F0.0
sg67
(lp1198
sg69
F0.0
sg70
I0
sg71
g24
sg9
S"C3'"
p1199
sg73
F0.0
sg74
(lp1200
sg76
g24
sg77
g24
sg78
F0.0
sg79
S'ATOM  '
p1201
sg81
S' '
p1202
sg83
g24
sg84
(lp1203
I0
aI0
aI0
asg31
S'DA'
p1204
sg86
(lp1205
F7.81
aF-2.527
aF-14.803
asg33
g2
sg88
F1.0
sba(ipmx.atom
Atom
p1206
(dp1207
g38
(lp1208
sg40
I0
sg22
g685
sg41
F0.0
sg42
g24
sg43
S" H3'"
p1209
sg45
S' '
p1210
sg47
g24
sg48
I60
sg49
I2
sg25
I60
sg50
F0.0
sg26
S'B'
p1211
sg52
(lp1212
sg54
(lp1213
sg56
(lp1214
sg58
I0
sg59
g24
sg60
F0.0
sg61
F0.0
sg62
S'H'
p1215
sg64
g688
sg29
S'A'
p1216
sg66
F0.0
sg67
(lp1217
sg69
F0.0
sg70
I0
sg71
g24
sg9
S"H3'"
p1218
sg73
F0.0
sg74
(lp1219
sg76
g24
sg77
g24
sg78
F0.0
sg79
S'ATOM  '
p1220
sg81
S' '
p1221
sg83
g24
sg84
(lp1222
I0
aI0
aI0
asg31
S'DA'
p1223
sg86
(lp1224
F8.361
aF-3.455
aF-14.664
asg33
g2
sg88
F1.0
sba(ipmx.atom
Atom
p1225
(dp1226
g38
(lp1227
sg40
I0
sg22
g685
sg41
F0.0
sg42
g24
sg43
S" C2'"
p1228
sg45
S' '
p1229
sg47
g24
sg48
I61
sg49
I2
sg25
I61
sg50
F0.0
sg26
S'B'
p1230
sg52
(lp1231
sg54
(lp1232
sg56
(lp1233
sg58
I0
sg59
g24
sg60
F0.0
sg61
F0.0
sg62
S'C'
p1234
sg64
g688
sg29
S'A'
p1235
sg66
F0.0
sg67
(lp1236
sg69
F0.0
sg70
I0
sg71
g24
sg9
S"C2'"
p1237
sg73
F0.0
sg74
(lp1238
sg76
g24
sg77
g24
sg78
F0.0
sg79
S'ATOM  '
p1239
sg81
S' '
p1240
sg83
g24
sg84
(lp1241
I0
aI0
aI0
asg31
S'DA'
p1242
sg86
(lp1243
F6.446
aF-2.615
aF-14.103
asg33
g2
sg88
F1.0
sba(ipmx.atom
Atom
p1244
(dp1245
g38
(lp1246
sg40
I0
sg22
g685
sg41
F0.0
sg42
g24
sg43
S"1H2'"
p1247
sg45
S' '
p1248
sg47
g24
sg48
I62
sg49
I2
sg25
I62
sg50
F0.0
sg26
S'B'
p1249
sg52
(lp1250
sg54
(lp1251
sg56
(lp1252
sg58
I0
sg59
g24
sg60
F0.0
sg61
F0.0
sg62
S'H'
p1253
sg64
g688
sg29
S'A'
p1254
sg66
F0.0
sg67
(lp1255
sg69
F0.0
sg70
I0
sg71
g24
sg9
S"H2'1"
p1256
sg73
F0.0
sg74
(lp1257
sg76
g24
sg77
g24
sg78
F0.0
sg79
S'ATOM  '
p1258
sg81
S' '
p1259
sg83
g24
sg84
(lp1260
I0
aI0
aI0
asg31
S'DA'
p1261
sg86
(lp1262
F6.091
aF-3.645
aF-14.078
asg33
g2
sg88
F1.0
sba(ipmx.atom
Atom
p1263
(dp1264
g38
(lp1265
sg40
I0
sg22
g685
sg41
F0.0
sg42
g24
sg43
S"2H2'"
p1266
sg45
S' '
p1267
sg47
g24
sg48
I63
sg49
I2
sg25
I63
sg50
F0.0
sg26
S'B'
p1268
sg52
(lp1269
sg54
(lp1270
sg56
(lp1271
sg58
I0
sg59
g24
sg60
F0.0
sg61
F0.0
sg62
S'H'
p1272
sg64
g688
sg29
S'A'
p1273
sg66
F0.0
sg67
(lp1274
sg69
F0.0
sg70
I0
sg71
g24
sg9
S"H2'2"
p1275
sg73
F0.0
sg74
(lp1276
sg76
g24
sg77
g24
sg78
F0.0
sg79
S'ATOM  '
p1277
sg81
S' '
p1278
sg83
g24
sg84
(lp1279
I0
aI0
aI0
asg31
S'DA'
p1280
sg86
(lp1281
F6.485
aF-2.305
aF-13.079
asg33
g2
sg88
F1.0
sba(ipmx.atom
Atom
p1282
(dp1283
g38
(lp1284
sg40
I0
sg22
g685
sg41
F0.0
sg42
g24
sg43
S" O3'"
p1285
sg45
S' '
p1286
sg47
g24
sg48
I64
sg49
I2
sg25
I64
sg50
F0.0
sg26
S'B'
p1287
sg52
(lp1288
sg54
(lp1289
sg56
(lp1290
sg58
I0
sg59
g24
sg60
F0.0
sg61
F0.0
sg62
S'O'
p1291
sg64
g688
sg29
S'A'
p1292
sg66
F0.0
sg67
(lp1293
sg69
F0.0
sg70
I0
sg71
g24
sg9
S"O3'"
p1294
sg73
F0.0
sg74
(lp1295
sg76
g24
sg77
g24
sg78
F0.0
sg79
S'ATOM  '
p1296
sg81
S' '
p1297
sg83
g24
sg84
(lp1298
I0
aI0
aI0
asg31
S'DA'
p1299
sg86
(lp1300
F8.68
aF-1.432
aF-14.447
asg33
g2
sg88
F1.0
sbasg48
I2
sg678
Nsbasg34
(lp1301
g694
ag712
ag731
ag750
ag769
ag788
ag807
ag826
ag845
ag864
ag883
ag902
ag921
ag940
ag959
ag978
ag997
ag1016
ag1035
ag1054
ag1073
ag1092
ag1111
ag1130
ag1149
ag1168
ag1187
ag1206
ag1225
ag1244
ag1263
ag1282
asg680
I0
sg29
S'A'
p1302
sg33
g2
sg682
I00
sg48
S'B'
p1303
sbssg17
(lp1304
g19
ag688
asg34
(lp1305
g36
ag89
ag108
ag127
ag146
ag165
ag184
ag203
ag222
ag241
ag260
ag279
ag298
ag317
ag336
ag355
ag374
ag393
ag412
ag431
ag450
ag469
ag488
ag507
ag526
ag545
ag564
ag583
ag602
ag621
ag640
ag659
ag694
ag712
ag731
ag750
ag769
ag788
ag807
ag826
ag845
ag864
ag883
ag902
ag921
ag940
ag959
ag978
ag997
ag1016
ag1035
ag1054
ag1073
ag1092
ag1111
ag1130
ag1149
ag1168
ag1187
ag1206
ag1225
ag1244
ag1263
ag1282
asg29
S'A'
p1306
sS'chains'
p1307
(lp1308
g15
ag685
asg48
I0
sS'have_bonds'
p1309
I0
sbsS'c'
p1310
(ipmx.model
Model
p1311
(dp1312
g4
(lp1313
(lp1314
I0
aI0
aI0
aa(lp1315
I0
aI0
aI0
aa(lp1316
I0
aI0
aI0
aasg9
Nsg10
g11
sg12
(dp1317
S'A'
p1318
(ipmx.chain
Chain
p1319
(dp1320
g17
(lp1321
(ipmx.molecule
Molecule
p1322
(dp1323
g21
I0
sg22
g1319
sg23
g24
sg25
I1
sg26
S'A'
p1324
sg28
Nsg29
S'A'
p1325
sg31
S'DG'
p1326
sg33
g1311
sg34
(lp1327
(ipmx.atom
Atom
p1328
(dp1329
g38
(lp1330
sg40
I0
sg22
g1319
sg41
F0.0
sg42
g24
sg43
S' P  '
p1331
sg45
S' '
p1332
sg47
g24
sg48
I1
sg49
I1
sg25
I1
sg50
F0.0
sg26
S'A'
p1333
sg52
(lp1334
sg54
(lp1335
sg56
(lp1336
sg58
I0
sg59
g24
sg60
F0.0
sg61
F0.0
sg62
S'P'
p1337
sg64
g1322
sg29
S'A'
p1338
sg66
F0.0
sg67
(lp1339
sg69
F0.0
sg70
I0
sg71
g24
sg9
S'P'
p1340
sg73
F0.0
sg74
(lp1341
sg76
g24
sg77
g24
sg78
F0.0
sg79
S'ATOM  '
p1342
sg81
S' '
p1343
sg83
g24
sg84
(lp1344
I0
aI0
aI0
asg31
g1326
sg86
(lp1345
F-8.181
aF3.77
aF-13.833
asg33
g1311
sg88
F1.0
sba(ipmx.atom
Atom
p1346
(dp1347
g38
(lp1348
sg40
I0
sg22
g1319
sg41
F0.0
sg42
g24
sg43
S' O1P'
p1349
sg45
S' '
p1350
sg47
g24
sg48
I2
sg49
I1
sg25
I2
sg50
F0.0
sg26
S'A'
p1351
sg52
(lp1352
sg54
(lp1353
sg56
(lp1354
sg58
I0
sg59
g24
sg60
F0.0
sg61
F0.0
sg62
S'O'
p1355
sg64
g1322
sg29
S'A'
p1356
sg66
F0.0
sg67
(lp1357
sg69
F0.0
sg70
I0
sg71
g24
sg9
S'O1P'
p1358
sg73
F0.0
sg74
(lp1359
sg76
g24
sg77
g24
sg78
F0.0
sg79
S'ATOM  '
p1360
sg81
S' '
p1361
sg83
g24
sg84
(lp1362
I0
aI0
aI0
asg31
S'DG'
p1363
sg86
(lp1364
F-8.88
aF5.07
aF-13.997
asg33
g1311
sg88
F1.0
sba(ipmx.atom
Atom
p1365
(dp1366
g38
(lp1367
sg40
I0
sg22
g1319
sg41
F0.0
sg42
g24
sg43
S' O2P'
p1368
sg45
S' '
p1369
sg47
g24
sg48
I3
sg49
I1
sg25
I3
sg50
F0.0
sg26
S'A'
p1370
sg52
(lp1371
sg54
(lp1372
sg56
(lp1373
sg58
I0
sg59
g24
sg60
F0.0
sg61
F0.0
sg62
S'O'
p1374
sg64
g1322
sg29
S'A'
p1375
sg66
F0.0
sg67
(lp1376
sg69
F0.0
sg70
I0
sg71
g24
sg9
S'O2P'
p1377
sg73
F0.0
sg74
(lp1378
sg76
g24
sg77
g24
sg78
F0.0
sg79
S'ATOM  '
p1379
sg81
S' '
p1380
sg83
g24
sg84
(lp1381
I0
aI0
aI0
asg31
S'DG'
p1382
sg86
(lp1383
F-8.536
aF2.61
aF-14.67
asg33
g1311
sg88
F1.0
sba(ipmx.atom
Atom
p1384
(dp1385
g38
(lp1386
sg40
I0
sg22
g1319
sg41
F0.0
sg42
g24
sg43
S" O5'"
p1387
sg45
S' '
p1388
sg47
g24
sg48
I4
sg49
I1
sg25
I4
sg50
F0.0
sg26
S'A'
p1389
sg52
(lp1390
sg54
(lp1391
sg56
(lp1392
sg58
I0
sg59
g24
sg60
F0.0
sg61
F0.0
sg62
S'O'
p1393
sg64
g1322
sg29
S'A'
p1394
sg66
F0.0
sg67
(lp1395
sg69
F0.0
sg70
I0
sg71
g24
sg9
S"O5'"
p1396
sg73
F0.0
sg74
(lp1397
sg76
g24
sg77
g24
sg78
F0.0
sg79
S'ATOM  '
p1398
sg81
S' '
p1399
sg83
g24
sg84
(lp1400
I0
aI0
aI0
asg31
S'DG'
p1401
sg86
(lp1402
F-6.636
aF4.079
aF-14.024
asg33
g1311
sg88
F1.0
sba(ipmx.atom
Atom
p1403
(dp1404
g38
(lp1405
sg40
I0
sg22
g1319
sg41
F0.0
sg42
g24
sg43
S" C5'"
p1406
sg45
S' '
p1407
sg47
g24
sg48
I5
sg49
I1
sg25
I5
sg50
F0.0
sg26
S'A'
p1408
sg52
(lp1409
sg54
(lp1410
sg56
(lp1411
sg58
I0
sg59
g24
sg60
F0.0
sg61
F0.0
sg62
S'C'
p1412
sg64
g1322
sg29
S'A'
p1413
sg66
F0.0
sg67
(lp1414
sg69
F0.0
sg70
I0
sg71
g24
sg9
S"C5'"
p1415
sg73
F0.0
sg74
(lp1416
sg76
g24
sg77
g24
sg78
F0.0
sg79
S'ATOM  '
p1417
sg81
S' '
p1418
sg83
g24
sg84
(lp1419
I0
aI0
aI0
asg31
S'DG'
p1420
sg86
(lp1421
F-5.966
aF4.931
aF-13.106
asg33
g1311
sg88
F1.0
sba(ipmx.atom
Atom
p1422
(dp1423
g38
(lp1424
sg40
I0
sg22
g1319
sg41
F0.0
sg42
g24
sg43
S"1H5'"
p1425
sg45
S' '
p1426
sg47
g24
sg48
I6
sg49
I1
sg25
I6
sg50
F0.0
sg26
S'A'
p1427
sg52
(lp1428
sg54
(lp1429
sg56
(lp1430
sg58
I0
sg59
g24
sg60
F0.0
sg61
F0.0
sg62
S'H'
p1431
sg64
g1322
sg29
S'A'
p1432
sg66
F0.0
sg67
(lp1433
sg69
F0.0
sg70
I0
sg71
g24
sg9
S"H5'1"
p1434
sg73
F0.0
sg74
(lp1435
sg76
g24
sg77
g24
sg78
F0.0
sg79
S'ATOM  '
p1436
sg81
S' '
p1437
sg83
g24
sg84
(lp1438
I0
aI0
aI0
asg31
S'DG'
p1439
sg86
(lp1440
F-6.686
aF5.64
aF-12.692
asg33
g1311
sg88
F1.0
sba(ipmx.atom
Atom
p1441
(dp1442
g38
(lp1443
sg40
I0
sg22
g1319
sg41
F0.0
sg42
g24
sg43
S"2H5'"
p1444
sg45
S' '
p1445
sg47
g24
sg48
I7
sg49
I1
sg25
I7
sg50
F0.0
sg26
S'A'
p1446
sg52
(lp1447
sg54
(lp1448
sg56
(lp1449
sg58
I0
sg59
g24
sg60
F0.0
sg61
F0.0
sg62
S'H'
p1450
sg64
g1322
sg29
S'A'
p1451
sg66
F0.0
sg67
(lp1452
sg69
F0.0
sg70
I0
sg71
g24
sg9
S"H5'2"
p1453
sg73
F0.0
sg74
(lp1454
sg76
g24
sg77
g24
sg78
F0.0
sg79
S'ATOM  '
p1455
sg81
S' '
p1456
sg83
g24
sg84
(lp1457
I0
aI0
aI0
asg31
S'DG'
p1458
sg86
(lp1459
F-5.608
aF4.331
aF-12.265
asg33
g1311
sg88
F1.0
sba(ipmx.atom
Atom
p1460
(dp1461
g38
(lp1462
sg40
I0
sg22
g1319
sg41
F0.0
sg42
g24
sg43
S" C4'"
p1463
sg45
S' '
p1464
sg47
g24
sg48
I8
sg49
I1
sg25
I8
sg50
F0.0
sg26
S'A'
p1465
sg52
(lp1466
sg54
(lp1467
sg56
(lp1468
sg58
I0
sg59
g24
sg60
F0.0
sg61
F0.0
sg62
S'C'
p1469
sg64
g1322
sg29
S'A'
p1470
sg66
F0.0
sg67
(lp1471
sg69
F0.0
sg70
I0
sg71
g24
sg9
S"C4'"
p1472
sg73
F0.0
sg74
(lp1473
sg76
g24
sg77
g24
sg78
F0.0
sg79
S'ATOM  '
p1474
sg81
S' '
p1475
sg83
g24
sg84
(lp1476
I0
aI0
aI0
asg31
S'DG'
p1477
sg86
(lp1478
F-4.797
aF5.702
aF-13.74
asg33
g1311
sg88
F1.0
sba(ipmx.atom
Atom
p1479
(dp1480
g38
(lp1481
sg40
I0
sg22
g1319
sg41
F0.0
sg42
g24
sg43
S" H4'"
p1482
sg45
S' '
p1483
sg47
g24
sg48
I9
sg49
I1
sg25
I9
sg50
F0.0
sg26
S'A'
p1484
sg52
(lp1485
sg54
(lp1486
sg56
(lp1487
sg58
I0
sg59
g24
sg60
F0.0
sg61
F0.0
sg62
S'H'
p1488
sg64
g1322
sg29
S'A'
p1489
sg66
F0.0
sg67
(lp1490
sg69
F0.0
sg70
I0
sg71
g24
sg9
S"H4'"
p1491
sg73
F0.0
sg74
(lp1492
sg76
g24
sg77
g24
sg78
F0.0
sg79
S'ATOM  '
p1493
sg81
S' '
p1494
sg83
g24
sg84
(lp1495
I0
aI0
aI0
asg31
S'DG'
p1496
sg86
(lp1497
F-4.597
aF6.551
aF-13.091
asg33
g1311
sg88
F1.0
sba(ipmx.atom
Atom
p1498
(dp1499
g38
(lp1500
sg40
I0
sg22
g1319
sg41
F0.0
sg42
g24
sg43
S" O4'"
p1501
sg45
S' '
p1502
sg47
g24
sg48
I10
sg49
I1
sg25
I10
sg50
F0.0
sg26
S'A'
p1503
sg52
(lp1504
sg54
(lp1505
sg56
(lp1506
sg58
I0
sg59
g24
sg60
F0.0
sg61
F0.0
sg62
S'O'
p1507
sg64
g1322
sg29
S'A'
p1508
sg66
F0.0
sg67
(lp1509
sg69
F0.0
sg70
I0
sg71
g24
sg9
S"O4'"
p1510
sg73
F0.0
sg74
(lp1511
sg76
g24
sg77
g24
sg78
F0.0
sg79
S'ATOM  '
p1512
sg81
S' '
p1513
sg83
g24
sg84
(lp1514
I0
aI0
aI0
asg31
S'DG'
p1515
sg86
(lp1516
F-3.665
aF4.838
aF-13.747
asg33
g1311
sg88
F1.0
sba(ipmx.atom
Atom
p1517
(dp1518
g38
(lp1519
sg40
I0
sg22
g1319
sg41
F0.0
sg42
g24
sg43
S" C1'"
p1520
sg45
S' '
p1521
sg47
g24
sg48
I11
sg49
I1
sg25
I11
sg50
F0.0
sg26
S'A'
p1522
sg52
(lp1523
sg54
(lp1524
sg56
(lp1525
sg58
I0
sg59
g24
sg60
F0.0
sg61
F0.0
sg62
S'C'
p1526
sg64
g1322
sg29
S'A'
p1527
sg66
F0.0
sg67
(lp1528
sg69
F0.0
sg70
I0
sg71
g24
sg9
S"C1'"
p1529
sg73
F0.0
sg74
(lp1530
sg76
g24
sg77
g24
sg78
F0.0
sg79
S'ATOM  '
p1531
sg81
S' '
p1532
sg83
g24
sg84
(lp1533
I0
aI0
aI0
asg31
S'DG'
p1534
sg86
(lp1535
F-3.476
aF4.351
aF-15.064
asg33
g1311
sg88
F1.0
sba(ipmx.atom
Atom
p1536
(dp1537
g38
(lp1538
sg40
I0
sg22
g1319
sg41
F0.0
sg42
g24
sg43
S" H1'"
p1539
sg45
S' '
p1540
sg47
g24
sg48
I12
sg49
I1
sg25
I12
sg50
F0.0
sg26
S'A'
p1541
sg52
(lp1542
sg54
(lp1543
sg56
(lp1544
sg58
I0
sg59
g24
sg60
F0.0
sg61
F0.0
sg62
S'H'
p1545
sg64
g1322
sg29
S'A'
p1546
sg66
F0.0
sg67
(lp1547
sg69
F0.0
sg70
I0
sg71
g24
sg9
S"H1'"
p1548
sg73
F0.0
sg74
(lp1549
sg76
g24
sg77
g24
sg78
F0.0
sg79
S'ATOM  '
p1550
sg81
S' '
p1551
sg83
g24
sg84
(lp1552
I0
aI0
aI0
asg31
S'DG'
p1553
sg86
(lp1554
F-2.535
aF4.749
aF-15.444
asg33
g1311
sg88
F1.0
sba(ipmx.atom
Atom
p1555
(dp1556
g38
(lp1557
sg40
I0
sg22
g1319
sg41
F0.0
sg42
g24
sg43
S' N9 '
p1558
sg45
S' '
p1559
sg47
g24
sg48
I13
sg49
I1
sg25
I13
sg50
F0.0
sg26
S'A'
p1560
sg52
(lp1561
sg54
(lp1562
sg56
(lp1563
sg58
I0
sg59
g24
sg60
F0.0
sg61
F0.0
sg62
S'N'
p1564
sg64
g1322
sg29
S'A'
p1565
sg66
F0.0
sg67
(lp1566
sg69
F0.0
sg70
I0
sg71
g24
sg9
S'N9'
p1567
sg73
F0.0
sg74
(lp1568
sg76
g24
sg77
g24
sg78
F0.0
sg79
S'ATOM  '
p1569
sg81
S' '
p1570
sg83
g24
sg84
(lp1571
I0
aI0
aI0
asg31
S'DG'
p1572
sg86
(lp1573
F-3.389
aF2.874
aF-15.069
asg33
g1311
sg88
F1.0
sba(ipmx.atom
Atom
p1574
(dp1575
g38
(lp1576
sg40
I0
sg22
g1319
sg41
F0.0
sg42
g24
sg43
S' C8 '
p1577
sg45
S' '
p1578
sg47
g24
sg48
I14
sg49
I1
sg25
I14
sg50
F0.0
sg26
S'A'
p1579
sg52
(lp1580
sg54
(lp1581
sg56
(lp1582
sg58
I0
sg59
g24
sg60
F0.0
sg61
F0.0
sg62
S'C'
p1583
sg64
g1322
sg29
S'A'
p1584
sg66
F0.0
sg67
(lp1585
sg69
F0.0
sg70
I0
sg71
g24
sg9
S'C8'
p1586
sg73
F0.0
sg74
(lp1587
sg76
g24
sg77
g24
sg78
F0.0
sg79
S'ATOM  '
p1588
sg81
S' '
p1589
sg83
g24
sg84
(lp1590
I0
aI0
aI0
asg31
S'DG'
p1591
sg86
(lp1592
F-4.401
aF1.946
aF-15.107
asg33
g1311
sg88
F1.0
sba(ipmx.atom
Atom
p1593
(dp1594
g38
(lp1595
sg40
I0
sg22
g1319
sg41
F0.0
sg42
g24
sg43
S' H8 '
p1596
sg45
S' '
p1597
sg47
g24
sg48
I15
sg49
I1
sg25
I15
sg50
F0.0
sg26
S'A'
p1598
sg52
(lp1599
sg54
(lp1600
sg56
(lp1601
sg58
I0
sg59
g24
sg60
F0.0
sg61
F0.0
sg62
S'H'
p1602
sg64
g1322
sg29
S'A'
p1603
sg66
F0.0
sg67
(lp1604
sg69
F0.0
sg70
I0
sg71
g24
sg9
S'H8'
p1605
sg73
F0.0
sg74
(lp1606
sg76
g24
sg77
g24
sg78
F0.0
sg79
S'ATOM  '
p1607
sg81
S' '
p1608
sg83
g24
sg84
(lp1609
I0
aI0
aI0
asg31
S'DG'
p1610
sg86
(lp1611
F-5.445
aF2.226
aF-15.122
asg33
g1311
sg88
F1.0
sba(ipmx.atom
Atom
p1612
(dp1613
g38
(lp1614
sg40
I0
sg22
g1319
sg41
F0.0
sg42
g24
sg43
S' N7 '
p1615
sg45
S' '
p1616
sg47
g24
sg48
I16
sg49
I1
sg25
I16
sg50
F0.0
sg26
S'A'
p1617
sg52
(lp1618
sg54
(lp1619
sg56
(lp1620
sg58
I0
sg59
g24
sg60
F0.0
sg61
F0.0
sg62
S'N'
p1621
sg64
g1322
sg29
S'A'
p1622
sg66
F0.0
sg67
(lp1623
sg69
F0.0
sg70
I0
sg71
g24
sg9
S'N7'
p1624
sg73
F0.0
sg74
(lp1625
sg76
g24
sg77
g24
sg78
F0.0
sg79
S'ATOM  '
p1626
sg81
S' '
p1627
sg83
g24
sg84
(lp1628
I0
aI0
aI0
asg31
S'DG'
p1629
sg86
(lp1630
F-3.996
aF0.708
aF-15.11
asg33
g1311
sg88
F1.0
sba(ipmx.atom
Atom
p1631
(dp1632
g38
(lp1633
sg40
I0
sg22
g1319
sg41
F0.0
sg42
g24
sg43
S' C5 '
p1634
sg45
S' '
p1635
sg47
g24
sg48
I17
sg49
I1
sg25
I17
sg50
F0.0
sg26
S'A'
p1636
sg52
(lp1637
sg54
(lp1638
sg56
(lp1639
sg58
I0
sg59
g24
sg60
F0.0
sg61
F0.0
sg62
S'C'
p1640
sg64
g1322
sg29
S'A'
p1641
sg66
F0.0
sg67
(lp1642
sg69
F0.0
sg70
I0
sg71
g24
sg9
S'C5'
p1643
sg73
F0.0
sg74
(lp1644
sg76
g24
sg77
g24
sg78
F0.0
sg79
S'ATOM  '
p1645
sg81
S' '
p1646
sg83
g24
sg84
(lp1647
I0
aI0
aI0
asg31
S'DG'
p1648
sg86
(lp1649
F-2.605
aF0.825
aF-15.088
asg33
g1311
sg88
F1.0
sba(ipmx.atom
Atom
p1650
(dp1651
g38
(lp1652
sg40
I0
sg22
g1319
sg41
F0.0
sg42
g24
sg43
S' C6 '
p1653
sg45
S' '
p1654
sg47
g24
sg48
I18
sg49
I1
sg25
I18
sg50
F0.0
sg26
S'A'
p1655
sg52
(lp1656
sg54
(lp1657
sg56
(lp1658
sg58
I0
sg59
g24
sg60
F0.0
sg61
F0.0
sg62
S'C'
p1659
sg64
g1322
sg29
S'A'
p1660
sg66
F0.0
sg67
(lp1661
sg69
F0.0
sg70
I0
sg71
g24
sg9
S'C6'
p1662
sg73
F0.0
sg74
(lp1663
sg76
g24
sg77
g24
sg78
F0.0
sg79
S'ATOM  '
p1664
sg81
S' '
p1665
sg83
g24
sg84
(lp1666
I0
aI0
aI0
asg31
S'DG'
p1667
sg86
(lp1668
F-1.576
aF-0.166
aF-15.089
asg33
g1311
sg88
F1.0
sba(ipmx.atom
Atom
p1669
(dp1670
g38
(lp1671
sg40
I0
sg22
g1319
sg41
F0.0
sg42
g24
sg43
S' O6 '
p1672
sg45
S' '
p1673
sg47
g24
sg48
I19
sg49
I1
sg25
I19
sg50
F0.0
sg26
S'A'
p1674
sg52
(lp1675
sg54
(lp1676
sg56
(lp1677
sg58
I0
sg59
g24
sg60
F0.0
sg61
F0.0
sg62
S'O'
p1678
sg64
g1322
sg29
S'A'
p1679
sg66
F0.0
sg67
(lp1680
sg69
F0.0
sg70
I0
sg71
g24
sg9
S'O6'
p1681
sg73
F0.0
sg74
(lp1682
sg76
g24
sg77
g24
sg78
F0.0
sg79
S'ATOM  '
p1683
sg81
S' '
p1684
sg83
g24
sg84
(lp1685
I0
aI0
aI0
asg31
S'DG'
p1686
sg86
(lp1687
F-1.693
aF-1.387
aF-15.095
asg33
g1311
sg88
F1.0
sba(ipmx.atom
Atom
p1688
(dp1689
g38
(lp1690
sg40
I0
sg22
g1319
sg41
F0.0
sg42
g24
sg43
S' N1 '
p1691
sg45
S' '
p1692
sg47
g24
sg48
I20
sg49
I1
sg25
I20
sg50
F0.0
sg26
S'A'
p1693
sg52
(lp1694
sg54
(lp1695
sg56
(lp1696
sg58
I0
sg59
g24
sg60
F0.0
sg61
F0.0
sg62
S'N'
p1697
sg64
g1322
sg29
S'A'
p1698
sg66
F0.0
sg67
(lp1699
sg69
F0.0
sg70
I0
sg71
g24
sg9
S'N1'
p1700
sg73
F0.0
sg74
(lp1701
sg76
g24
sg77
g24
sg78
F0.0
sg79
S'ATOM  '
p1702
sg81
S' '
p1703
sg83
g24
sg84
(lp1704
I0
aI0
aI0
asg31
S'DG'
p1705
sg86
(lp1706
F-0.299
aF0.354
aF-15.087
asg33
g1311
sg88
F1.0
sba(ipmx.atom
Atom
p1707
(dp1708
g38
(lp1709
sg40
I0
sg22
g1319
sg41
F0.0
sg42
g24
sg43
S' H1 '
p1710
sg45
S' '
p1711
sg47
g24
sg48
I21
sg49
I1
sg25
I21
sg50
F0.0
sg26
S'A'
p1712
sg52
(lp1713
sg54
(lp1714
sg56
(lp1715
sg58
I0
sg59
g24
sg60
F0.0
sg61
F0.0
sg62
S'H'
p1716
sg64
g1322
sg29
S'A'
p1717
sg66
F0.0
sg67
(lp1718
sg69
F0.0
sg70
I0
sg71
g24
sg9
S'H1'
p1719
sg73
F0.0
sg74
(lp1720
sg76
g24
sg77
g24
sg78
F0.0
sg79
S'ATOM  '
p1721
sg81
S' '
p1722
sg83
g24
sg84
(lp1723
I0
aI0
aI0
asg31
S'DG'
p1724
sg86
(lp1725
F0.468
aF-0.3
aF-15.081
asg33
g1311
sg88
F1.0
sba(ipmx.atom
Atom
p1726
(dp1727
g38
(lp1728
sg40
I0
sg22
g1319
sg41
F0.0
sg42
g24
sg43
S' C2 '
p1729
sg45
S' '
p1730
sg47
g24
sg48
I22
sg49
I1
sg25
I22
sg50
F0.0
sg26
S'A'
p1731
sg52
(lp1732
sg54
(lp1733
sg56
(lp1734
sg58
I0
sg59
g24
sg60
F0.0
sg61
F0.0
sg62
S'C'
p1735
sg64
g1322
sg29
S'A'
p1736
sg66
F0.0
sg67
(lp1737
sg69
F0.0
sg70
I0
sg71
g24
sg9
S'C2'
p1738
sg73
F0.0
sg74
(lp1739
sg76
g24
sg77
g24
sg78
F0.0
sg79
S'ATOM  '
p1740
sg81
S' '
p1741
sg83
g24
sg84
(lp1742
I0
aI0
aI0
asg31
S'DG'
p1743
sg86
(lp1744
F-0.021
aF1.681
aF-15.095
asg33
g1311
sg88
F1.0
sba(ipmx.atom
Atom
p1745
(dp1746
g38
(lp1747
sg40
I0
sg22
g1319
sg41
F0.0
sg42
g24
sg43
S' N2 '
p1748
sg45
S' '
p1749
sg47
g24
sg48
I23
sg49
I1
sg25
I23
sg50
F0.0
sg26
S'A'
p1750
sg52
(lp1751
sg54
(lp1752
sg56
(lp1753
sg58
I0
sg59
g24
sg60
F0.0
sg61
F0.0
sg62
S'N'
p1754
sg64
g1322
sg29
S'A'
p1755
sg66
F0.0
sg67
(lp1756
sg69
F0.0
sg70
I0
sg71
g24
sg9
S'N2'
p1757
sg73
F0.0
sg74
(lp1758
sg76
g24
sg77
g24
sg78
F0.0
sg79
S'ATOM  '
p1759
sg81
S' '
p1760
sg83
g24
sg84
(lp1761
I0
aI0
aI0
asg31
S'DG'
p1762
sg86
(lp1763
F1.247
aF2.012
aF-15.09
asg33
g1311
sg88
F1.0
sba(ipmx.atom
Atom
p1764
(dp1765
g38
(lp1766
sg40
I0
sg22
g1319
sg41
F0.0
sg42
g24
sg43
S' H21'
p1767
sg45
S' '
p1768
sg47
g24
sg48
I24
sg49
I1
sg25
I24
sg50
F0.0
sg26
S'A'
p1769
sg52
(lp1770
sg54
(lp1771
sg56
(lp1772
sg58
I0
sg59
g24
sg60
F0.0
sg61
F0.0
sg62
S'H'
p1773
sg64
g1322
sg29
S'A'
p1774
sg66
F0.0
sg67
(lp1775
sg69
F0.0
sg70
I0
sg71
g24
sg9
S'H21'
p1776
sg73
F0.0
sg74
(lp1777
sg76
g24
sg77
g24
sg78
F0.0
sg79
S'ATOM  '
p1778
sg81
S' '
p1779
sg83
g24
sg84
(lp1780
I0
aI0
aI0
asg31
S'DG'
p1781
sg86
(lp1782
F1.482
aF2.989
aF-15.104
asg33
g1311
sg88
F1.0
sba(ipmx.atom
Atom
p1783
(dp1784
g38
(lp1785
sg40
I0
sg22
g1319
sg41
F0.0
sg42
g24
sg43
S' H22'
p1786
sg45
S' '
p1787
sg47
g24
sg48
I25
sg49
I1
sg25
I25
sg50
F0.0
sg26
S'A'
p1788
sg52
(lp1789
sg54
(lp1790
sg56
(lp1791
sg58
I0
sg59
g24
sg60
F0.0
sg61
F0.0
sg62
S'H'
p1792
sg64
g1322
sg29
S'A'
p1793
sg66
F0.0
sg67
(lp1794
sg69
F0.0
sg70
I0
sg71
g24
sg9
S'H22'
p1795
sg73
F0.0
sg74
(lp1796
sg76
g24
sg77
g24
sg78
F0.0
sg79
S'ATOM  '
p1797
sg81
S' '
p1798
sg83
g24
sg84
(lp1799
I0
aI0
aI0
asg31
S'DG'
p1800
sg86
(lp1801
F1.973
aF1.296
aF-15.084
asg33
g1311
sg88
F1.0
sba(ipmx.atom
Atom
p1802
(dp1803
g38
(lp1804
sg40
I0
sg22
g1319
sg41
F0.0
sg42
g24
sg43
S' N3 '
p1805
sg45
S' '
p1806
sg47
g24
sg48
I26
sg49
I1
sg25
I26
sg50
F0.0
sg26
S'A'
p1807
sg52
(lp1808
sg54
(lp1809
sg56
(lp1810
sg58
I0
sg59
g24
sg60
F0.0
sg61
F0.0
sg62
S'N'
p1811
sg64
g1322
sg29
S'A'
p1812
sg66
F0.0
sg67
(lp1813
sg69
F0.0
sg70
I0
sg71
g24
sg9
S'N3'
p1814
sg73
F0.0
sg74
(lp1815
sg76
g24
sg77
g24
sg78
F0.0
sg79
S'ATOM  '
p1816
sg81
S' '
p1817
sg83
g24
sg84
(lp1818
I0
aI0
aI0
asg31
S'DG'
p1819
sg86
(lp1820
F-0.94
aF2.641
aF-15.097
asg33
g1311
sg88
F1.0
sba(ipmx.atom
Atom
p1821
(dp1822
g38
(lp1823
sg40
I0
sg22
g1319
sg41
F0.0
sg42
g24
sg43
S' C4 '
p1824
sg45
S' '
p1825
sg47
g24
sg48
I27
sg49
I1
sg25
I27
sg50
F0.0
sg26
S'A'
p1826
sg52
(lp1827
sg54
(lp1828
sg56
(lp1829
sg58
I0
sg59
g24
sg60
F0.0
sg61
F0.0
sg62
S'C'
p1830
sg64
g1322
sg29
S'A'
p1831
sg66
F0.0
sg67
(lp1832
sg69
F0.0
sg70
I0
sg71
g24
sg9
S'C4'
p1833
sg73
F0.0
sg74
(lp1834
sg76
g24
sg77
g24
sg78
F0.0
sg79
S'ATOM  '
p1835
sg81
S' '
p1836
sg83
g24
sg84
(lp1837
I0
aI0
aI0
asg31
S'DG'
p1838
sg86
(lp1839
F-2.221
aF2.152
aF-15.082
asg33
g1311
sg88
F1.0
sba(ipmx.atom
Atom
p1840
(dp1841
g38
(lp1842
sg40
I0
sg22
g1319
sg41
F0.0
sg42
g24
sg43
S" C3'"
p1843
sg45
S' '
p1844
sg47
g24
sg48
I28
sg49
I1
sg25
I28
sg50
F0.0
sg26
S'A'
p1845
sg52
(lp1846
sg54
(lp1847
sg56
(lp1848
sg58
I0
sg59
g24
sg60
F0.0
sg61
F0.0
sg62
S'C'
p1849
sg64
g1322
sg29
S'A'
p1850
sg66
F0.0
sg67
(lp1851
sg69
F0.0
sg70
I0
sg71
g24
sg9
S"C3'"
p1852
sg73
F0.0
sg74
(lp1853
sg76
g24
sg77
g24
sg78
F0.0
sg79
S'ATOM  '
p1854
sg81
S' '
p1855
sg83
g24
sg84
(lp1856
I0
aI0
aI0
asg31
S'DG'
p1857
sg86
(lp1858
F-5.086
aF6.165
aF-15.2
asg33
g1311
sg88
F1.0
sba(ipmx.atom
Atom
p1859
(dp1860
g38
(lp1861
sg40
I0
sg22
g1319
sg41
F0.0
sg42
g24
sg43
S" H3'"
p1862
sg45
S' '
p1863
sg47
g24
sg48
I29
sg49
I1
sg25
I29
sg50
F0.0
sg26
S'A'
p1864
sg52
(lp1865
sg54
(lp1866
sg56
(lp1867
sg58
I0
sg59
g24
sg60
F0.0
sg61
F0.0
sg62
S'H'
p1868
sg64
g1322
sg29
S'A'
p1869
sg66
F0.0
sg67
(lp1870
sg69
F0.0
sg70
I0
sg71
g24
sg9
S"H3'"
p1871
sg73
F0.0
sg74
(lp1872
sg76
g24
sg77
g24
sg78
F0.0
sg79
S'ATOM  '
p1873
sg81
S' '
p1874
sg83
g24
sg84
(lp1875
I0
aI0
aI0
asg31
S'DG'
p1876
sg86
(lp1877
F-6.155
aF6.304
aF-15.328
asg33
g1311
sg88
F1.0
sba(ipmx.atom
Atom
p1878
(dp1879
g38
(lp1880
sg40
I0
sg22
g1319
sg41
F0.0
sg42
g24
sg43
S" C2'"
p1881
sg45
S' '
p1882
sg47
g24
sg48
I30
sg49
I1
sg25
I30
sg50
F0.0
sg26
S'A'
p1883
sg52
(lp1884
sg54
(lp1885
sg56
(lp1886
sg58
I0
sg59
g24
sg60
F0.0
sg61
F0.0
sg62
S'C'
p1887
sg64
g1322
sg29
S'A'
p1888
sg66
F0.0
sg67
(lp1889
sg69
F0.0
sg70
I0
sg71
g24
sg9
S"C2'"
p1890
sg73
F0.0
sg74
(lp1891
sg76
g24
sg77
g24
sg78
F0.0
sg79
S'ATOM  '
p1892
sg81
S' '
p1893
sg83
g24
sg84
(lp1894
I0
aI0
aI0
asg31
S'DG'
p1895
sg86
(lp1896
F-4.613
aF4.904
aF-15.927
asg33
g1311
sg88
F1.0
sba(ipmx.atom
Atom
p1897
(dp1898
g38
(lp1899
sg40
I0
sg22
g1319
sg41
F0.0
sg42
g24
sg43
S"1H2'"
p1900
sg45
S' '
p1901
sg47
g24
sg48
I31
sg49
I1
sg25
I31
sg50
F0.0
sg26
S'A'
p1902
sg52
(lp1903
sg54
(lp1904
sg56
(lp1905
sg58
I0
sg59
g24
sg60
F0.0
sg61
F0.0
sg62
S'H'
p1906
sg64
g1322
sg29
S'A'
p1907
sg66
F0.0
sg67
(lp1908
sg69
F0.0
sg70
I0
sg71
g24
sg9
S"H2'1"
p1909
sg73
F0.0
sg74
(lp1910
sg76
g24
sg77
g24
sg78
F0.0
sg79
S'ATOM  '
p1911
sg81
S' '
p1912
sg83
g24
sg84
(lp1913
I0
aI0
aI0
asg31
S'DG'
p1914
sg86
(lp1915
F-5.432
aF4.196
aF-16.028
asg33
g1311
sg88
F1.0
sba(ipmx.atom
Atom
p1916
(dp1917
g38
(lp1918
sg40
I0
sg22
g1319
sg41
F0.0
sg42
g24
sg43
S"2H2'"
p1919
sg45
S' '
p1920
sg47
g24
sg48
I32
sg49
I1
sg25
I32
sg50
F0.0
sg26
S'A'
p1921
sg52
(lp1922
sg54
(lp1923
sg56
(lp1924
sg58
I0
sg59
g24
sg60
F0.0
sg61
F0.0
sg62
S'H'
p1925
sg64
g1322
sg29
S'A'
p1926
sg66
F0.0
sg67
(lp1927
sg69
F0.0
sg70
I0
sg71
g24
sg9
S"H2'2"
p1928
sg73
F0.0
sg74
(lp1929
sg76
g24
sg77
g24
sg78
F0.0
sg79
S'ATOM  '
p1930
sg81
S' '
p1931
sg83
g24
sg84
(lp1932
I0
aI0
aI0
asg31
S'DG'
p1933
sg86
(lp1934
F-4.274
aF5.113
aF-16.92
asg33
g1311
sg88
F1.0
sba(ipmx.atom
Atom
p1935
(dp1936
g38
(lp1937
sg40
I0
sg22
g1319
sg41
F0.0
sg42
g24
sg43
S" O3'"
p1938
sg45
S' '
p1939
sg47
g24
sg48
I33
sg49
I1
sg25
I33
sg50
F0.0
sg26
S'A'
p1940
sg52
(lp1941
sg54
(lp1942
sg56
(lp1943
sg58
I0
sg59
g24
sg60
F0.0
sg61
F0.0
sg62
S'O'
p1944
sg64
g1322
sg29
S'A'
p1945
sg66
F0.0
sg67
(lp1946
sg69
F0.0
sg70
I0
sg71
g24
sg9
S"O3'"
p1947
sg73
F0.0
sg74
(lp1948
sg76
g24
sg77
g24
sg78
F0.0
sg79
S'ATOM  '
p1949
sg81
S' '
p1950
sg83
g24
sg84
(lp1951
I0
aI0
aI0
asg31
S'DG'
p1952
sg86
(lp1953
F-4.475
aF7.395
aF-15.64
asg33
g1311
sg88
F1.0
sbasg48
I1
sg678
Nsbasg34
(lp1954
g1328
ag1346
ag1365
ag1384
ag1403
ag1422
ag1441
ag1460
ag1479
ag1498
ag1517
ag1536
ag1555
ag1574
ag1593
ag1612
ag1631
ag1650
ag1669
ag1688
ag1707
ag1726
ag1745
ag1764
ag1783
ag1802
ag1821
ag1840
ag1859
ag1878
ag1897
ag1916
ag1935
asg680
I0
sg29
S'A'
p1955
sg33
g1311
sg682
I00
sg48
S'A'
p1956
sbsS'B'
p1957
(ipmx.chain
Chain
p1958
(dp1959
g17
(lp1960
(ipmx.molecule
Molecule
p1961
(dp1962
g21
I0
sg22
g1958
sg23
g24
sg25
I2
sg26
S'B'
p1963
sg28
Nsg29
S'A'
p1964
sg31
S'DC'
p1965
sg33
g1311
sg34
(lp1966
(ipmx.atom
Atom
p1967
(dp1968
g38
(lp1969
sg40
I0
sg22
g1958
sg41
F0.0
sg42
g24
sg43
S' P  '
p1970
sg45
S' '
p1971
sg47
g24
sg48
I34
sg49
I2
sg25
I34
sg50
F0.0
sg26
S'B'
p1972
sg52
(lp1973
sg54
(lp1974
sg56
(lp1975
sg58
I0
sg59
g24
sg60
F0.0
sg61
F0.0
sg62
S'P'
p1976
sg64
g1961
sg29
S'A'
p1977
sg66
F0.0
sg67
(lp1978
sg69
F0.0
sg70
I0
sg71
g24
sg9
S'P'
p1979
sg73
F0.0
sg74
(lp1980
sg76
g24
sg77
g24
sg78
F0.0
sg79
S'ATOM  '
p1981
sg81
S' '
p1982
sg83
g24
sg84
(lp1983
I0
aI0
aI0
asg31
g1965
sg86
(lp1984
F6.688
aF-6.31
aF-16.322
asg33
g1311
sg88
F1.0
sba(ipmx.atom
Atom
p1985
(dp1986
g38
(lp1987
sg40
I0
sg22
g1958
sg41
F0.0
sg42
g24
sg43
S' O1P'
p1988
sg45
S' '
p1989
sg47
g24
sg48
I35
sg49
I2
sg25
I35
sg50
F0.0
sg26
S'B'
p1990
sg52
(lp1991
sg54
(lp1992
sg56
(lp1993
sg58
I0
sg59
g24
sg60
F0.0
sg61
F0.0
sg62
S'O'
p1994
sg64
g1961
sg29
S'A'
p1995
sg66
F0.0
sg67
(lp1996
sg69
F0.0
sg70
I0
sg71
g24
sg9
S'O1P'
p1997
sg73
F0.0
sg74
(lp1998
sg76
g24
sg77
g24
sg78
F0.0
sg79
S'ATOM  '
p1999
sg81
S' '
p2000
sg83
g24
sg84
(lp2001
I0
aI0
aI0
asg31
S'DC'
p2002
sg86
(lp2003
F8.172
aF-6.501
aF-16.233
asg33
g1311
sg88
F1.0
sba(ipmx.atom
Atom
p2004
(dp2005
g38
(lp2006
sg40
I0
sg22
g1958
sg41
F0.0
sg42
g24
sg43
S' O2P'
p2007
sg45
S' '
p2008
sg47
g24
sg48
I36
sg49
I2
sg25
I36
sg50
F0.0
sg26
S'B'
p2009
sg52
(lp2010
sg54
(lp2011
sg56
(lp2012
sg58
I0
sg59
g24
sg60
F0.0
sg61
F0.0
sg62
S'O'
p2013
sg64
g1961
sg29
S'A'
p2014
sg66
F0.0
sg67
(lp2015
sg69
F0.0
sg70
I0
sg71
g24
sg9
S'O2P'
p2016
sg73
F0.0
sg74
(lp2017
sg76
g24
sg77
g24
sg78
F0.0
sg79
S'ATOM  '
p2018
sg81
S' '
p2019
sg83
g24
sg84
(lp2020
I0
aI0
aI0
asg31
S'DC'
p2021
sg86
(lp2022
F5.784
aF-7.078
aF-15.474
asg33
g1311
sg88
F1.0
sba(ipmx.atom
Atom
p2023
(dp2024
g38
(lp2025
sg40
I0
sg22
g1958
sg41
F0.0
sg42
g24
sg43
S" O5'"
p2026
sg45
S' '
p2027
sg47
g24
sg48
I37
sg49
I2
sg25
I37
sg50
F0.0
sg26
S'B'
p2028
sg52
(lp2029
sg54
(lp2030
sg56
(lp2031
sg58
I0
sg59
g24
sg60
F0.0
sg61
F0.0
sg62
S'O'
p2032
sg64
g1961
sg29
S'A'
p2033
sg66
F0.0
sg67
(lp2034
sg69
F0.0
sg70
I0
sg71
g24
sg9
S"O5'"
p2035
sg73
F0.0
sg74
(lp2036
sg76
g24
sg77
g24
sg78
F0.0
sg79
S'ATOM  '
p2037
sg81
S' '
p2038
sg83
g24
sg84
(lp2039
I0
aI0
aI0
asg31
S'DC'
p2040
sg86
(lp2041
F6.457
aF-4.751
aF-16.121
asg33
g1311
sg88
F1.0
sba(ipmx.atom
Atom
p2042
(dp2043
g38
(lp2044
sg40
I0
sg22
g1958
sg41
F0.0
sg42
g24
sg43
S" C5'"
p2045
sg45
S' '
p2046
sg47
g24
sg48
I38
sg49
I2
sg25
I38
sg50
F0.0
sg26
S'B'
p2047
sg52
(lp2048
sg54
(lp2049
sg56
(lp2050
sg58
I0
sg59
g24
sg60
F0.0
sg61
F0.0
sg62
S'C'
p2051
sg64
g1961
sg29
S'A'
p2052
sg66
F0.0
sg67
(lp2053
sg69
F0.0
sg70
I0
sg71
g24
sg9
S"C5'"
p2054
sg73
F0.0
sg74
(lp2055
sg76
g24
sg77
g24
sg78
F0.0
sg79
S'ATOM  '
p2056
sg81
S' '
p2057
sg83
g24
sg84
(lp2058
I0
aI0
aI0
asg31
S'DC'
p2059
sg86
(lp2060
F7.029
aF-3.777
aF-16.983
asg33
g1311
sg88
F1.0
sba(ipmx.atom
Atom
p2061
(dp2062
g38
(lp2063
sg40
I0
sg22
g1958
sg41
F0.0
sg42
g24
sg43
S"1H5'"
p2064
sg45
S' '
p2065
sg47
g24
sg48
I39
sg49
I2
sg25
I39
sg50
F0.0
sg26
S'B'
p2066
sg52
(lp2067
sg54
(lp2068
sg56
(lp2069
sg58
I0
sg59
g24
sg60
F0.0
sg61
F0.0
sg62
S'H'
p2070
sg64
g1961
sg29
S'A'
p2071
sg66
F0.0
sg67
(lp2072
sg69
F0.0
sg70
I0
sg71
g24
sg9
S"H5'1"
p2073
sg73
F0.0
sg74
(lp2074
sg76
g24
sg77
g24
sg78
F0.0
sg79
S'ATOM  '
p2075
sg81
S' '
p2076
sg83
g24
sg84
(lp2077
I0
aI0
aI0
asg31
S'DC'
p2078
sg86
(lp2079
F7.976
aF-4.151
aF-17.379
asg33
g1311
sg88
F1.0
sba(ipmx.atom
Atom
p2080
(dp2081
g38
(lp2082
sg40
I0
sg22
g1958
sg41
F0.0
sg42
g24
sg43
S"2H5'"
p2083
sg45
S' '
p2084
sg47
g24
sg48
I40
sg49
I2
sg25
I40
sg50
F0.0
sg26
S'B'
p2085
sg52
(lp2086
sg54
(lp2087
sg56
(lp2088
sg58
I0
sg59
g24
sg60
F0.0
sg61
F0.0
sg62
S'H'
p2089
sg64
g1961
sg29
S'A'
p2090
sg66
F0.0
sg67
(lp2091
sg69
F0.0
sg70
I0
sg71
g24
sg9
S"H5'2"
p2092
sg73
F0.0
sg74
(lp2093
sg76
g24
sg77
g24
sg78
F0.0
sg79
S'ATOM  '
p2094
sg81
S' '
p2095
sg83
g24
sg84
(lp2096
I0
aI0
aI0
asg31
S'DC'
p2097
sg86
(lp2098
F6.37
aF-3.612
aF-17.84
asg33
g1311
sg88
F1.0
sba(ipmx.atom
Atom
p2099
(dp2100
g38
(lp2101
sg40
I0
sg22
g1958
sg41
F0.0
sg42
g24
sg43
S" C4'"
p2102
sg45
S' '
p2103
sg47
g24
sg48
I41
sg49
I2
sg25
I41
sg50
F0.0
sg26
S'B'
p2104
sg52
(lp2105
sg54
(lp2106
sg56
(lp2107
sg58
I0
sg59
g24
sg60
F0.0
sg61
F0.0
sg62
S'C'
p2108
sg64
g1961
sg29
S'A'
p2109
sg66
F0.0
sg67
(lp2110
sg69
F0.0
sg70
I0
sg71
g24
sg9
S"C4'"
p2111
sg73
F0.0
sg74
(lp2112
sg76
g24
sg77
g24
sg78
F0.0
sg79
S'ATOM  '
p2113
sg81
S' '
p2114
sg83
g24
sg84
(lp2115
I0
aI0
aI0
asg31
S'DC'
p2116
sg86
(lp2117
F7.279
aF-2.435
aF-16.269
asg33
g1311
sg88
F1.0
sba(ipmx.atom
Atom
p2118
(dp2119
g38
(lp2120
sg40
I0
sg22
g1958
sg41
F0.0
sg42
g24
sg43
S" H4'"
p2121
sg45
S' '
p2122
sg47
g24
sg48
I42
sg49
I2
sg25
I42
sg50
F0.0
sg26
S'B'
p2123
sg52
(lp2124
sg54
(lp2125
sg56
(lp2126
sg58
I0
sg59
g24
sg60
F0.0
sg61
F0.0
sg62
S'H'
p2127
sg64
g1961
sg29
S'A'
p2128
sg66
F0.0
sg67
(lp2129
sg69
F0.0
sg70
I0
sg71
g24
sg9
S"H4'"
p2130
sg73
F0.0
sg74
(lp2131
sg76
g24
sg77
g24
sg78
F0.0
sg79
S'ATOM  '
p2132
sg81
S' '
p2133
sg83
g24
sg84
(lp2134
I0
aI0
aI0
asg31
S'DC'
p2135
sg86
(lp2136
F8.022
aF-1.889
aF-16.846
asg33
g1311
sg88
F1.0
sba(ipmx.atom
Atom
p2137
(dp2138
g38
(lp2139
sg40
I0
sg22
g1958
sg41
F0.0
sg42
g24
sg43
S" O4'"
p2140
sg45
S' '
p2141
sg47
g24
sg48
I43
sg49
I2
sg25
I43
sg50
F0.0
sg26
S'B'
p2142
sg52
(lp2143
sg54
(lp2144
sg56
(lp2145
sg58
I0
sg59
g24
sg60
F0.0
sg61
F0.0
sg62
S'O'
p2146
sg64
g1961
sg29
S'A'
p2147
sg66
F0.0
sg67
(lp2148
sg69
F0.0
sg70
I0
sg71
g24
sg9
S"O4'"
p2149
sg73
F0.0
sg74
(lp2150
sg76
g24
sg77
g24
sg78
F0.0
sg79
S'ATOM  '
p2151
sg81
S' '
p2152
sg83
g24
sg84
(lp2153
I0
aI0
aI0
asg31
S'DC'
p2154
sg86
(lp2155
F6.06
aF-1.695
aF-16.25
asg33
g1311
sg88
F1.0
sba(ipmx.atom
Atom
p2156
(dp2157
g38
(lp2158
sg40
I0
sg22
g1958
sg41
F0.0
sg42
g24
sg43
S" C1'"
p2159
sg45
S' '
p2160
sg47
g24
sg48
I44
sg49
I2
sg25
I44
sg50
F0.0
sg26
S'B'
p2161
sg52
(lp2162
sg54
(lp2163
sg56
(lp2164
sg58
I0
sg59
g24
sg60
F0.0
sg61
F0.0
sg62
S'C'
p2165
sg64
g1961
sg29
S'A'
p2166
sg66
F0.0
sg67
(lp2167
sg69
F0.0
sg70
I0
sg71
g24
sg9
S"C1'"
p2168
sg73
F0.0
sg74
(lp2169
sg76
g24
sg77
g24
sg78
F0.0
sg79
S'ATOM  '
p2170
sg81
S' '
p2171
sg83
g24
sg84
(lp2172
I0
aI0
aI0
asg31
S'DC'
p2173
sg86
(lp2174
F5.491
aF-1.763
aF-14.95
asg33
g1311
sg88
F1.0
sba(ipmx.atom
Atom
p2175
(dp2176
g38
(lp2177
sg40
I0
sg22
g1958
sg41
F0.0
sg42
g24
sg43
S" H1'"
p2178
sg45
S' '
p2179
sg47
g24
sg48
I45
sg49
I2
sg25
I45
sg50
F0.0
sg26
S'B'
p2180
sg52
(lp2181
sg54
(lp2182
sg56
(lp2183
sg58
I0
sg59
g24
sg60
F0.0
sg61
F0.0
sg62
S'H'
p2184
sg64
g1961
sg29
S'A'
p2185
sg66
F0.0
sg67
(lp2186
sg69
F0.0
sg70
I0
sg71
g24
sg9
S"H1'"
p2187
sg73
F0.0
sg74
(lp2188
sg76
g24
sg77
g24
sg78
F0.0
sg79
S'ATOM  '
p2189
sg81
S' '
p2190
sg83
g24
sg84
(lp2191
I0
aI0
aI0
asg31
S'DC'
p2192
sg86
(lp2193
F5.52
aF-0.76
aF-14.515
asg33
g1311
sg88
F1.0
sba(ipmx.atom
Atom
p2194
(dp2195
g38
(lp2196
sg40
I0
sg22
g1958
sg41
F0.0
sg42
g24
sg43
S' N1 '
p2197
sg45
S' '
p2198
sg47
g24
sg48
I46
sg49
I2
sg25
I46
sg50
F0.0
sg26
S'B'
p2199
sg52
(lp2200
sg54
(lp2201
sg56
(lp2202
sg58
I0
sg59
g24
sg60
F0.0
sg61
F0.0
sg62
S'N'
p2203
sg64
g1961
sg29
S'A'
p2204
sg66
F0.0
sg67
(lp2205
sg69
F0.0
sg70
I0
sg71
g24
sg9
S'N1'
p2206
sg73
F0.0
sg74
(lp2207
sg76
g24
sg77
g24
sg78
F0.0
sg79
S'ATOM  '
p2208
sg81
S' '
p2209
sg83
g24
sg84
(lp2210
I0
aI0
aI0
asg31
S'DC'
p2211
sg86
(lp2212
F4.072
aF-2.226
aF-15.026
asg33
g1311
sg88
F1.0
sba(ipmx.atom
Atom
p2213
(dp2214
g38
(lp2215
sg40
I0
sg22
g1958
sg41
F0.0
sg42
g24
sg43
S' C6 '
p2216
sg45
S' '
p2217
sg47
g24
sg48
I47
sg49
I2
sg25
I47
sg50
F0.0
sg26
S'B'
p2218
sg52
(lp2219
sg54
(lp2220
sg56
(lp2221
sg58
I0
sg59
g24
sg60
F0.0
sg61
F0.0
sg62
S'C'
p2222
sg64
g1961
sg29
S'A'
p2223
sg66
F0.0
sg67
(lp2224
sg69
F0.0
sg70
I0
sg71
g24
sg9
S'C6'
p2225
sg73
F0.0
sg74
(lp2226
sg76
g24
sg77
g24
sg78
F0.0
sg79
S'ATOM  '
p2227
sg81
S' '
p2228
sg83
g24
sg84
(lp2229
I0
aI0
aI0
asg31
S'DC'
p2230
sg86
(lp2231
F3.748
aF-3.556
aF-15.091
asg33
g1311
sg88
F1.0
sba(ipmx.atom
Atom
p2232
(dp2233
g38
(lp2234
sg40
I0
sg22
g1958
sg41
F0.0
sg42
g24
sg43
S' H6 '
p2235
sg45
S' '
p2236
sg47
g24
sg48
I48
sg49
I2
sg25
I48
sg50
F0.0
sg26
S'B'
p2237
sg52
(lp2238
sg54
(lp2239
sg56
(lp2240
sg58
I0
sg59
g24
sg60
F0.0
sg61
F0.0
sg62
S'H'
p2241
sg64
g1961
sg29
S'A'
p2242
sg66
F0.0
sg67
(lp2243
sg69
F0.0
sg70
I0
sg71
g24
sg9
S'H6'
p2244
sg73
F0.0
sg74
(lp2245
sg76
g24
sg77
g24
sg78
F0.0
sg79
S'ATOM  '
p2246
sg81
S' '
p2247
sg83
g24
sg84
(lp2248
I0
aI0
aI0
asg31
S'DC'
p2249
sg86
(lp2250
F4.522
aF-4.298
aF-15.11
asg33
g1311
sg88
F1.0
sba(ipmx.atom
Atom
p2251
(dp2252
g38
(lp2253
sg40
I0
sg22
g1958
sg41
F0.0
sg42
g24
sg43
S' C5 '
p2254
sg45
S' '
p2255
sg47
g24
sg48
I49
sg49
I2
sg25
I49
sg50
F0.0
sg26
S'B'
p2256
sg52
(lp2257
sg54
(lp2258
sg56
(lp2259
sg58
I0
sg59
g24
sg60
F0.0
sg61
F0.0
sg62
S'C'
p2260
sg64
g1961
sg29
S'A'
p2261
sg66
F0.0
sg67
(lp2262
sg69
F0.0
sg70
I0
sg71
g24
sg9
S'C5'
p2263
sg73
F0.0
sg74
(lp2264
sg76
g24
sg77
g24
sg78
F0.0
sg79
S'ATOM  '
p2265
sg81
S' '
p2266
sg83
g24
sg84
(lp2267
I0
aI0
aI0
asg31
S'DC'
p2268
sg86
(lp2269
F2.459
aF-3.96
aF-15.155
asg33
g1311
sg88
F1.0
sba(ipmx.atom
Atom
p2270
(dp2271
g38
(lp2272
sg40
I0
sg22
g1958
sg41
F0.0
sg42
g24
sg43
S' H5 '
p2273
sg45
S' '
p2274
sg47
g24
sg48
I50
sg49
I2
sg25
I50
sg50
F0.0
sg26
S'B'
p2275
sg52
(lp2276
sg54
(lp2277
sg56
(lp2278
sg58
I0
sg59
g24
sg60
F0.0
sg61
F0.0
sg62
S'H'
p2279
sg64
g1961
sg29
S'A'
p2280
sg66
F0.0
sg67
(lp2281
sg69
F0.0
sg70
I0
sg71
g24
sg9
S'H5'
p2282
sg73
F0.0
sg74
(lp2283
sg76
g24
sg77
g24
sg78
F0.0
sg79
S'ATOM  '
p2284
sg81
S' '
p2285
sg83
g24
sg84
(lp2286
I0
aI0
aI0
asg31
S'DC'
p2287
sg86
(lp2288
F2.228
aF-5.01
aF-15.226
asg33
g1311
sg88
F1.0
sba(ipmx.atom
Atom
p2289
(dp2290
g38
(lp2291
sg40
I0
sg22
g1958
sg41
F0.0
sg42
g24
sg43
S' C4 '
p2292
sg45
S' '
p2293
sg47
g24
sg48
I51
sg49
I2
sg25
I51
sg50
F0.0
sg26
S'B'
p2294
sg52
(lp2295
sg54
(lp2296
sg56
(lp2297
sg58
I0
sg59
g24
sg60
F0.0
sg61
F0.0
sg62
S'C'
p2298
sg64
g1961
sg29
S'A'
p2299
sg66
F0.0
sg67
(lp2300
sg69
F0.0
sg70
I0
sg71
g24
sg9
S'C4'
p2301
sg73
F0.0
sg74
(lp2302
sg76
g24
sg77
g24
sg78
F0.0
sg79
S'ATOM  '
p2303
sg81
S' '
p2304
sg83
g24
sg84
(lp2305
I0
aI0
aI0
asg31
S'DC'
p2306
sg86
(lp2307
F1.476
aF-2.956
aF-15.144
asg33
g1311
sg88
F1.0
sba(ipmx.atom
Atom
p2308
(dp2309
g38
(lp2310
sg40
I0
sg22
g1958
sg41
F0.0
sg42
g24
sg43
S' N4 '
p2311
sg45
S' '
p2312
sg47
g24
sg48
I52
sg49
I2
sg25
I52
sg50
F0.0
sg26
S'B'
p2313
sg52
(lp2314
sg54
(lp2315
sg56
(lp2316
sg58
I0
sg59
g24
sg60
F0.0
sg61
F0.0
sg62
S'N'
p2317
sg64
g1961
sg29
S'A'
p2318
sg66
F0.0
sg67
(lp2319
sg69
F0.0
sg70
I0
sg71
g24
sg9
S'N4'
p2320
sg73
F0.0
sg74
(lp2321
sg76
g24
sg77
g24
sg78
F0.0
sg79
S'ATOM  '
p2322
sg81
S' '
p2323
sg83
g24
sg84
(lp2324
I0
aI0
aI0
asg31
S'DC'
p2325
sg86
(lp2326
F0.23
aF-3.308
aF-15.224
asg33
g1311
sg88
F1.0
sba(ipmx.atom
Atom
p2327
(dp2328
g38
(lp2329
sg40
I0
sg22
g1958
sg41
F0.0
sg42
g24
sg43
S' H41'
p2330
sg45
S' '
p2331
sg47
g24
sg48
I53
sg49
I2
sg25
I53
sg50
F0.0
sg26
S'B'
p2332
sg52
(lp2333
sg54
(lp2334
sg56
(lp2335
sg58
I0
sg59
g24
sg60
F0.0
sg61
F0.0
sg62
S'H'
p2336
sg64
g1961
sg29
S'A'
p2337
sg66
F0.0
sg67
(lp2338
sg69
F0.0
sg70
I0
sg71
g24
sg9
S'H41'
p2339
sg73
F0.0
sg74
(lp2340
sg76
g24
sg77
g24
sg78
F0.0
sg79
S'ATOM  '
p2341
sg81
S' '
p2342
sg83
g24
sg84
(lp2343
I0
aI0
aI0
asg31
S'DC'
p2344
sg86
(lp2345
F-0.473
aF-2.579
aF-15.209
asg33
g1311
sg88
F1.0
sba(ipmx.atom
Atom
p2346
(dp2347
g38
(lp2348
sg40
I0
sg22
g1958
sg41
F0.0
sg42
g24
sg43
S' H42'
p2349
sg45
S' '
p2350
sg47
g24
sg48
I54
sg49
I2
sg25
I54
sg50
F0.0
sg26
S'B'
p2351
sg52
(lp2352
sg54
(lp2353
sg56
(lp2354
sg58
I0
sg59
g24
sg60
F0.0
sg61
F0.0
sg62
S'H'
p2355
sg64
g1961
sg29
S'A'
p2356
sg66
F0.0
sg67
(lp2357
sg69
F0.0
sg70
I0
sg71
g24
sg9
S'H42'
p2358
sg73
F0.0
sg74
(lp2359
sg76
g24
sg77
g24
sg78
F0.0
sg79
S'ATOM  '
p2360
sg81
S' '
p2361
sg83
g24
sg84
(lp2362
I0
aI0
aI0
asg31
S'DC'
p2363
sg86
(lp2364
F-0.025
aF-4.264
aF-15.338
asg33
g1311
sg88
F1.0
sba(ipmx.atom
Atom
p2365
(dp2366
g38
(lp2367
sg40
I0
sg22
g1958
sg41
F0.0
sg42
g24
sg43
S' N3 '
p2368
sg45
S' '
p2369
sg47
g24
sg48
I55
sg49
I2
sg25
I55
sg50
F0.0
sg26
S'B'
p2370
sg52
(lp2371
sg54
(lp2372
sg56
(lp2373
sg58
I0
sg59
g24
sg60
F0.0
sg61
F0.0
sg62
S'N'
p2374
sg64
g1961
sg29
S'A'
p2375
sg66
F0.0
sg67
(lp2376
sg69
F0.0
sg70
I0
sg71
g24
sg9
S'N3'
p2377
sg73
F0.0
sg74
(lp2378
sg76
g24
sg77
g24
sg78
F0.0
sg79
S'ATOM  '
p2379
sg81
S' '
p2380
sg83
g24
sg84
(lp2381
I0
aI0
aI0
asg31
S'DC'
p2382
sg86
(lp2383
F1.737
aF-1.668
aF-15.072
asg33
g1311
sg88
F1.0
sba(ipmx.atom
Atom
p2384
(dp2385
g38
(lp2386
sg40
I0
sg22
g1958
sg41
F0.0
sg42
g24
sg43
S' C2 '
p2387
sg45
S' '
p2388
sg47
g24
sg48
I56
sg49
I2
sg25
I56
sg50
F0.0
sg26
S'B'
p2389
sg52
(lp2390
sg54
(lp2391
sg56
(lp2392
sg58
I0
sg59
g24
sg60
F0.0
sg61
F0.0
sg62
S'C'
p2393
sg64
g1961
sg29
S'A'
p2394
sg66
F0.0
sg67
(lp2395
sg69
F0.0
sg70
I0
sg71
g24
sg9
S'C2'
p2396
sg73
F0.0
sg74
(lp2397
sg76
g24
sg77
g24
sg78
F0.0
sg79
S'ATOM  '
p2398
sg81
S' '
p2399
sg83
g24
sg84
(lp2400
I0
aI0
aI0
asg31
S'DC'
p2401
sg86
(lp2402
F3.038
aF-1.283
aF-15.01
asg33
g1311
sg88
F1.0
sba(ipmx.atom
Atom
p2403
(dp2404
g38
(lp2405
sg40
I0
sg22
g1958
sg41
F0.0
sg42
g24
sg43
S' O  '
p2406
sg45
S' '
p2407
sg47
g24
sg48
I57
sg49
I2
sg25
I57
sg50
F0.0
sg26
S'B'
p2408
sg52
(lp2409
sg54
(lp2410
sg56
(lp2411
sg58
I0
sg59
g24
sg60
F0.0
sg61
F0.0
sg62
S'O'
p2412
sg64
g1961
sg29
S'A'
p2413
sg66
F0.0
sg67
(lp2414
sg69
F0.0
sg70
I0
sg71
g24
sg9
g557
sg73
F0.0
sg74
(lp2415
sg76
g24
sg77
g24
sg78
F0.0
sg79
S'ATOM  '
p2416
sg81
S' '
p2417
sg83
g24
sg84
(lp2418
I0
aI0
aI0
asg31
S'DC'
p2419
sg86
(lp2420
F3.253
aF-0.071
aF-14.932
asg33
g1311
sg88
F1.0
sba(ipmx.atom
Atom
p2421
(dp2422
g38
(lp2423
sg40
I0
sg22
g1958
sg41
F0.0
sg42
g24
sg43
S" C3'"
p2424
sg45
S' '
p2425
sg47
g24
sg48
I58
sg49
I2
sg25
I58
sg50
F0.0
sg26
S'B'
p2426
sg52
(lp2427
sg54
(lp2428
sg56
(lp2429
sg58
I0
sg59
g24
sg60
F0.0
sg61
F0.0
sg62
S'C'
p2430
sg64
g1961
sg29
S'A'
p2431
sg66
F0.0
sg67
(lp2432
sg69
F0.0
sg70
I0
sg71
g24
sg9
S"C3'"
p2433
sg73
F0.0
sg74
(lp2434
sg76
g24
sg77
g24
sg78
F0.0
sg79
S'ATOM  '
p2435
sg81
S' '
p2436
sg83
g24
sg84
(lp2437
I0
aI0
aI0
asg31
S'DC'
p2438
sg86
(lp2439
F7.776
aF-2.56
aF-14.811
asg33
g1311
sg88
F1.0
sba(ipmx.atom
Atom
p2440
(dp2441
g38
(lp2442
sg40
I0
sg22
g1958
sg41
F0.0
sg42
g24
sg43
S" H3'"
p2443
sg45
S' '
p2444
sg47
g24
sg48
I59
sg49
I2
sg25
I59
sg50
F0.0
sg26
S'B'
p2445
sg52
(lp2446
sg54
(lp2447
sg56
(lp2448
sg58
I0
sg59
g24
sg60
F0.0
sg61
F0.0
sg62
S'H'
p2449
sg64
g1961
sg29
S'A'
p2450
sg66
F0.0
sg67
(lp2451
sg69
F0.0
sg70
I0
sg71
g24
sg9
S"H3'"
p2452
sg73
F0.0
sg74
(lp2453
sg76
g24
sg77
g24
sg78
F0.0
sg79
S'ATOM  '
p2454
sg81
S' '
p2455
sg83
g24
sg84
(lp2456
I0
aI0
aI0
asg31
S'DC'
p2457
sg86
(lp2458
F8.325
aF-3.488
aF-14.671
asg33
g1311
sg88
F1.0
sba(ipmx.atom
Atom
p2459
(dp2460
g38
(lp2461
sg40
I0
sg22
g1958
sg41
F0.0
sg42
g24
sg43
S" C2'"
p2462
sg45
S' '
p2463
sg47
g24
sg48
I60
sg49
I2
sg25
I60
sg50
F0.0
sg26
S'B'
p2464
sg52
(lp2465
sg54
(lp2466
sg56
(lp2467
sg58
I0
sg59
g24
sg60
F0.0
sg61
F0.0
sg62
S'C'
p2468
sg64
g1961
sg29
S'A'
p2469
sg66
F0.0
sg67
(lp2470
sg69
F0.0
sg70
I0
sg71
g24
sg9
S"C2'"
p2471
sg73
F0.0
sg74
(lp2472
sg76
g24
sg77
g24
sg78
F0.0
sg79
S'ATOM  '
p2473
sg81
S' '
p2474
sg83
g24
sg84
(lp2475
I0
aI0
aI0
asg31
S'DC'
p2476
sg86
(lp2477
F6.422
aF-2.641
aF-14.101
asg33
g1311
sg88
F1.0
sba(ipmx.atom
Atom
p2478
(dp2479
g38
(lp2480
sg40
I0
sg22
g1958
sg41
F0.0
sg42
g24
sg43
S"1H2'"
p2481
sg45
S' '
p2482
sg47
g24
sg48
I61
sg49
I2
sg25
I61
sg50
F0.0
sg26
S'B'
p2483
sg52
(lp2484
sg54
(lp2485
sg56
(lp2486
sg58
I0
sg59
g24
sg60
F0.0
sg61
F0.0
sg62
S'H'
p2487
sg64
g1961
sg29
S'A'
p2488
sg66
F0.0
sg67
(lp2489
sg69
F0.0
sg70
I0
sg71
g24
sg9
S"H2'1"
p2490
sg73
F0.0
sg74
(lp2491
sg76
g24
sg77
g24
sg78
F0.0
sg79
S'ATOM  '
p2492
sg81
S' '
p2493
sg83
g24
sg84
(lp2494
I0
aI0
aI0
asg31
S'DC'
p2495
sg86
(lp2496
F6.099
aF-3.676
aF-14.046
asg33
g1311
sg88
F1.0
sba(ipmx.atom
Atom
p2497
(dp2498
g38
(lp2499
sg40
I0
sg22
g1958
sg41
F0.0
sg42
g24
sg43
S"2H2'"
p2500
sg45
S' '
p2501
sg47
g24
sg48
I62
sg49
I2
sg25
I62
sg50
F0.0
sg26
S'B'
p2502
sg52
(lp2503
sg54
(lp2504
sg56
(lp2505
sg58
I0
sg59
g24
sg60
F0.0
sg61
F0.0
sg62
S'H'
p2506
sg64
g1961
sg29
S'A'
p2507
sg66
F0.0
sg67
(lp2508
sg69
F0.0
sg70
I0
sg71
g24
sg9
S"H2'2"
p2509
sg73
F0.0
sg74
(lp2510
sg76
g24
sg77
g24
sg78
F0.0
sg79
S'ATOM  '
p2511
sg81
S' '
p2512
sg83
g24
sg84
(lp2513
I0
aI0
aI0
asg31
S'DC'
p2514
sg86
(lp2515
F6.461
aF-2.322
aF-13.079
asg33
g1311
sg88
F1.0
sba(ipmx.atom
Atom
p2516
(dp2517
g38
(lp2518
sg40
I0
sg22
g1958
sg41
F0.0
sg42
g24
sg43
S" O3'"
p2519
sg45
S' '
p2520
sg47
g24
sg48
I63
sg49
I2
sg25
I63
sg50
F0.0
sg26
S'B'
p2521
sg52
(lp2522
sg54
(lp2523
sg56
(lp2524
sg58
I0
sg59
g24
sg60
F0.0
sg61
F0.0
sg62
S'O'
p2525
sg64
g1961
sg29
S'A'
p2526
sg66
F0.0
sg67
(lp2527
sg69
F0.0
sg70
I0
sg71
g24
sg9
S"O3'"
p2528
sg73
F0.0
sg74
(lp2529
sg76
g24
sg77
g24
sg78
F0.0
sg79
S'ATOM  '
p2530
sg81
S' '
p2531
sg83
g24
sg84
(lp2532
I0
aI0
aI0
asg31
S'DC'
p2533
sg86
(lp2534
F8.644
aF-1.464
aF-14.459
asg33
g1311
sg88
F1.0
sbasg48
I2
sg678
Nsbasg34
(lp2535
g1967
ag1985
ag2004
ag2023
ag2042
ag2061
ag2080
ag2099
ag2118
ag2137
ag2156
ag2175
ag2194
ag2213
ag2232
ag2251
ag2270
ag2289
ag2308
ag2327
ag2346
ag2365
ag2384
ag2403
ag2421
ag2440
ag2459
ag2478
ag2497
ag2516
asg680
I0
sg29
S'A'
p2536
sg33
g1311
sg682
I00
sg48
S'B'
p2537
sbssg17
(lp2538
g1322
ag1961
asg34
(lp2539
g1328
ag1346
ag1365
ag1384
ag1403
ag1422
ag1441
ag1460
ag1479
ag1498
ag1517
ag1536
ag1555
ag1574
ag1593
ag1612
ag1631
ag1650
ag1669
ag1688
ag1707
ag1726
ag1745
ag1764
ag1783
ag1802
ag1821
ag1840
ag1859
ag1878
ag1897
ag1916
ag1935
ag1967
ag1985
ag2004
ag2023
ag2042
ag2061
ag2080
ag2099
ag2118
ag2137
ag2156
ag2175
ag2194
ag2213
ag2232
ag2251
ag2270
ag2289
ag2308
ag2327
ag2346
ag2365
ag2384
ag2403
ag2421
ag2440
ag2459
ag2478
ag2497
ag2516
asg29
S'A'
p2540
sg1307
(lp2541
g1319
ag1958
asg48
I0
sg1309
I0
sbsS't'
p2542
(ipmx.model
Model
p2543
(dp2544
g4
(lp2545
(lp2546
I0
aI0
aI0
aa(lp2547
I0
aI0
aI0
aa(lp2548
I0
aI0
aI0
aasg9
Nsg10
g11
sg12
(dp2549
S'A'
p2550
(ipmx.chain
Chain
p2551
(dp2552
g17
(lp2553
(ipmx.molecule
Molecule
p2554
(dp2555
g21
I0
sg22
g2551
sg23
g24
sg25
I1
sg26
S'A'
p2556
sg28
Nsg29
S'A'
p2557
sg31
S'DA'
p2558
sg33
g2543
sg34
(lp2559
(ipmx.atom
Atom
p2560
(dp2561
g38
(lp2562
sg40
I0
sg22
g2551
sg41
F0.0
sg42
g24
sg43
S' P  '
p2563
sg45
S' '
p2564
sg47
g24
sg48
I1
sg49
I1
sg25
I1
sg50
F0.0
sg26
S'A'
p2565
sg52
(lp2566
sg54
(lp2567
sg56
(lp2568
sg58
I0
sg59
g24
sg60
F0.0
sg61
F0.0
sg62
S'P'
p2569
sg64
g2554
sg29
S'A'
p2570
sg66
F0.0
sg67
(lp2571
sg69
F0.0
sg70
I0
sg71
g24
sg9
S'P'
p2572
sg73
F0.0
sg74
(lp2573
sg76
g24
sg77
g24
sg78
F0.0
sg79
S'ATOM  '
p2574
sg81
S' '
p2575
sg83
g24
sg84
(lp2576
I0
aI0
aI0
asg31
g2558
sg86
(lp2577
F-8.182
aF3.77
aF-13.833
asg33
g2543
sg88
F1.0
sba(ipmx.atom
Atom
p2578
(dp2579
g38
(lp2580
sg40
I0
sg22
g2551
sg41
F0.0
sg42
g24
sg43
S' O1P'
p2581
sg45
S' '
p2582
sg47
g24
sg48
I2
sg49
I1
sg25
I2
sg50
F0.0
sg26
S'A'
p2583
sg52
(lp2584
sg54
(lp2585
sg56
(lp2586
sg58
I0
sg59
g24
sg60
F0.0
sg61
F0.0
sg62
S'O'
p2587
sg64
g2554
sg29
S'A'
p2588
sg66
F0.0
sg67
(lp2589
sg69
F0.0
sg70
I0
sg71
g24
sg9
S'O1P'
p2590
sg73
F0.0
sg74
(lp2591
sg76
g24
sg77
g24
sg78
F0.0
sg79
S'ATOM  '
p2592
sg81
S' '
p2593
sg83
g24
sg84
(lp2594
I0
aI0
aI0
asg31
S'DA'
p2595
sg86
(lp2596
F-8.881
aF5.069
aF-13.998
asg33
g2543
sg88
F1.0
sba(ipmx.atom
Atom
p2597
(dp2598
g38
(lp2599
sg40
I0
sg22
g2551
sg41
F0.0
sg42
g24
sg43
S' O2P'
p2600
sg45
S' '
p2601
sg47
g24
sg48
I3
sg49
I1
sg25
I3
sg50
F0.0
sg26
S'A'
p2602
sg52
(lp2603
sg54
(lp2604
sg56
(lp2605
sg58
I0
sg59
g24
sg60
F0.0
sg61
F0.0
sg62
S'O'
p2606
sg64
g2554
sg29
S'A'
p2607
sg66
F0.0
sg67
(lp2608
sg69
F0.0
sg70
I0
sg71
g24
sg9
S'O2P'
p2609
sg73
F0.0
sg74
(lp2610
sg76
g24
sg77
g24
sg78
F0.0
sg79
S'ATOM  '
p2611
sg81
S' '
p2612
sg83
g24
sg84
(lp2613
I0
aI0
aI0
asg31
S'DA'
p2614
sg86
(lp2615
F-8.532
aF2.613
aF-14.674
asg33
g2543
sg88
F1.0
sba(ipmx.atom
Atom
p2616
(dp2617
g38
(lp2618
sg40
I0
sg22
g2551
sg41
F0.0
sg42
g24
sg43
S" O5'"
p2619
sg45
S' '
p2620
sg47
g24
sg48
I4
sg49
I1
sg25
I4
sg50
F0.0
sg26
S'A'
p2621
sg52
(lp2622
sg54
(lp2623
sg56
(lp2624
sg58
I0
sg59
g24
sg60
F0.0
sg61
F0.0
sg62
S'O'
p2625
sg64
g2554
sg29
S'A'
p2626
sg66
F0.0
sg67
(lp2627
sg69
F0.0
sg70
I0
sg71
g24
sg9
S"O5'"
p2628
sg73
F0.0
sg74
(lp2629
sg76
g24
sg77
g24
sg78
F0.0
sg79
S'ATOM  '
p2630
sg81
S' '
p2631
sg83
g24
sg84
(lp2632
I0
aI0
aI0
asg31
S'DA'
p2633
sg86
(lp2634
F-6.636
aF4.076
aF-14.015
asg33
g2543
sg88
F1.0
sba(ipmx.atom
Atom
p2635
(dp2636
g38
(lp2637
sg40
I0
sg22
g2551
sg41
F0.0
sg42
g24
sg43
S" C5'"
p2638
sg45
S' '
p2639
sg47
g24
sg48
I5
sg49
I1
sg25
I5
sg50
F0.0
sg26
S'A'
p2640
sg52
(lp2641
sg54
(lp2642
sg56
(lp2643
sg58
I0
sg59
g24
sg60
F0.0
sg61
F0.0
sg62
S'C'
p2644
sg64
g2554
sg29
S'A'
p2645
sg66
F0.0
sg67
(lp2646
sg69
F0.0
sg70
I0
sg71
g24
sg9
S"C5'"
p2647
sg73
F0.0
sg74
(lp2648
sg76
g24
sg77
g24
sg78
F0.0
sg79
S'ATOM  '
p2649
sg81
S' '
p2650
sg83
g24
sg84
(lp2651
I0
aI0
aI0
asg31
S'DA'
p2652
sg86
(lp2653
F-5.967
aF4.933
aF-13.103
asg33
g2543
sg88
F1.0
sba(ipmx.atom
Atom
p2654
(dp2655
g38
(lp2656
sg40
I0
sg22
g2551
sg41
F0.0
sg42
g24
sg43
S"1H5'"
p2657
sg45
S' '
p2658
sg47
g24
sg48
I6
sg49
I1
sg25
I6
sg50
F0.0
sg26
S'A'
p2659
sg52
(lp2660
sg54
(lp2661
sg56
(lp2662
sg58
I0
sg59
g24
sg60
F0.0
sg61
F0.0
sg62
S'H'
p2663
sg64
g2554
sg29
S'A'
p2664
sg66
F0.0
sg67
(lp2665
sg69
F0.0
sg70
I0
sg71
g24
sg9
S"H5'1"
p2666
sg73
F0.0
sg74
(lp2667
sg76
g24
sg77
g24
sg78
F0.0
sg79
S'ATOM  '
p2668
sg81
S' '
p2669
sg83
g24
sg84
(lp2670
I0
aI0
aI0
asg31
S'DA'
p2671
sg86
(lp2672
F-6.688
aF5.642
aF-12.692
asg33
g2543
sg88
F1.0
sba(ipmx.atom
Atom
p2673
(dp2674
g38
(lp2675
sg40
I0
sg22
g2551
sg41
F0.0
sg42
g24
sg43
S"2H5'"
p2676
sg45
S' '
p2677
sg47
g24
sg48
I7
sg49
I1
sg25
I7
sg50
F0.0
sg26
S'A'
p2678
sg52
(lp2679
sg54
(lp2680
sg56
(lp2681
sg58
I0
sg59
g24
sg60
F0.0
sg61
F0.0
sg62
S'H'
p2682
sg64
g2554
sg29
S'A'
p2683
sg66
F0.0
sg67
(lp2684
sg69
F0.0
sg70
I0
sg71
g24
sg9
S"H5'2"
p2685
sg73
F0.0
sg74
(lp2686
sg76
g24
sg77
g24
sg78
F0.0
sg79
S'ATOM  '
p2687
sg81
S' '
p2688
sg83
g24
sg84
(lp2689
I0
aI0
aI0
asg31
S'DA'
p2690
sg86
(lp2691
F-5.608
aF4.334
aF-12.262
asg33
g2543
sg88
F1.0
sba(ipmx.atom
Atom
p2692
(dp2693
g38
(lp2694
sg40
I0
sg22
g2551
sg41
F0.0
sg42
g24
sg43
S" C4'"
p2695
sg45
S' '
p2696
sg47
g24
sg48
I8
sg49
I1
sg25
I8
sg50
F0.0
sg26
S'A'
p2697
sg52
(lp2698
sg54
(lp2699
sg56
(lp2700
sg58
I0
sg59
g24
sg60
F0.0
sg61
F0.0
sg62
S'C'
p2701
sg64
g2554
sg29
S'A'
p2702
sg66
F0.0
sg67
(lp2703
sg69
F0.0
sg70
I0
sg71
g24
sg9
S"C4'"
p2704
sg73
F0.0
sg74
(lp2705
sg76
g24
sg77
g24
sg78
F0.0
sg79
S'ATOM  '
p2706
sg81
S' '
p2707
sg83
g24
sg84
(lp2708
I0
aI0
aI0
asg31
S'DA'
p2709
sg86
(lp2710
F-4.8
aF5.704
aF-13.742
asg33
g2543
sg88
F1.0
sba(ipmx.atom
Atom
p2711
(dp2712
g38
(lp2713
sg40
I0
sg22
g2551
sg41
F0.0
sg42
g24
sg43
S" H4'"
p2714
sg45
S' '
p2715
sg47
g24
sg48
I9
sg49
I1
sg25
I9
sg50
F0.0
sg26
S'A'
p2716
sg52
(lp2717
sg54
(lp2718
sg56
(lp2719
sg58
I0
sg59
g24
sg60
F0.0
sg61
F0.0
sg62
S'H'
p2720
sg64
g2554
sg29
S'A'
p2721
sg66
F0.0
sg67
(lp2722
sg69
F0.0
sg70
I0
sg71
g24
sg9
S"H4'"
p2723
sg73
F0.0
sg74
(lp2724
sg76
g24
sg77
g24
sg78
F0.0
sg79
S'ATOM  '
p2725
sg81
S' '
p2726
sg83
g24
sg84
(lp2727
I0
aI0
aI0
asg31
S'DA'
p2728
sg86
(lp2729
F-4.597
aF6.553
aF-13.093
asg33
g2543
sg88
F1.0
sba(ipmx.atom
Atom
p2730
(dp2731
g38
(lp2732
sg40
I0
sg22
g2551
sg41
F0.0
sg42
g24
sg43
S" O4'"
p2733
sg45
S' '
p2734
sg47
g24
sg48
I10
sg49
I1
sg25
I10
sg50
F0.0
sg26
S'A'
p2735
sg52
(lp2736
sg54
(lp2737
sg56
(lp2738
sg58
I0
sg59
g24
sg60
F0.0
sg61
F0.0
sg62
S'O'
p2739
sg64
g2554
sg29
S'A'
p2740
sg66
F0.0
sg67
(lp2741
sg69
F0.0
sg70
I0
sg71
g24
sg9
S"O4'"
p2742
sg73
F0.0
sg74
(lp2743
sg76
g24
sg77
g24
sg78
F0.0
sg79
S'ATOM  '
p2744
sg81
S' '
p2745
sg83
g24
sg84
(lp2746
I0
aI0
aI0
asg31
S'DA'
p2747
sg86
(lp2748
F-3.668
aF4.836
aF-13.749
asg33
g2543
sg88
F1.0
sba(ipmx.atom
Atom
p2749
(dp2750
g38
(lp2751
sg40
I0
sg22
g2551
sg41
F0.0
sg42
g24
sg43
S" C1'"
p2752
sg45
S' '
p2753
sg47
g24
sg48
I11
sg49
I1
sg25
I11
sg50
F0.0
sg26
S'A'
p2754
sg52
(lp2755
sg54
(lp2756
sg56
(lp2757
sg58
I0
sg59
g24
sg60
F0.0
sg61
F0.0
sg62
S'C'
p2758
sg64
g2554
sg29
S'A'
p2759
sg66
F0.0
sg67
(lp2760
sg69
F0.0
sg70
I0
sg71
g24
sg9
S"C1'"
p2761
sg73
F0.0
sg74
(lp2762
sg76
g24
sg77
g24
sg78
F0.0
sg79
S'ATOM  '
p2763
sg81
S' '
p2764
sg83
g24
sg84
(lp2765
I0
aI0
aI0
asg31
S'DA'
p2766
sg86
(lp2767
F-3.47
aF4.351
aF-15.068
asg33
g2543
sg88
F1.0
sba(ipmx.atom
Atom
p2768
(dp2769
g38
(lp2770
sg40
I0
sg22
g2551
sg41
F0.0
sg42
g24
sg43
S" H1'"
p2771
sg45
S' '
p2772
sg47
g24
sg48
I12
sg49
I1
sg25
I12
sg50
F0.0
sg26
S'A'
p2773
sg52
(lp2774
sg54
(lp2775
sg56
(lp2776
sg58
I0
sg59
g24
sg60
F0.0
sg61
F0.0
sg62
S'H'
p2777
sg64
g2554
sg29
S'A'
p2778
sg66
F0.0
sg67
(lp2779
sg69
F0.0
sg70
I0
sg71
g24
sg9
S"H1'"
p2780
sg73
F0.0
sg74
(lp2781
sg76
g24
sg77
g24
sg78
F0.0
sg79
S'ATOM  '
p2782
sg81
S' '
p2783
sg83
g24
sg84
(lp2784
I0
aI0
aI0
asg31
S'DA'
p2785
sg86
(lp2786
F-2.526
aF4.749
aF-15.446
asg33
g2543
sg88
F1.0
sba(ipmx.atom
Atom
p2787
(dp2788
g38
(lp2789
sg40
I0
sg22
g2551
sg41
F0.0
sg42
g24
sg43
S' N9 '
p2790
sg45
S' '
p2791
sg47
g24
sg48
I13
sg49
I1
sg25
I13
sg50
F0.0
sg26
S'A'
p2792
sg52
(lp2793
sg54
(lp2794
sg56
(lp2795
sg58
I0
sg59
g24
sg60
F0.0
sg61
F0.0
sg62
S'N'
p2796
sg64
g2554
sg29
S'A'
p2797
sg66
F0.0
sg67
(lp2798
sg69
F0.0
sg70
I0
sg71
g24
sg9
S'N9'
p2799
sg73
F0.0
sg74
(lp2800
sg76
g24
sg77
g24
sg78
F0.0
sg79
S'ATOM  '
p2801
sg81
S' '
p2802
sg83
g24
sg84
(lp2803
I0
aI0
aI0
asg31
S'DA'
p2804
sg86
(lp2805
F-3.399
aF2.87
aF-15.07
asg33
g2543
sg88
F1.0
sba(ipmx.atom
Atom
p2806
(dp2807
g38
(lp2808
sg40
I0
sg22
g2551
sg41
F0.0
sg42
g24
sg43
S' C8 '
p2809
sg45
S' '
p2810
sg47
g24
sg48
I14
sg49
I1
sg25
I14
sg50
F0.0
sg26
S'A'
p2811
sg52
(lp2812
sg54
(lp2813
sg56
(lp2814
sg58
I0
sg59
g24
sg60
F0.0
sg61
F0.0
sg62
S'C'
p2815
sg64
g2554
sg29
S'A'
p2816
sg66
F0.0
sg67
(lp2817
sg69
F0.0
sg70
I0
sg71
g24
sg9
S'C8'
p2818
sg73
F0.0
sg74
(lp2819
sg76
g24
sg77
g24
sg78
F0.0
sg79
S'ATOM  '
p2820
sg81
S' '
p2821
sg83
g24
sg84
(lp2822
I0
aI0
aI0
asg31
S'DA'
p2823
sg86
(lp2824
F-4.424
aF1.957
aF-15.105
asg33
g2543
sg88
F1.0
sba(ipmx.atom
Atom
p2825
(dp2826
g38
(lp2827
sg40
I0
sg22
g2551
sg41
F0.0
sg42
g24
sg43
S' H8 '
p2828
sg45
S' '
p2829
sg47
g24
sg48
I15
sg49
I1
sg25
I15
sg50
F0.0
sg26
S'A'
p2830
sg52
(lp2831
sg54
(lp2832
sg56
(lp2833
sg58
I0
sg59
g24
sg60
F0.0
sg61
F0.0
sg62
S'H'
p2834
sg64
g2554
sg29
S'A'
p2835
sg66
F0.0
sg67
(lp2836
sg69
F0.0
sg70
I0
sg71
g24
sg9
S'H8'
p2837
sg73
F0.0
sg74
(lp2838
sg76
g24
sg77
g24
sg78
F0.0
sg79
S'ATOM  '
p2839
sg81
S' '
p2840
sg83
g24
sg84
(lp2841
I0
aI0
aI0
asg31
S'DA'
p2842
sg86
(lp2843
F-5.461
aF2.258
aF-15.124
asg33
g2543
sg88
F1.0
sba(ipmx.atom
Atom
p2844
(dp2845
g38
(lp2846
sg40
I0
sg22
g2551
sg41
F0.0
sg42
g24
sg43
S' N7 '
p2847
sg45
S' '
p2848
sg47
g24
sg48
I16
sg49
I1
sg25
I16
sg50
F0.0
sg26
S'A'
p2849
sg52
(lp2850
sg54
(lp2851
sg56
(lp2852
sg58
I0
sg59
g24
sg60
F0.0
sg61
F0.0
sg62
S'N'
p2853
sg64
g2554
sg29
S'A'
p2854
sg66
F0.0
sg67
(lp2855
sg69
F0.0
sg70
I0
sg71
g24
sg9
S'N7'
p2856
sg73
F0.0
sg74
(lp2857
sg76
g24
sg77
g24
sg78
F0.0
sg79
S'ATOM  '
p2858
sg81
S' '
p2859
sg83
g24
sg84
(lp2860
I0
aI0
aI0
asg31
S'DA'
p2861
sg86
(lp2862
F-4.049
aF0.706
aF-15.105
asg33
g2543
sg88
F1.0
sba(ipmx.atom
Atom
p2863
(dp2864
g38
(lp2865
sg40
I0
sg22
g2551
sg41
F0.0
sg42
g24
sg43
S' C5 '
p2866
sg45
S' '
p2867
sg47
g24
sg48
I17
sg49
I1
sg25
I17
sg50
F0.0
sg26
S'A'
p2868
sg52
(lp2869
sg54
(lp2870
sg56
(lp2871
sg58
I0
sg59
g24
sg60
F0.0
sg61
F0.0
sg62
S'C'
p2872
sg64
g2554
sg29
S'A'
p2873
sg66
F0.0
sg67
(lp2874
sg69
F0.0
sg70
I0
sg71
g24
sg9
S'C5'
p2875
sg73
F0.0
sg74
(lp2876
sg76
g24
sg77
g24
sg78
F0.0
sg79
S'ATOM  '
p2877
sg81
S' '
p2878
sg83
g24
sg84
(lp2879
I0
aI0
aI0
asg31
S'DA'
p2880
sg86
(lp2881
F-2.655
aF0.814
aF-15.088
asg33
g2543
sg88
F1.0
sba(ipmx.atom
Atom
p2882
(dp2883
g38
(lp2884
sg40
I0
sg22
g2551
sg41
F0.0
sg42
g24
sg43
S' C6 '
p2885
sg45
S' '
p2886
sg47
g24
sg48
I18
sg49
I1
sg25
I18
sg50
F0.0
sg26
S'A'
p2887
sg52
(lp2888
sg54
(lp2889
sg56
(lp2890
sg58
I0
sg59
g24
sg60
F0.0
sg61
F0.0
sg62
S'C'
p2891
sg64
g2554
sg29
S'A'
p2892
sg66
F0.0
sg67
(lp2893
sg69
F0.0
sg70
I0
sg71
g24
sg9
S'C6'
p2894
sg73
F0.0
sg74
(lp2895
sg76
g24
sg77
g24
sg78
F0.0
sg79
S'ATOM  '
p2896
sg81
S' '
p2897
sg83
g24
sg84
(lp2898
I0
aI0
aI0
asg31
S'DA'
p2899
sg86
(lp2900
F-1.604
aF-0.123
aF-15.089
asg33
g2543
sg88
F1.0
sba(ipmx.atom
Atom
p2901
(dp2902
g38
(lp2903
sg40
I0
sg22
g2551
sg41
F0.0
sg42
g24
sg43
S' N6 '
p2904
sg45
S' '
p2905
sg47
g24
sg48
I19
sg49
I1
sg25
I19
sg50
F0.0
sg26
S'A'
p2906
sg52
(lp2907
sg54
(lp2908
sg56
(lp2909
sg58
I0
sg59
g24
sg60
F0.0
sg61
F0.0
sg62
S'N'
p2910
sg64
g2554
sg29
S'A'
p2911
sg66
F0.0
sg67
(lp2912
sg69
F0.0
sg70
I0
sg71
g24
sg9
S'N6'
p2913
sg73
F0.0
sg74
(lp2914
sg76
g24
sg77
g24
sg78
F0.0
sg79
S'ATOM  '
p2915
sg81
S' '
p2916
sg83
g24
sg84
(lp2917
I0
aI0
aI0
asg31
S'DA'
p2918
sg86
(lp2919
F-1.815
aF-1.423
aF-15.09
asg33
g2543
sg88
F1.0
sba(ipmx.atom
Atom
p2920
(dp2921
g38
(lp2922
sg40
I0
sg22
g2551
sg41
F0.0
sg42
g24
sg43
S' H61'
p2923
sg45
S' '
p2924
sg47
g24
sg48
I20
sg49
I1
sg25
I20
sg50
F0.0
sg26
S'A'
p2925
sg52
(lp2926
sg54
(lp2927
sg56
(lp2928
sg58
I0
sg59
g24
sg60
F0.0
sg61
F0.0
sg62
S'H'
p2929
sg64
g2554
sg29
S'A'
p2930
sg66
F0.0
sg67
(lp2931
sg69
F0.0
sg70
I0
sg71
g24
sg9
S'H61'
p2932
sg73
F0.0
sg74
(lp2933
sg76
g24
sg77
g24
sg78
F0.0
sg79
S'ATOM  '
p2934
sg81
S' '
p2935
sg83
g24
sg84
(lp2936
I0
aI0
aI0
asg31
S'DA'
p2937
sg86
(lp2938
F-2.765
aF-1.75
aF-15.112
asg33
g2543
sg88
F1.0
sba(ipmx.atom
Atom
p2939
(dp2940
g38
(lp2941
sg40
I0
sg22
g2551
sg41
F0.0
sg42
g24
sg43
S' H62'
p2942
sg45
S' '
p2943
sg47
g24
sg48
I21
sg49
I1
sg25
I21
sg50
F0.0
sg26
S'A'
p2944
sg52
(lp2945
sg54
(lp2946
sg56
(lp2947
sg58
I0
sg59
g24
sg60
F0.0
sg61
F0.0
sg62
S'H'
p2948
sg64
g2554
sg29
S'A'
p2949
sg66
F0.0
sg67
(lp2950
sg69
F0.0
sg70
I0
sg71
g24
sg9
S'H62'
p2951
sg73
F0.0
sg74
(lp2952
sg76
g24
sg77
g24
sg78
F0.0
sg79
S'ATOM  '
p2953
sg81
S' '
p2954
sg83
g24
sg84
(lp2955
I0
aI0
aI0
asg31
S'DA'
p2956
sg86
(lp2957
F-1.036
aF-2.073
aF-15.103
asg33
g2543
sg88
F1.0
sba(ipmx.atom
Atom
p2958
(dp2959
g38
(lp2960
sg40
I0
sg22
g2551
sg41
F0.0
sg42
g24
sg43
S' N1 '
p2961
sg45
S' '
p2962
sg47
g24
sg48
I22
sg49
I1
sg25
I22
sg50
F0.0
sg26
S'A'
p2963
sg52
(lp2964
sg54
(lp2965
sg56
(lp2966
sg58
I0
sg59
g24
sg60
F0.0
sg61
F0.0
sg62
S'N'
p2967
sg64
g2554
sg29
S'A'
p2968
sg66
F0.0
sg67
(lp2969
sg69
F0.0
sg70
I0
sg71
g24
sg9
S'N1'
p2970
sg73
F0.0
sg74
(lp2971
sg76
g24
sg77
g24
sg78
F0.0
sg79
S'ATOM  '
p2972
sg81
S' '
p2973
sg83
g24
sg84
(lp2974
I0
aI0
aI0
asg31
S'DA'
p2975
sg86
(lp2976
F-0.329
aF0.27
aF-15.087
asg33
g2543
sg88
F1.0
sba(ipmx.atom
Atom
p2977
(dp2978
g38
(lp2979
sg40
I0
sg22
g2551
sg41
F0.0
sg42
g24
sg43
S' C2 '
p2980
sg45
S' '
p2981
sg47
g24
sg48
I23
sg49
I1
sg25
I23
sg50
F0.0
sg26
S'A'
p2982
sg52
(lp2983
sg54
(lp2984
sg56
(lp2985
sg58
I0
sg59
g24
sg60
F0.0
sg61
F0.0
sg62
S'C'
p2986
sg64
g2554
sg29
S'A'
p2987
sg66
F0.0
sg67
(lp2988
sg69
F0.0
sg70
I0
sg71
g24
sg9
S'C2'
p2989
sg73
F0.0
sg74
(lp2990
sg76
g24
sg77
g24
sg78
F0.0
sg79
S'ATOM  '
p2991
sg81
S' '
p2992
sg83
g24
sg84
(lp2993
I0
aI0
aI0
asg31
S'DA'
p2994
sg86
(lp2995
F-0.088
aF1.579
aF-15.093
asg33
g2543
sg88
F1.0
sba(ipmx.atom
Atom
p2996
(dp2997
g38
(lp2998
sg40
I0
sg22
g2551
sg41
F0.0
sg42
g24
sg43
S' H2 '
p2999
sg45
S' '
p3000
sg47
g24
sg48
I24
sg49
I1
sg25
I24
sg50
F0.0
sg26
S'A'
p3001
sg52
(lp3002
sg54
(lp3003
sg56
(lp3004
sg58
I0
sg59
g24
sg60
F0.0
sg61
F0.0
sg62
S'H'
p3005
sg64
g2554
sg29
S'A'
p3006
sg66
F0.0
sg67
(lp3007
sg69
F0.0
sg70
I0
sg71
g24
sg9
S'H2'
p3008
sg73
F0.0
sg74
(lp3009
sg76
g24
sg77
g24
sg78
F0.0
sg79
S'ATOM  '
p3010
sg81
S' '
p3011
sg83
g24
sg84
(lp3012
I0
aI0
aI0
asg31
S'DA'
p3013
sg86
(lp3014
F0.951
aF1.878
aF-15.097
asg33
g2543
sg88
F1.0
sba(ipmx.atom
Atom
p3015
(dp3016
g38
(lp3017
sg40
I0
sg22
g2551
sg41
F0.0
sg42
g24
sg43
S' N3 '
p3018
sg45
S' '
p3019
sg47
g24
sg48
I25
sg49
I1
sg25
I25
sg50
F0.0
sg26
S'A'
p3020
sg52
(lp3021
sg54
(lp3022
sg56
(lp3023
sg58
I0
sg59
g24
sg60
F0.0
sg61
F0.0
sg62
S'N'
p3024
sg64
g2554
sg29
S'A'
p3025
sg66
F0.0
sg67
(lp3026
sg69
F0.0
sg70
I0
sg71
g24
sg9
S'N3'
p3027
sg73
F0.0
sg74
(lp3028
sg76
g24
sg77
g24
sg78
F0.0
sg79
S'ATOM  '
p3029
sg81
S' '
p3030
sg83
g24
sg84
(lp3031
I0
aI0
aI0
asg31
S'DA'
p3032
sg86
(lp3033
F-0.966
aF2.572
aF-15.094
asg33
g2543
sg88
F1.0
sba(ipmx.atom
Atom
p3034
(dp3035
g38
(lp3036
sg40
I0
sg22
g2551
sg41
F0.0
sg42
g24
sg43
S' C4 '
p3037
sg45
S' '
p3038
sg47
g24
sg48
I26
sg49
I1
sg25
I26
sg50
F0.0
sg26
S'A'
p3039
sg52
(lp3040
sg54
(lp3041
sg56
(lp3042
sg58
I0
sg59
g24
sg60
F0.0
sg61
F0.0
sg62
S'C'
p3043
sg64
g2554
sg29
S'A'
p3044
sg66
F0.0
sg67
(lp3045
sg69
F0.0
sg70
I0
sg71
g24
sg9
S'C4'
p3046
sg73
F0.0
sg74
(lp3047
sg76
g24
sg77
g24
sg78
F0.0
sg79
S'ATOM  '
p3048
sg81
S' '
p3049
sg83
g24
sg84
(lp3050
I0
aI0
aI0
asg31
S'DA'
p3051
sg86
(lp3052
F-2.248
aF2.12
aF-15.078
asg33
g2543
sg88
F1.0
sba(ipmx.atom
Atom
p3053
(dp3054
g38
(lp3055
sg40
I0
sg22
g2551
sg41
F0.0
sg42
g24
sg43
S" C3'"
p3056
sg45
S' '
p3057
sg47
g24
sg48
I27
sg49
I1
sg25
I27
sg50
F0.0
sg26
S'A'
p3058
sg52
(lp3059
sg54
(lp3060
sg56
(lp3061
sg58
I0
sg59
g24
sg60
F0.0
sg61
F0.0
sg62
S'C'
p3062
sg64
g2554
sg29
S'A'
p3063
sg66
F0.0
sg67
(lp3064
sg69
F0.0
sg70
I0
sg71
g24
sg9
S"C3'"
p3065
sg73
F0.0
sg74
(lp3066
sg76
g24
sg77
g24
sg78
F0.0
sg79
S'ATOM  '
p3067
sg81
S' '
p3068
sg83
g24
sg84
(lp3069
I0
aI0
aI0
asg31
S'DA'
p3070
sg86
(lp3071
F-5.086
aF6.168
aF-15.201
asg33
g2543
sg88
F1.0
sba(ipmx.atom
Atom
p3072
(dp3073
g38
(lp3074
sg40
I0
sg22
g2551
sg41
F0.0
sg42
g24
sg43
S" H3'"
p3075
sg45
S' '
p3076
sg47
g24
sg48
I28
sg49
I1
sg25
I28
sg50
F0.0
sg26
S'A'
p3077
sg52
(lp3078
sg54
(lp3079
sg56
(lp3080
sg58
I0
sg59
g24
sg60
F0.0
sg61
F0.0
sg62
S'H'
p3081
sg64
g2554
sg29
S'A'
p3082
sg66
F0.0
sg67
(lp3083
sg69
F0.0
sg70
I0
sg71
g24
sg9
S"H3'"
p3084
sg73
F0.0
sg74
(lp3085
sg76
g24
sg77
g24
sg78
F0.0
sg79
S'ATOM  '
p3086
sg81
S' '
p3087
sg83
g24
sg84
(lp3088
I0
aI0
aI0
asg31
S'DA'
p3089
sg86
(lp3090
F-6.156
aF6.302
aF-15.33
asg33
g2543
sg88
F1.0
sba(ipmx.atom
Atom
p3091
(dp3092
g38
(lp3093
sg40
I0
sg22
g2551
sg41
F0.0
sg42
g24
sg43
S" C2'"
p3094
sg45
S' '
p3095
sg47
g24
sg48
I29
sg49
I1
sg25
I29
sg50
F0.0
sg26
S'A'
p3096
sg52
(lp3097
sg54
(lp3098
sg56
(lp3099
sg58
I0
sg59
g24
sg60
F0.0
sg61
F0.0
sg62
S'C'
p3100
sg64
g2554
sg29
S'A'
p3101
sg66
F0.0
sg67
(lp3102
sg69
F0.0
sg70
I0
sg71
g24
sg9
S"C2'"
p3103
sg73
F0.0
sg74
(lp3104
sg76
g24
sg77
g24
sg78
F0.0
sg79
S'ATOM  '
p3105
sg81
S' '
p3106
sg83
g24
sg84
(lp3107
I0
aI0
aI0
asg31
S'DA'
p3108
sg86
(lp3109
F-4.61
aF4.907
aF-15.928
asg33
g2543
sg88
F1.0
sba(ipmx.atom
Atom
p3110
(dp3111
g38
(lp3112
sg40
I0
sg22
g2551
sg41
F0.0
sg42
g24
sg43
S"1H2'"
p3113
sg45
S' '
p3114
sg47
g24
sg48
I30
sg49
I1
sg25
I30
sg50
F0.0
sg26
S'A'
p3115
sg52
(lp3116
sg54
(lp3117
sg56
(lp3118
sg58
I0
sg59
g24
sg60
F0.0
sg61
F0.0
sg62
S'H'
p3119
sg64
g2554
sg29
S'A'
p3120
sg66
F0.0
sg67
(lp3121
sg69
F0.0
sg70
I0
sg71
g24
sg9
S"H2'1"
p3122
sg73
F0.0
sg74
(lp3123
sg76
g24
sg77
g24
sg78
F0.0
sg79
S'ATOM  '
p3124
sg81
S' '
p3125
sg83
g24
sg84
(lp3126
I0
aI0
aI0
asg31
S'DA'
p3127
sg86
(lp3128
F-5.43
aF4.202
aF-16.027
asg33
g2543
sg88
F1.0
sba(ipmx.atom
Atom
p3129
(dp3130
g38
(lp3131
sg40
I0
sg22
g2551
sg41
F0.0
sg42
g24
sg43
S"2H2'"
p3132
sg45
S' '
p3133
sg47
g24
sg48
I31
sg49
I1
sg25
I31
sg50
F0.0
sg26
S'A'
p3134
sg52
(lp3135
sg54
(lp3136
sg56
(lp3137
sg58
I0
sg59
g24
sg60
F0.0
sg61
F0.0
sg62
S'H'
p3138
sg64
g2554
sg29
S'A'
p3139
sg66
F0.0
sg67
(lp3140
sg69
F0.0
sg70
I0
sg71
g24
sg9
S"H2'2"
p3141
sg73
F0.0
sg74
(lp3142
sg76
g24
sg77
g24
sg78
F0.0
sg79
S'ATOM  '
p3143
sg81
S' '
p3144
sg83
g24
sg84
(lp3145
I0
aI0
aI0
asg31
S'DA'
p3146
sg86
(lp3147
F-4.275
aF5.118
aF-16.923
asg33
g2543
sg88
F1.0
sba(ipmx.atom
Atom
p3148
(dp3149
g38
(lp3150
sg40
I0
sg22
g2551
sg41
F0.0
sg42
g24
sg43
S" O3'"
p3151
sg45
S' '
p3152
sg47
g24
sg48
I32
sg49
I1
sg25
I32
sg50
F0.0
sg26
S'A'
p3153
sg52
(lp3154
sg54
(lp3155
sg56
(lp3156
sg58
I0
sg59
g24
sg60
F0.0
sg61
F0.0
sg62
S'O'
p3157
sg64
g2554
sg29
S'A'
p3158
sg66
F0.0
sg67
(lp3159
sg69
F0.0
sg70
I0
sg71
g24
sg9
S"O3'"
p3160
sg73
F0.0
sg74
(lp3161
sg76
g24
sg77
g24
sg78
F0.0
sg79
S'ATOM  '
p3162
sg81
S' '
p3163
sg83
g24
sg84
(lp3164
I0
aI0
aI0
asg31
S'DA'
p3165
sg86
(lp3166
F-4.485
aF7.405
aF-15.638
asg33
g2543
sg88
F1.0
sbasg48
I1
sg678
Nsbasg34
(lp3167
g2560
ag2578
ag2597
ag2616
ag2635
ag2654
ag2673
ag2692
ag2711
ag2730
ag2749
ag2768
ag2787
ag2806
ag2825
ag2844
ag2863
ag2882
ag2901
ag2920
ag2939
ag2958
ag2977
ag2996
ag3015
ag3034
ag3053
ag3072
ag3091
ag3110
ag3129
ag3148
asg680
I0
sg29
S'A'
p3168
sg33
g2543
sg682
I00
sg48
S'A'
p3169
sbsS'B'
p3170
(ipmx.chain
Chain
p3171
(dp3172
g17
(lp3173
(ipmx.molecule
Molecule
p3174
(dp3175
g21
I0
sg22
g3171
sg23
g24
sg25
I2
sg26
S'B'
p3176
sg28
Nsg29
S'A'
p3177
sg31
S'DT'
p3178
sg33
g2543
sg34
(lp3179
(ipmx.atom
Atom
p3180
(dp3181
g38
(lp3182
sg40
I0
sg22
g3171
sg41
F0.0
sg42
g24
sg43
S' P  '
p3183
sg45
S' '
p3184
sg47
g24
sg48
I33
sg49
I2
sg25
I33
sg50
F0.0
sg26
S'B'
p3185
sg52
(lp3186
sg54
(lp3187
sg56
(lp3188
sg58
I0
sg59
g24
sg60
F0.0
sg61
F0.0
sg62
S'P'
p3189
sg64
g3174
sg29
S'A'
p3190
sg66
F0.0
sg67
(lp3191
sg69
F0.0
sg70
I0
sg71
g24
sg9
S'P'
p3192
sg73
F0.0
sg74
(lp3193
sg76
g24
sg77
g24
sg78
F0.0
sg79
S'ATOM  '
p3194
sg81
S' '
p3195
sg83
g24
sg84
(lp3196
I0
aI0
aI0
asg31
g3178
sg86
(lp3197
F6.704
aF-6.297
aF-16.329
asg33
g2543
sg88
F1.0
sba(ipmx.atom
Atom
p3198
(dp3199
g38
(lp3200
sg40
I0
sg22
g3171
sg41
F0.0
sg42
g24
sg43
S' O1P'
p3201
sg45
S' '
p3202
sg47
g24
sg48
I34
sg49
I2
sg25
I34
sg50
F0.0
sg26
S'B'
p3203
sg52
(lp3204
sg54
(lp3205
sg56
(lp3206
sg58
I0
sg59
g24
sg60
F0.0
sg61
F0.0
sg62
S'O'
p3207
sg64
g3174
sg29
S'A'
p3208
sg66
F0.0
sg67
(lp3209
sg69
F0.0
sg70
I0
sg71
g24
sg9
S'O1P'
p3210
sg73
F0.0
sg74
(lp3211
sg76
g24
sg77
g24
sg78
F0.0
sg79
S'ATOM  '
p3212
sg81
S' '
p3213
sg83
g24
sg84
(lp3214
I0
aI0
aI0
asg31
S'DT'
p3215
sg86
(lp3216
F8.189
aF-6.476
aF-16.23
asg33
g2543
sg88
F1.0
sba(ipmx.atom
Atom
p3217
(dp3218
g38
(lp3219
sg40
I0
sg22
g3171
sg41
F0.0
sg42
g24
sg43
S' O2P'
p3220
sg45
S' '
p3221
sg47
g24
sg48
I35
sg49
I2
sg25
I35
sg50
F0.0
sg26
S'B'
p3222
sg52
(lp3223
sg54
(lp3224
sg56
(lp3225
sg58
I0
sg59
g24
sg60
F0.0
sg61
F0.0
sg62
S'O'
p3226
sg64
g3174
sg29
S'A'
p3227
sg66
F0.0
sg67
(lp3228
sg69
F0.0
sg70
I0
sg71
g24
sg9
S'O2P'
p3229
sg73
F0.0
sg74
(lp3230
sg76
g24
sg77
g24
sg78
F0.0
sg79
S'ATOM  '
p3231
sg81
S' '
p3232
sg83
g24
sg84
(lp3233
I0
aI0
aI0
asg31
S'DT'
p3234
sg86
(lp3235
F5.808
aF-7.08
aF-15.487
asg33
g2543
sg88
F1.0
sba(ipmx.atom
Atom
p3236
(dp3237
g38
(lp3238
sg40
I0
sg22
g3171
sg41
F0.0
sg42
g24
sg43
S" O5'"
p3239
sg45
S' '
p3240
sg47
g24
sg48
I36
sg49
I2
sg25
I36
sg50
F0.0
sg26
S'B'
p3241
sg52
(lp3242
sg54
(lp3243
sg56
(lp3244
sg58
I0
sg59
g24
sg60
F0.0
sg61
F0.0
sg62
S'O'
p3245
sg64
g3174
sg29
S'A'
p3246
sg66
F0.0
sg67
(lp3247
sg69
F0.0
sg70
I0
sg71
g24
sg9
S"O5'"
p3248
sg73
F0.0
sg74
(lp3249
sg76
g24
sg77
g24
sg78
F0.0
sg79
S'ATOM  '
p3250
sg81
S' '
p3251
sg83
g24
sg84
(lp3252
I0
aI0
aI0
asg31
S'DT'
p3253
sg86
(lp3254
F6.469
aF-4.739
aF-16.118
asg33
g2543
sg88
F1.0
sba(ipmx.atom
Atom
p3255
(dp3256
g38
(lp3257
sg40
I0
sg22
g3171
sg41
F0.0
sg42
g24
sg43
S" C5'"
p3258
sg45
S' '
p3259
sg47
g24
sg48
I37
sg49
I2
sg25
I37
sg50
F0.0
sg26
S'B'
p3260
sg52
(lp3261
sg54
(lp3262
sg56
(lp3263
sg58
I0
sg59
g24
sg60
F0.0
sg61
F0.0
sg62
S'C'
p3264
sg64
g3174
sg29
S'A'
p3265
sg66
F0.0
sg67
(lp3266
sg69
F0.0
sg70
I0
sg71
g24
sg9
S"C5'"
p3267
sg73
F0.0
sg74
(lp3268
sg76
g24
sg77
g24
sg78
F0.0
sg79
S'ATOM  '
p3269
sg81
S' '
p3270
sg83
g24
sg84
(lp3271
I0
aI0
aI0
asg31
S'DT'
p3272
sg86
(lp3273
F7.041
aF-3.765
aF-16.98
asg33
g2543
sg88
F1.0
sba(ipmx.atom
Atom
p3274
(dp3275
g38
(lp3276
sg40
I0
sg22
g3171
sg41
F0.0
sg42
g24
sg43
S"1H5'"
p3277
sg45
S' '
p3278
sg47
g24
sg48
I38
sg49
I2
sg25
I38
sg50
F0.0
sg26
S'B'
p3279
sg52
(lp3280
sg54
(lp3281
sg56
(lp3282
sg58
I0
sg59
g24
sg60
F0.0
sg61
F0.0
sg62
S'H'
p3283
sg64
g3174
sg29
S'A'
p3284
sg66
F0.0
sg67
(lp3285
sg69
F0.0
sg70
I0
sg71
g24
sg9
S"H5'1"
p3286
sg73
F0.0
sg74
(lp3287
sg76
g24
sg77
g24
sg78
F0.0
sg79
S'ATOM  '
p3288
sg81
S' '
p3289
sg83
g24
sg84
(lp3290
I0
aI0
aI0
asg31
S'DT'
p3291
sg86
(lp3292
F7.988
aF-4.141
aF-17.376
asg33
g2543
sg88
F1.0
sba(ipmx.atom
Atom
p3293
(dp3294
g38
(lp3295
sg40
I0
sg22
g3171
sg41
F0.0
sg42
g24
sg43
S"2H5'"
p3296
sg45
S' '
p3297
sg47
g24
sg48
I39
sg49
I2
sg25
I39
sg50
F0.0
sg26
S'B'
p3298
sg52
(lp3299
sg54
(lp3300
sg56
(lp3301
sg58
I0
sg59
g24
sg60
F0.0
sg61
F0.0
sg62
S'H'
p3302
sg64
g3174
sg29
S'A'
p3303
sg66
F0.0
sg67
(lp3304
sg69
F0.0
sg70
I0
sg71
g24
sg9
S"H5'2"
p3305
sg73
F0.0
sg74
(lp3306
sg76
g24
sg77
g24
sg78
F0.0
sg79
S'ATOM  '
p3307
sg81
S' '
p3308
sg83
g24
sg84
(lp3309
I0
aI0
aI0
asg31
S'DT'
p3310
sg86
(lp3311
F6.379
aF-3.603
aF-17.836
asg33
g2543
sg88
F1.0
sba(ipmx.atom
Atom
p3312
(dp3313
g38
(lp3314
sg40
I0
sg22
g3171
sg41
F0.0
sg42
g24
sg43
S" C4'"
p3315
sg45
S' '
p3316
sg47
g24
sg48
I40
sg49
I2
sg25
I40
sg50
F0.0
sg26
S'B'
p3317
sg52
(lp3318
sg54
(lp3319
sg56
(lp3320
sg58
I0
sg59
g24
sg60
F0.0
sg61
F0.0
sg62
S'C'
p3321
sg64
g3174
sg29
S'A'
p3322
sg66
F0.0
sg67
(lp3323
sg69
F0.0
sg70
I0
sg71
g24
sg9
S"C4'"
p3324
sg73
F0.0
sg74
(lp3325
sg76
g24
sg77
g24
sg78
F0.0
sg79
S'ATOM  '
p3326
sg81
S' '
p3327
sg83
g24
sg84
(lp3328
I0
aI0
aI0
asg31
S'DT'
p3329
sg86
(lp3330
F7.294
aF-2.422
aF-16.269
asg33
g2543
sg88
F1.0
sba(ipmx.atom
Atom
p3331
(dp3332
g38
(lp3333
sg40
I0
sg22
g3171
sg41
F0.0
sg42
g24
sg43
S" H4'"
p3334
sg45
S' '
p3335
sg47
g24
sg48
I41
sg49
I2
sg25
I41
sg50
F0.0
sg26
S'B'
p3336
sg52
(lp3337
sg54
(lp3338
sg56
(lp3339
sg58
I0
sg59
g24
sg60
F0.0
sg61
F0.0
sg62
S'H'
p3340
sg64
g3174
sg29
S'A'
p3341
sg66
F0.0
sg67
(lp3342
sg69
F0.0
sg70
I0
sg71
g24
sg9
S"H4'"
p3343
sg73
F0.0
sg74
(lp3344
sg76
g24
sg77
g24
sg78
F0.0
sg79
S'ATOM  '
p3345
sg81
S' '
p3346
sg83
g24
sg84
(lp3347
I0
aI0
aI0
asg31
S'DT'
p3348
sg86
(lp3349
F8.034
aF-1.876
aF-16.847
asg33
g2543
sg88
F1.0
sba(ipmx.atom
Atom
p3350
(dp3351
g38
(lp3352
sg40
I0
sg22
g3171
sg41
F0.0
sg42
g24
sg43
S" O4'"
p3353
sg45
S' '
p3354
sg47
g24
sg48
I42
sg49
I2
sg25
I42
sg50
F0.0
sg26
S'B'
p3355
sg52
(lp3356
sg54
(lp3357
sg56
(lp3358
sg58
I0
sg59
g24
sg60
F0.0
sg61
F0.0
sg62
S'O'
p3359
sg64
g3174
sg29
S'A'
p3360
sg66
F0.0
sg67
(lp3361
sg69
F0.0
sg70
I0
sg71
g24
sg9
S"O4'"
p3362
sg73
F0.0
sg74
(lp3363
sg76
g24
sg77
g24
sg78
F0.0
sg79
S'ATOM  '
p3364
sg81
S' '
p3365
sg83
g24
sg84
(lp3366
I0
aI0
aI0
asg31
S'DT'
p3367
sg86
(lp3368
F6.077
aF-1.681
aF-16.253
asg33
g2543
sg88
F1.0
sba(ipmx.atom
Atom
p3369
(dp3370
g38
(lp3371
sg40
I0
sg22
g3171
sg41
F0.0
sg42
g24
sg43
S" C1'"
p3372
sg45
S' '
p3373
sg47
g24
sg48
I43
sg49
I2
sg25
I43
sg50
F0.0
sg26
S'B'
p3374
sg52
(lp3375
sg54
(lp3376
sg56
(lp3377
sg58
I0
sg59
g24
sg60
F0.0
sg61
F0.0
sg62
S'C'
p3378
sg64
g3174
sg29
S'A'
p3379
sg66
F0.0
sg67
(lp3380
sg69
F0.0
sg70
I0
sg71
g24
sg9
S"C1'"
p3381
sg73
F0.0
sg74
(lp3382
sg76
g24
sg77
g24
sg78
F0.0
sg79
S'ATOM  '
p3383
sg81
S' '
p3384
sg83
g24
sg84
(lp3385
I0
aI0
aI0
asg31
S'DT'
p3386
sg86
(lp3387
F5.51
aF-1.757
aF-14.953
asg33
g2543
sg88
F1.0
sba(ipmx.atom
Atom
p3388
(dp3389
g38
(lp3390
sg40
I0
sg22
g3171
sg41
F0.0
sg42
g24
sg43
S" H1'"
p3391
sg45
S' '
p3392
sg47
g24
sg48
I44
sg49
I2
sg25
I44
sg50
F0.0
sg26
S'B'
p3393
sg52
(lp3394
sg54
(lp3395
sg56
(lp3396
sg58
I0
sg59
g24
sg60
F0.0
sg61
F0.0
sg62
S'H'
p3397
sg64
g3174
sg29
S'A'
p3398
sg66
F0.0
sg67
(lp3399
sg69
F0.0
sg70
I0
sg71
g24
sg9
S"H1'"
p3400
sg73
F0.0
sg74
(lp3401
sg76
g24
sg77
g24
sg78
F0.0
sg79
S'ATOM  '
p3402
sg81
S' '
p3403
sg83
g24
sg84
(lp3404
I0
aI0
aI0
asg31
S'DT'
p3405
sg86
(lp3406
F5.531
aF-0.755
aF-14.514
asg33
g2543
sg88
F1.0
sba(ipmx.atom
Atom
p3407
(dp3408
g38
(lp3409
sg40
I0
sg22
g3171
sg41
F0.0
sg42
g24
sg43
S' N1 '
p3410
sg45
S' '
p3411
sg47
g24
sg48
I45
sg49
I2
sg25
I45
sg50
F0.0
sg26
S'B'
p3412
sg52
(lp3413
sg54
(lp3414
sg56
(lp3415
sg58
I0
sg59
g24
sg60
F0.0
sg61
F0.0
sg62
S'N'
p3416
sg64
g3174
sg29
S'A'
p3417
sg66
F0.0
sg67
(lp3418
sg69
F0.0
sg70
I0
sg71
g24
sg9
S'N1'
p3419
sg73
F0.0
sg74
(lp3420
sg76
g24
sg77
g24
sg78
F0.0
sg79
S'ATOM  '
p3421
sg81
S' '
p3422
sg83
g24
sg84
(lp3423
I0
aI0
aI0
asg31
S'DT'
p3424
sg86
(lp3425
F4.095
aF-2.229
aF-15.043
asg33
g2543
sg88
F1.0
sba(ipmx.atom
Atom
p3426
(dp3427
g38
(lp3428
sg40
I0
sg22
g3171
sg41
F0.0
sg42
g24
sg43
S' C6 '
p3429
sg45
S' '
p3430
sg47
g24
sg48
I46
sg49
I2
sg25
I46
sg50
F0.0
sg26
S'B'
p3431
sg52
(lp3432
sg54
(lp3433
sg56
(lp3434
sg58
I0
sg59
g24
sg60
F0.0
sg61
F0.0
sg62
S'C'
p3435
sg64
g3174
sg29
S'A'
p3436
sg66
F0.0
sg67
(lp3437
sg69
F0.0
sg70
I0
sg71
g24
sg9
S'C6'
p3438
sg73
F0.0
sg74
(lp3439
sg76
g24
sg77
g24
sg78
F0.0
sg79
S'ATOM  '
p3440
sg81
S' '
p3441
sg83
g24
sg84
(lp3442
I0
aI0
aI0
asg31
S'DT'
p3443
sg86
(lp3444
F3.755
aF-3.572
aF-15.098
asg33
g2543
sg88
F1.0
sba(ipmx.atom
Atom
p3445
(dp3446
g38
(lp3447
sg40
I0
sg22
g3171
sg41
F0.0
sg42
g24
sg43
S' H6 '
p3448
sg45
S' '
p3449
sg47
g24
sg48
I47
sg49
I2
sg25
I47
sg50
F0.0
sg26
S'B'
p3450
sg52
(lp3451
sg54
(lp3452
sg56
(lp3453
sg58
I0
sg59
g24
sg60
F0.0
sg61
F0.0
sg62
S'H'
p3454
sg64
g3174
sg29
S'A'
p3455
sg66
F0.0
sg67
(lp3456
sg69
F0.0
sg70
I0
sg71
g24
sg9
S'H6'
p3457
sg73
F0.0
sg74
(lp3458
sg76
g24
sg77
g24
sg78
F0.0
sg79
S'ATOM  '
p3459
sg81
S' '
p3460
sg83
g24
sg84
(lp3461
I0
aI0
aI0
asg31
S'DT'
p3462
sg86
(lp3463
F4.524
aF-4.319
aF-15.095
asg33
g2543
sg88
F1.0
sba(ipmx.atom
Atom
p3464
(dp3465
g38
(lp3466
sg40
I0
sg22
g3171
sg41
F0.0
sg42
g24
sg43
S' C5 '
p3467
sg45
S' '
p3468
sg47
g24
sg48
I48
sg49
I2
sg25
I48
sg50
F0.0
sg26
S'B'
p3469
sg52
(lp3470
sg54
(lp3471
sg56
(lp3472
sg58
I0
sg59
g24
sg60
F0.0
sg61
F0.0
sg62
S'C'
p3473
sg64
g3174
sg29
S'A'
p3474
sg66
F0.0
sg67
(lp3475
sg69
F0.0
sg70
I0
sg71
g24
sg9
S'C5'
p3476
sg73
F0.0
sg74
(lp3477
sg76
g24
sg77
g24
sg78
F0.0
sg79
S'ATOM  '
p3478
sg81
S' '
p3479
sg83
g24
sg84
(lp3480
I0
aI0
aI0
asg31
S'DT'
p3481
sg86
(lp3482
F2.453
aF-3.975
aF-15.132
asg33
g2543
sg88
F1.0
sba(ipmx.atom
Atom
p3483
(dp3484
g38
(lp3485
sg40
I0
sg22
g3171
sg41
F0.0
sg42
g24
sg43
S' C7 '
p3486
sg45
S' '
p3487
sg47
g24
sg48
I49
sg49
I2
sg25
I49
sg50
F0.0
sg26
S'B'
p3488
sg52
(lp3489
sg54
(lp3490
sg56
(lp3491
sg58
I0
sg59
g24
sg60
F0.0
sg61
F0.0
sg62
S'C'
p3492
sg64
g3174
sg29
S'A'
p3493
sg66
F0.0
sg67
(lp3494
sg69
F0.0
sg70
I0
sg71
g24
sg9
S'C7'
p3495
sg73
F0.0
sg74
(lp3496
sg76
g24
sg77
g24
sg78
F0.0
sg79
S'ATOM  '
p3497
sg81
S' '
p3498
sg83
g24
sg84
(lp3499
I0
aI0
aI0
asg31
S'DT'
p3500
sg86
(lp3501
F2.014
aF-5.438
aF-15.107
asg33
g2543
sg88
F1.0
sba(ipmx.atom
Atom
p3502
(dp3503
g38
(lp3504
sg40
I0
sg22
g3171
sg41
F0.0
sg42
g24
sg43
S' H71'
p3505
sg45
S' '
p3506
sg47
g24
sg48
I50
sg49
I2
sg25
I50
sg50
F0.0
sg26
S'B'
p3507
sg52
(lp3508
sg54
(lp3509
sg56
(lp3510
sg58
I0
sg59
g24
sg60
F0.0
sg61
F0.0
sg62
S'H'
p3511
sg64
g3174
sg29
S'A'
p3512
sg66
F0.0
sg67
(lp3513
sg69
F0.0
sg70
I0
sg71
g24
sg9
S'H71'
p3514
sg73
F0.0
sg74
(lp3515
sg76
g24
sg77
g24
sg78
F0.0
sg79
S'ATOM  '
p3516
sg81
S' '
p3517
sg83
g24
sg84
(lp3518
I0
aI0
aI0
asg31
S'DT'
p3519
sg86
(lp3520
F2.073
aF-5.842
aF-14.108
asg33
g2543
sg88
F1.0
sba(ipmx.atom
Atom
p3521
(dp3522
g38
(lp3523
sg40
I0
sg22
g3171
sg41
F0.0
sg42
g24
sg43
S' H72'
p3524
sg45
S' '
p3525
sg47
g24
sg48
I51
sg49
I2
sg25
I51
sg50
F0.0
sg26
S'B'
p3526
sg52
(lp3527
sg54
(lp3528
sg56
(lp3529
sg58
I0
sg59
g24
sg60
F0.0
sg61
F0.0
sg62
S'H'
p3530
sg64
g3174
sg29
S'A'
p3531
sg66
F0.0
sg67
(lp3532
sg69
F0.0
sg70
I0
sg71
g24
sg9
S'H72'
p3533
sg73
F0.0
sg74
(lp3534
sg76
g24
sg77
g24
sg78
F0.0
sg79
S'ATOM  '
p3535
sg81
S' '
p3536
sg83
g24
sg84
(lp3537
I0
aI0
aI0
asg31
S'DT'
p3538
sg86
(lp3539
F2.616
aF-6.147
aF-15.599
asg33
g2543
sg88
F1.0
sba(ipmx.atom
Atom
p3540
(dp3541
g38
(lp3542
sg40
I0
sg22
g3171
sg41
F0.0
sg42
g24
sg43
S' H73'
p3543
sg45
S' '
p3544
sg47
g24
sg48
I52
sg49
I2
sg25
I52
sg50
F0.0
sg26
S'B'
p3545
sg52
(lp3546
sg54
(lp3547
sg56
(lp3548
sg58
I0
sg59
g24
sg60
F0.0
sg61
F0.0
sg62
S'H'
p3549
sg64
g3174
sg29
S'A'
p3550
sg66
F0.0
sg67
(lp3551
sg69
F0.0
sg70
I0
sg71
g24
sg9
S'H73'
p3552
sg73
F0.0
sg74
(lp3553
sg76
g24
sg77
g24
sg78
F0.0
sg79
S'ATOM  '
p3554
sg81
S' '
p3555
sg83
g24
sg84
(lp3556
I0
aI0
aI0
asg31
S'DT'
p3557
sg86
(lp3558
F1.042
aF-5.535
aF-15.597
asg33
g2543
sg88
F1.0
sba(ipmx.atom
Atom
p3559
(dp3560
g38
(lp3561
sg40
I0
sg22
g3171
sg41
F0.0
sg42
g24
sg43
S' C4 '
p3562
sg45
S' '
p3563
sg47
g24
sg48
I53
sg49
I2
sg25
I53
sg50
F0.0
sg26
S'B'
p3564
sg52
(lp3565
sg54
(lp3566
sg56
(lp3567
sg58
I0
sg59
g24
sg60
F0.0
sg61
F0.0
sg62
S'C'
p3568
sg64
g3174
sg29
S'A'
p3569
sg66
F0.0
sg67
(lp3570
sg69
F0.0
sg70
I0
sg71
g24
sg9
S'C4'
p3571
sg73
F0.0
sg74
(lp3572
sg76
g24
sg77
g24
sg78
F0.0
sg79
S'ATOM  '
p3573
sg81
S' '
p3574
sg83
g24
sg84
(lp3575
I0
aI0
aI0
asg31
S'DT'
p3576
sg86
(lp3577
F1.402
aF-2.986
aF-15.154
asg33
g2543
sg88
F1.0
sba(ipmx.atom
Atom
p3578
(dp3579
g38
(lp3580
sg40
I0
sg22
g3171
sg41
F0.0
sg42
g24
sg43
S' O4 '
p3581
sg45
S' '
p3582
sg47
g24
sg48
I54
sg49
I2
sg25
I54
sg50
F0.0
sg26
S'B'
p3583
sg52
(lp3584
sg54
(lp3585
sg56
(lp3586
sg58
I0
sg59
g24
sg60
F0.0
sg61
F0.0
sg62
S'O'
p3587
sg64
g3174
sg29
S'A'
p3588
sg66
F0.0
sg67
(lp3589
sg69
F0.0
sg70
I0
sg71
g24
sg9
S'O4'
p3590
sg73
F0.0
sg74
(lp3591
sg76
g24
sg77
g24
sg78
F0.0
sg79
S'ATOM  '
p3592
sg81
S' '
p3593
sg83
g24
sg84
(lp3594
I0
aI0
aI0
asg31
S'DT'
p3595
sg86
(lp3596
F0.208
aF-3.242
aF-15.203
asg33
g2543
sg88
F1.0
sba(ipmx.atom
Atom
p3597
(dp3598
g38
(lp3599
sg40
I0
sg22
g3171
sg41
F0.0
sg42
g24
sg43
S' N3 '
p3600
sg45
S' '
p3601
sg47
g24
sg48
I55
sg49
I2
sg25
I55
sg50
F0.0
sg26
S'B'
p3602
sg52
(lp3603
sg54
(lp3604
sg56
(lp3605
sg58
I0
sg59
g24
sg60
F0.0
sg61
F0.0
sg62
S'N'
p3606
sg64
g3174
sg29
S'A'
p3607
sg66
F0.0
sg67
(lp3608
sg69
F0.0
sg70
I0
sg71
g24
sg9
S'N3'
p3609
sg73
F0.0
sg74
(lp3610
sg76
g24
sg77
g24
sg78
F0.0
sg79
S'ATOM  '
p3611
sg81
S' '
p3612
sg83
g24
sg84
(lp3613
I0
aI0
aI0
asg31
S'DT'
p3614
sg86
(lp3615
F1.799
aF-1.684
aF-15.077
asg33
g2543
sg88
F1.0
sba(ipmx.atom
Atom
p3616
(dp3617
g38
(lp3618
sg40
I0
sg22
g3171
sg41
F0.0
sg42
g24
sg43
S' H3 '
p3619
sg45
S' '
p3620
sg47
g24
sg48
I56
sg49
I2
sg25
I56
sg50
F0.0
sg26
S'B'
p3621
sg52
(lp3622
sg54
(lp3623
sg56
(lp3624
sg58
I0
sg59
g24
sg60
F0.0
sg61
F0.0
sg62
S'H'
p3625
sg64
g3174
sg29
S'A'
p3626
sg66
F0.0
sg67
(lp3627
sg69
F0.0
sg70
I0
sg71
g24
sg9
S'H3'
p3628
sg73
F0.0
sg74
(lp3629
sg76
g24
sg77
g24
sg78
F0.0
sg79
S'ATOM  '
p3630
sg81
S' '
p3631
sg83
g24
sg84
(lp3632
I0
aI0
aI0
asg31
S'DT'
p3633
sg86
(lp3634
F1.079
aF-0.981
aF-15.056
asg33
g2543
sg88
F1.0
sba(ipmx.atom
Atom
p3635
(dp3636
g38
(lp3637
sg40
I0
sg22
g3171
sg41
F0.0
sg42
g24
sg43
S' C2 '
p3638
sg45
S' '
p3639
sg47
g24
sg48
I57
sg49
I2
sg25
I57
sg50
F0.0
sg26
S'B'
p3640
sg52
(lp3641
sg54
(lp3642
sg56
(lp3643
sg58
I0
sg59
g24
sg60
F0.0
sg61
F0.0
sg62
S'C'
p3644
sg64
g3174
sg29
S'A'
p3645
sg66
F0.0
sg67
(lp3646
sg69
F0.0
sg70
I0
sg71
g24
sg9
S'C2'
p3647
sg73
F0.0
sg74
(lp3648
sg76
g24
sg77
g24
sg78
F0.0
sg79
S'ATOM  '
p3649
sg81
S' '
p3650
sg83
g24
sg84
(lp3651
I0
aI0
aI0
asg31
S'DT'
p3652
sg86
(lp3653
F3.099
aF-1.248
aF-15.018
asg33
g2543
sg88
F1.0
sba(ipmx.atom
Atom
p3654
(dp3655
g38
(lp3656
sg40
I0
sg22
g3171
sg41
F0.0
sg42
g24
sg43
S' O  '
p3657
sg45
S' '
p3658
sg47
g24
sg48
I58
sg49
I2
sg25
I58
sg50
F0.0
sg26
S'B'
p3659
sg52
(lp3660
sg54
(lp3661
sg56
(lp3662
sg58
I0
sg59
g24
sg60
F0.0
sg61
F0.0
sg62
S'O'
p3663
sg64
g3174
sg29
S'A'
p3664
sg66
F0.0
sg67
(lp3665
sg69
F0.0
sg70
I0
sg71
g24
sg9
g557
sg73
F0.0
sg74
(lp3666
sg76
g24
sg77
g24
sg78
F0.0
sg79
S'ATOM  '
p3667
sg81
S' '
p3668
sg83
g24
sg84
(lp3669
I0
aI0
aI0
asg31
S'DT'
p3670
sg86
(lp3671
F3.313
aF-0.044
aF-14.916
asg33
g2543
sg88
F1.0
sba(ipmx.atom
Atom
p3672
(dp3673
g38
(lp3674
sg40
I0
sg22
g3171
sg41
F0.0
sg42
g24
sg43
S" C3'"
p3675
sg45
S' '
p3676
sg47
g24
sg48
I59
sg49
I2
sg25
I59
sg50
F0.0
sg26
S'B'
p3677
sg52
(lp3678
sg54
(lp3679
sg56
(lp3680
sg58
I0
sg59
g24
sg60
F0.0
sg61
F0.0
sg62
S'C'
p3681
sg64
g3174
sg29
S'A'
p3682
sg66
F0.0
sg67
(lp3683
sg69
F0.0
sg70
I0
sg71
g24
sg9
S"C3'"
p3684
sg73
F0.0
sg74
(lp3685
sg76
g24
sg77
g24
sg78
F0.0
sg79
S'ATOM  '
p3686
sg81
S' '
p3687
sg83
g24
sg84
(lp3688
I0
aI0
aI0
asg31
S'DT'
p3689
sg86
(lp3690
F7.794
aF-2.546
aF-14.81
asg33
g2543
sg88
F1.0
sba(ipmx.atom
Atom
p3691
(dp3692
g38
(lp3693
sg40
I0
sg22
g3171
sg41
F0.0
sg42
g24
sg43
S" H3'"
p3694
sg45
S' '
p3695
sg47
g24
sg48
I60
sg49
I2
sg25
I60
sg50
F0.0
sg26
S'B'
p3696
sg52
(lp3697
sg54
(lp3698
sg56
(lp3699
sg58
I0
sg59
g24
sg60
F0.0
sg61
F0.0
sg62
S'H'
p3700
sg64
g3174
sg29
S'A'
p3701
sg66
F0.0
sg67
(lp3702
sg69
F0.0
sg70
I0
sg71
g24
sg9
S"H3'"
p3703
sg73
F0.0
sg74
(lp3704
sg76
g24
sg77
g24
sg78
F0.0
sg79
S'ATOM  '
p3705
sg81
S' '
p3706
sg83
g24
sg84
(lp3707
I0
aI0
aI0
asg31
S'DT'
p3708
sg86
(lp3709
F8.337
aF-3.478
aF-14.671
asg33
g2543
sg88
F1.0
sba(ipmx.atom
Atom
p3710
(dp3711
g38
(lp3712
sg40
I0
sg22
g3171
sg41
F0.0
sg42
g24
sg43
S" C2'"
p3713
sg45
S' '
p3714
sg47
g24
sg48
I61
sg49
I2
sg25
I61
sg50
F0.0
sg26
S'B'
p3715
sg52
(lp3716
sg54
(lp3717
sg56
(lp3718
sg58
I0
sg59
g24
sg60
F0.0
sg61
F0.0
sg62
S'C'
p3719
sg64
g3174
sg29
S'A'
p3720
sg66
F0.0
sg67
(lp3721
sg69
F0.0
sg70
I0
sg71
g24
sg9
S"C2'"
p3722
sg73
F0.0
sg74
(lp3723
sg76
g24
sg77
g24
sg78
F0.0
sg79
S'ATOM  '
p3724
sg81
S' '
p3725
sg83
g24
sg84
(lp3726
I0
aI0
aI0
asg31
S'DT'
p3727
sg86
(lp3728
F6.441
aF-2.627
aF-14.101
asg33
g2543
sg88
F1.0
sba(ipmx.atom
Atom
p3729
(dp3730
g38
(lp3731
sg40
I0
sg22
g3171
sg41
F0.0
sg42
g24
sg43
S"1H2'"
p3732
sg45
S' '
p3733
sg47
g24
sg48
I62
sg49
I2
sg25
I62
sg50
F0.0
sg26
S'B'
p3734
sg52
(lp3735
sg54
(lp3736
sg56
(lp3737
sg58
I0
sg59
g24
sg60
F0.0
sg61
F0.0
sg62
S'H'
p3738
sg64
g3174
sg29
S'A'
p3739
sg66
F0.0
sg67
(lp3740
sg69
F0.0
sg70
I0
sg71
g24
sg9
S"H2'1"
p3741
sg73
F0.0
sg74
(lp3742
sg76
g24
sg77
g24
sg78
F0.0
sg79
S'ATOM  '
p3743
sg81
S' '
p3744
sg83
g24
sg84
(lp3745
I0
aI0
aI0
asg31
S'DT'
p3746
sg86
(lp3747
F6.115
aF-3.661
aF-14.042
asg33
g2543
sg88
F1.0
sba(ipmx.atom
Atom
p3748
(dp3749
g38
(lp3750
sg40
I0
sg22
g3171
sg41
F0.0
sg42
g24
sg43
S"2H2'"
p3751
sg45
S' '
p3752
sg47
g24
sg48
I63
sg49
I2
sg25
I63
sg50
F0.0
sg26
S'B'
p3753
sg52
(lp3754
sg54
(lp3755
sg56
(lp3756
sg58
I0
sg59
g24
sg60
F0.0
sg61
F0.0
sg62
S'H'
p3757
sg64
g3174
sg29
S'A'
p3758
sg66
F0.0
sg67
(lp3759
sg69
F0.0
sg70
I0
sg71
g24
sg9
S"H2'2"
p3760
sg73
F0.0
sg74
(lp3761
sg76
g24
sg77
g24
sg78
F0.0
sg79
S'ATOM  '
p3762
sg81
S' '
p3763
sg83
g24
sg84
(lp3764
I0
aI0
aI0
asg31
S'DT'
p3765
sg86
(lp3766
F6.488
aF-2.29
aF-13.086
asg33
g2543
sg88
F1.0
sba(ipmx.atom
Atom
p3767
(dp3768
g38
(lp3769
sg40
I0
sg22
g3171
sg41
F0.0
sg42
g24
sg43
S" O3'"
p3770
sg45
S' '
p3771
sg47
g24
sg48
I64
sg49
I2
sg25
I64
sg50
F0.0
sg26
S'B'
p3772
sg52
(lp3773
sg54
(lp3774
sg56
(lp3775
sg58
I0
sg59
g24
sg60
F0.0
sg61
F0.0
sg62
S'O'
p3776
sg64
g3174
sg29
S'A'
p3777
sg66
F0.0
sg67
(lp3778
sg69
F0.0
sg70
I0
sg71
g24
sg9
S"O3'"
p3779
sg73
F0.0
sg74
(lp3780
sg76
g24
sg77
g24
sg78
F0.0
sg79
S'ATOM  '
p3781
sg81
S' '
p3782
sg83
g24
sg84
(lp3783
I0
aI0
aI0
asg31
S'DT'
p3784
sg86
(lp3785
F8.662
aF-1.454
aF-14.442
asg33
g2543
sg88
F1.0
sbasg48
I2
sg678
Nsbasg34
(lp3786
g3180
ag3198
ag3217
ag3236
ag3255
ag3274
ag3293
ag3312
ag3331
ag3350
ag3369
ag3388
ag3407
ag3426
ag3445
ag3464
ag3483
ag3502
ag3521
ag3540
ag3559
ag3578
ag3597
ag3616
ag3635
ag3654
ag3672
ag3691
ag3710
ag3729
ag3748
ag3767
asg680
I0
sg29
S'A'
p3787
sg33
g2543
sg682
I00
sg48
S'B'
p3788
sbssg17
(lp3789
g2554
ag3174
asg34
(lp3790
g2560
ag2578
ag2597
ag2616
ag2635
ag2654
ag2673
ag2692
ag2711
ag2730
ag2749
ag2768
ag2787
ag2806
ag2825
ag2844
ag2863
ag2882
ag2901
ag2920
ag2939
ag2958
ag2977
ag2996
ag3015
ag3034
ag3053
ag3072
ag3091
ag3110
ag3129
ag3148
ag3180
ag3198
ag3217
ag3236
ag3255
ag3274
ag3293
ag3312
ag3331
ag3350
ag3369
ag3388
ag3407
ag3426
ag3445
ag3464
ag3483
ag3502
ag3521
ag3540
ag3559
ag3578
ag3597
ag3616
ag3635
ag3654
ag3672
ag3691
ag3710
ag3729
ag3748
ag3767
asg29
S'A'
p3791
sg1307
(lp3792
g2551
ag3171
asg48
I0
sg1309
I0
sbsS'g'
p3793
(ipmx.model
Model
p3794
(dp3795
g4
(lp3796
(lp3797
I0
aI0
aI0
aa(lp3798
I0
aI0
aI0
aa(lp3799
I0
aI0
aI0
aasg9
Nsg10
g11
sg12
(dp3800
S'A'
p3801
(ipmx.chain
Chain
p3802
(dp3803
g17
(lp3804
(ipmx.molecule
Molecule
p3805
(dp3806
g21
I0
sg22
g3802
sg23
g24
sg25
I1
sg26
S'A'
p3807
sg28
Nsg29
S'A'
p3808
sg31
S'DC'
p3809
sg33
g3794
sg34
(lp3810
(ipmx.atom
Atom
p3811
(dp3812
g38
(lp3813
sg40
I0
sg22
g3802
sg41
F0.0
sg42
g24
sg43
S' P  '
p3814
sg45
S' '
p3815
sg47
g24
sg48
I1
sg49
I1
sg25
I1
sg50
F0.0
sg26
S'A'
p3816
sg52
(lp3817
sg54
(lp3818
sg56
(lp3819
sg58
I0
sg59
g24
sg60
F0.0
sg61
F0.0
sg62
S'P'
p3820
sg64
g3805
sg29
S'A'
p3821
sg66
F0.0
sg67
(lp3822
sg69
F0.0
sg70
I0
sg71
g24
sg9
S'P'
p3823
sg73
F0.0
sg74
(lp3824
sg76
g24
sg77
g24
sg78
F0.0
sg79
S'ATOM  '
p3825
sg81
S' '
p3826
sg83
g24
sg84
(lp3827
I0
aI0
aI0
asg31
g3809
sg86
(lp3828
F-8.178
aF3.769
aF-13.832
asg33
g3794
sg88
F1.0
sba(ipmx.atom
Atom
p3829
(dp3830
g38
(lp3831
sg40
I0
sg22
g3802
sg41
F0.0
sg42
g24
sg43
S' O1P'
p3832
sg45
S' '
p3833
sg47
g24
sg48
I2
sg49
I1
sg25
I2
sg50
F0.0
sg26
S'A'
p3834
sg52
(lp3835
sg54
(lp3836
sg56
(lp3837
sg58
I0
sg59
g24
sg60
F0.0
sg61
F0.0
sg62
S'O'
p3838
sg64
g3805
sg29
S'A'
p3839
sg66
F0.0
sg67
(lp3840
sg69
F0.0
sg70
I0
sg71
g24
sg9
S'O1P'
p3841
sg73
F0.0
sg74
(lp3842
sg76
g24
sg77
g24
sg78
F0.0
sg79
S'ATOM  '
p3843
sg81
S' '
p3844
sg83
g24
sg84
(lp3845
I0
aI0
aI0
asg31
S'DC'
p3846
sg86
(lp3847
F-8.877
aF5.063
aF-13.995
asg33
g3794
sg88
F1.0
sba(ipmx.atom
Atom
p3848
(dp3849
g38
(lp3850
sg40
I0
sg22
g3802
sg41
F0.0
sg42
g24
sg43
S' O2P'
p3851
sg45
S' '
p3852
sg47
g24
sg48
I3
sg49
I1
sg25
I3
sg50
F0.0
sg26
S'A'
p3853
sg52
(lp3854
sg54
(lp3855
sg56
(lp3856
sg58
I0
sg59
g24
sg60
F0.0
sg61
F0.0
sg62
S'O'
p3857
sg64
g3805
sg29
S'A'
p3858
sg66
F0.0
sg67
(lp3859
sg69
F0.0
sg70
I0
sg71
g24
sg9
S'O2P'
p3860
sg73
F0.0
sg74
(lp3861
sg76
g24
sg77
g24
sg78
F0.0
sg79
S'ATOM  '
p3862
sg81
S' '
p3863
sg83
g24
sg84
(lp3864
I0
aI0
aI0
asg31
S'DC'
p3865
sg86
(lp3866
F-8.532
aF2.61
aF-14.673
asg33
g3794
sg88
F1.0
sba(ipmx.atom
Atom
p3867
(dp3868
g38
(lp3869
sg40
I0
sg22
g3802
sg41
F0.0
sg42
g24
sg43
S" O5'"
p3870
sg45
S' '
p3871
sg47
g24
sg48
I4
sg49
I1
sg25
I4
sg50
F0.0
sg26
S'A'
p3872
sg52
(lp3873
sg54
(lp3874
sg56
(lp3875
sg58
I0
sg59
g24
sg60
F0.0
sg61
F0.0
sg62
S'O'
p3876
sg64
g3805
sg29
S'A'
p3877
sg66
F0.0
sg67
(lp3878
sg69
F0.0
sg70
I0
sg71
g24
sg9
S"O5'"
p3879
sg73
F0.0
sg74
(lp3880
sg76
g24
sg77
g24
sg78
F0.0
sg79
S'ATOM  '
p3881
sg81
S' '
p3882
sg83
g24
sg84
(lp3883
I0
aI0
aI0
asg31
S'DC'
p3884
sg86
(lp3885
F-6.642
aF4.095
aF-14.022
asg33
g3794
sg88
F1.0
sba(ipmx.atom
Atom
p3886
(dp3887
g38
(lp3888
sg40
I0
sg22
g3802
sg41
F0.0
sg42
g24
sg43
S" C5'"
p3889
sg45
S' '
p3890
sg47
g24
sg48
I5
sg49
I1
sg25
I5
sg50
F0.0
sg26
S'A'
p3891
sg52
(lp3892
sg54
(lp3893
sg56
(lp3894
sg58
I0
sg59
g24
sg60
F0.0
sg61
F0.0
sg62
S'C'
p3895
sg64
g3805
sg29
S'A'
p3896
sg66
F0.0
sg67
(lp3897
sg69
F0.0
sg70
I0
sg71
g24
sg9
S"C5'"
p3898
sg73
F0.0
sg74
(lp3899
sg76
g24
sg77
g24
sg78
F0.0
sg79
S'ATOM  '
p3900
sg81
S' '
p3901
sg83
g24
sg84
(lp3902
I0
aI0
aI0
asg31
S'DC'
p3903
sg86
(lp3904
F-5.969
aF4.936
aF-13.103
asg33
g3794
sg88
F1.0
sba(ipmx.atom
Atom
p3905
(dp3906
g38
(lp3907
sg40
I0
sg22
g3802
sg41
F0.0
sg42
g24
sg43
S"1H5'"
p3908
sg45
S' '
p3909
sg47
g24
sg48
I6
sg49
I1
sg25
I6
sg50
F0.0
sg26
S'A'
p3910
sg52
(lp3911
sg54
(lp3912
sg56
(lp3913
sg58
I0
sg59
g24
sg60
F0.0
sg61
F0.0
sg62
S'H'
p3914
sg64
g3805
sg29
S'A'
p3915
sg66
F0.0
sg67
(lp3916
sg69
F0.0
sg70
I0
sg71
g24
sg9
S"H5'1"
p3917
sg73
F0.0
sg74
(lp3918
sg76
g24
sg77
g24
sg78
F0.0
sg79
S'ATOM  '
p3919
sg81
S' '
p3920
sg83
g24
sg84
(lp3921
I0
aI0
aI0
asg31
S'DC'
p3922
sg86
(lp3923
F-6.687
aF5.644
aF-12.687
asg33
g3794
sg88
F1.0
sba(ipmx.atom
Atom
p3924
(dp3925
g38
(lp3926
sg40
I0
sg22
g3802
sg41
F0.0
sg42
g24
sg43
S"2H5'"
p3927
sg45
S' '
p3928
sg47
g24
sg48
I7
sg49
I1
sg25
I7
sg50
F0.0
sg26
S'A'
p3929
sg52
(lp3930
sg54
(lp3931
sg56
(lp3932
sg58
I0
sg59
g24
sg60
F0.0
sg61
F0.0
sg62
S'H'
p3933
sg64
g3805
sg29
S'A'
p3934
sg66
F0.0
sg67
(lp3935
sg69
F0.0
sg70
I0
sg71
g24
sg9
S"H5'2"
p3936
sg73
F0.0
sg74
(lp3937
sg76
g24
sg77
g24
sg78
F0.0
sg79
S'ATOM  '
p3938
sg81
S' '
p3939
sg83
g24
sg84
(lp3940
I0
aI0
aI0
asg31
S'DC'
p3941
sg86
(lp3942
F-5.612
aF4.33
aF-12.268
asg33
g3794
sg88
F1.0
sba(ipmx.atom
Atom
p3943
(dp3944
g38
(lp3945
sg40
I0
sg22
g3802
sg41
F0.0
sg42
g24
sg43
S" C4'"
p3946
sg45
S' '
p3947
sg47
g24
sg48
I8
sg49
I1
sg25
I8
sg50
F0.0
sg26
S'A'
p3948
sg52
(lp3949
sg54
(lp3950
sg56
(lp3951
sg58
I0
sg59
g24
sg60
F0.0
sg61
F0.0
sg62
S'C'
p3952
sg64
g3805
sg29
S'A'
p3953
sg66
F0.0
sg67
(lp3954
sg69
F0.0
sg70
I0
sg71
g24
sg9
S"C4'"
p3955
sg73
F0.0
sg74
(lp3956
sg76
g24
sg77
g24
sg78
F0.0
sg79
S'ATOM  '
p3957
sg81
S' '
p3958
sg83
g24
sg84
(lp3959
I0
aI0
aI0
asg31
S'DC'
p3960
sg86
(lp3961
F-4.798
aF5.705
aF-13.741
asg33
g3794
sg88
F1.0
sba(ipmx.atom
Atom
p3962
(dp3963
g38
(lp3964
sg40
I0
sg22
g3802
sg41
F0.0
sg42
g24
sg43
S" H4'"
p3965
sg45
S' '
p3966
sg47
g24
sg48
I9
sg49
I1
sg25
I9
sg50
F0.0
sg26
S'A'
p3967
sg52
(lp3968
sg54
(lp3969
sg56
(lp3970
sg58
I0
sg59
g24
sg60
F0.0
sg61
F0.0
sg62
S'H'
p3971
sg64
g3805
sg29
S'A'
p3972
sg66
F0.0
sg67
(lp3973
sg69
F0.0
sg70
I0
sg71
g24
sg9
S"H4'"
p3974
sg73
F0.0
sg74
(lp3975
sg76
g24
sg77
g24
sg78
F0.0
sg79
S'ATOM  '
p3976
sg81
S' '
p3977
sg83
g24
sg84
(lp3978
I0
aI0
aI0
asg31
S'DC'
p3979
sg86
(lp3980
F-4.593
aF6.55
aF-13.09
asg33
g3794
sg88
F1.0
sba(ipmx.atom
Atom
p3981
(dp3982
g38
(lp3983
sg40
I0
sg22
g3802
sg41
F0.0
sg42
g24
sg43
S" O4'"
p3984
sg45
S' '
p3985
sg47
g24
sg48
I10
sg49
I1
sg25
I10
sg50
F0.0
sg26
S'A'
p3986
sg52
(lp3987
sg54
(lp3988
sg56
(lp3989
sg58
I0
sg59
g24
sg60
F0.0
sg61
F0.0
sg62
S'O'
p3990
sg64
g3805
sg29
S'A'
p3991
sg66
F0.0
sg67
(lp3992
sg69
F0.0
sg70
I0
sg71
g24
sg9
S"O4'"
p3993
sg73
F0.0
sg74
(lp3994
sg76
g24
sg77
g24
sg78
F0.0
sg79
S'ATOM  '
p3995
sg81
S' '
p3996
sg83
g24
sg84
(lp3997
I0
aI0
aI0
asg31
S'DC'
p3998
sg86
(lp3999
F-3.671
aF4.83
aF-13.748
asg33
g3794
sg88
F1.0
sba(ipmx.atom
Atom
p4000
(dp4001
g38
(lp4002
sg40
I0
sg22
g3802
sg41
F0.0
sg42
g24
sg43
S" C1'"
p4003
sg45
S' '
p4004
sg47
g24
sg48
I11
sg49
I1
sg25
I11
sg50
F0.0
sg26
S'A'
p4005
sg52
(lp4006
sg54
(lp4007
sg56
(lp4008
sg58
I0
sg59
g24
sg60
F0.0
sg61
F0.0
sg62
S'C'
p4009
sg64
g3805
sg29
S'A'
p4010
sg66
F0.0
sg67
(lp4011
sg69
F0.0
sg70
I0
sg71
g24
sg9
S"C1'"
p4012
sg73
F0.0
sg74
(lp4013
sg76
g24
sg77
g24
sg78
F0.0
sg79
S'ATOM  '
p4014
sg81
S' '
p4015
sg83
g24
sg84
(lp4016
I0
aI0
aI0
asg31
S'DC'
p4017
sg86
(lp4018
F-3.473
aF4.343
aF-15.066
asg33
g3794
sg88
F1.0
sba(ipmx.atom
Atom
p4019
(dp4020
g38
(lp4021
sg40
I0
sg22
g3802
sg41
F0.0
sg42
g24
sg43
S" H1'"
p4022
sg45
S' '
p4023
sg47
g24
sg48
I12
sg49
I1
sg25
I12
sg50
F0.0
sg26
S'A'
p4024
sg52
(lp4025
sg54
(lp4026
sg56
(lp4027
sg58
I0
sg59
g24
sg60
F0.0
sg61
F0.0
sg62
S'H'
p4028
sg64
g3805
sg29
S'A'
p4029
sg66
F0.0
sg67
(lp4030
sg69
F0.0
sg70
I0
sg71
g24
sg9
S"H1'"
p4031
sg73
F0.0
sg74
(lp4032
sg76
g24
sg77
g24
sg78
F0.0
sg79
S'ATOM  '
p4033
sg81
S' '
p4034
sg83
g24
sg84
(lp4035
I0
aI0
aI0
asg31
S'DC'
p4036
sg86
(lp4037
F-2.536
aF4.762
aF-15.442
asg33
g3794
sg88
F1.0
sba(ipmx.atom
Atom
p4038
(dp4039
g38
(lp4040
sg40
I0
sg22
g3802
sg41
F0.0
sg42
g24
sg43
S' N1 '
p4041
sg45
S' '
p4042
sg47
g24
sg48
I13
sg49
I1
sg25
I13
sg50
F0.0
sg26
S'A'
p4043
sg52
(lp4044
sg54
(lp4045
sg56
(lp4046
sg58
I0
sg59
g24
sg60
F0.0
sg61
F0.0
sg62
S'N'
p4047
sg64
g3805
sg29
S'A'
p4048
sg66
F0.0
sg67
(lp4049
sg69
F0.0
sg70
I0
sg71
g24
sg9
S'N1'
p4050
sg73
F0.0
sg74
(lp4051
sg76
g24
sg77
g24
sg78
F0.0
sg79
S'ATOM  '
p4052
sg81
S' '
p4053
sg83
g24
sg84
(lp4054
I0
aI0
aI0
asg31
S'DC'
p4055
sg86
(lp4056
F-3.379
aF2.852
aF-15.078
asg33
g3794
sg88
F1.0
sba(ipmx.atom
Atom
p4057
(dp4058
g38
(lp4059
sg40
I0
sg22
g3802
sg41
F0.0
sg42
g24
sg43
S' C6 '
p4060
sg45
S' '
p4061
sg47
g24
sg48
I14
sg49
I1
sg25
I14
sg50
F0.0
sg26
S'A'
p4062
sg52
(lp4063
sg54
(lp4064
sg56
(lp4065
sg58
I0
sg59
g24
sg60
F0.0
sg61
F0.0
sg62
S'C'
p4066
sg64
g3805
sg29
S'A'
p4067
sg66
F0.0
sg67
(lp4068
sg69
F0.0
sg70
I0
sg71
g24
sg9
S'C6'
p4069
sg73
F0.0
sg74
(lp4070
sg76
g24
sg77
g24
sg78
F0.0
sg79
S'ATOM  '
p4071
sg81
S' '
p4072
sg83
g24
sg84
(lp4073
I0
aI0
aI0
asg31
S'DC'
p4074
sg86
(lp4075
F-4.499
aF2.06
aF-15.103
asg33
g3794
sg88
F1.0
sba(ipmx.atom
Atom
p4076
(dp4077
g38
(lp4078
sg40
I0
sg22
g3802
sg41
F0.0
sg42
g24
sg43
S' H6 '
p4079
sg45
S' '
p4080
sg47
g24
sg48
I15
sg49
I1
sg25
I15
sg50
F0.0
sg26
S'A'
p4081
sg52
(lp4082
sg54
(lp4083
sg56
(lp4084
sg58
I0
sg59
g24
sg60
F0.0
sg61
F0.0
sg62
S'H'
p4085
sg64
g3805
sg29
S'A'
p4086
sg66
F0.0
sg67
(lp4087
sg69
F0.0
sg70
I0
sg71
g24
sg9
S'H6'
p4088
sg73
F0.0
sg74
(lp4089
sg76
g24
sg77
g24
sg78
F0.0
sg79
S'ATOM  '
p4090
sg81
S' '
p4091
sg83
g24
sg84
(lp4092
I0
aI0
aI0
asg31
S'DC'
p4093
sg86
(lp4094
F-5.476
aF2.505
aF-15.103
asg33
g3794
sg88
F1.0
sba(ipmx.atom
Atom
p4095
(dp4096
g38
(lp4097
sg40
I0
sg22
g3802
sg41
F0.0
sg42
g24
sg43
S' C5 '
p4098
sg45
S' '
p4099
sg47
g24
sg48
I16
sg49
I1
sg25
I16
sg50
F0.0
sg26
S'A'
p4100
sg52
(lp4101
sg54
(lp4102
sg56
(lp4103
sg58
I0
sg59
g24
sg60
F0.0
sg61
F0.0
sg62
S'C'
p4104
sg64
g3805
sg29
S'A'
p4105
sg66
F0.0
sg67
(lp4106
sg69
F0.0
sg70
I0
sg71
g24
sg9
S'C5'
p4107
sg73
F0.0
sg74
(lp4108
sg76
g24
sg77
g24
sg78
F0.0
sg79
S'ATOM  '
p4109
sg81
S' '
p4110
sg83
g24
sg84
(lp4111
I0
aI0
aI0
asg31
S'DC'
p4112
sg86
(lp4113
F-4.403
aF0.713
aF-15.105
asg33
g3794
sg88
F1.0
sba(ipmx.atom
Atom
p4114
(dp4115
g38
(lp4116
sg40
I0
sg22
g3802
sg41
F0.0
sg42
g24
sg43
S' H5 '
p4117
sg45
S' '
p4118
sg47
g24
sg48
I17
sg49
I1
sg25
I17
sg50
F0.0
sg26
S'A'
p4119
sg52
(lp4120
sg54
(lp4121
sg56
(lp4122
sg58
I0
sg59
g24
sg60
F0.0
sg61
F0.0
sg62
S'H'
p4123
sg64
g3805
sg29
S'A'
p4124
sg66
F0.0
sg67
(lp4125
sg69
F0.0
sg70
I0
sg71
g24
sg9
S'H5'
p4126
sg73
F0.0
sg74
(lp4127
sg76
g24
sg77
g24
sg78
F0.0
sg79
S'ATOM  '
p4128
sg81
S' '
p4129
sg83
g24
sg84
(lp4130
I0
aI0
aI0
asg31
S'DC'
p4131
sg86
(lp4132
F-5.302
aF0.117
aF-15.103
asg33
g3794
sg88
F1.0
sba(ipmx.atom
Atom
p4133
(dp4134
g38
(lp4135
sg40
I0
sg22
g3802
sg41
F0.0
sg42
g24
sg43
S' C4 '
p4136
sg45
S' '
p4137
sg47
g24
sg48
I18
sg49
I1
sg25
I18
sg50
F0.0
sg26
S'A'
p4138
sg52
(lp4139
sg54
(lp4140
sg56
(lp4141
sg58
I0
sg59
g24
sg60
F0.0
sg61
F0.0
sg62
S'C'
p4142
sg64
g3805
sg29
S'A'
p4143
sg66
F0.0
sg67
(lp4144
sg69
F0.0
sg70
I0
sg71
g24
sg9
S'C4'
p4145
sg73
F0.0
sg74
(lp4146
sg76
g24
sg77
g24
sg78
F0.0
sg79
S'ATOM  '
p4147
sg81
S' '
p4148
sg83
g24
sg84
(lp4149
I0
aI0
aI0
asg31
S'DC'
p4150
sg86
(lp4151
F-3.102
aF0.167
aF-15.107
asg33
g3794
sg88
F1.0
sba(ipmx.atom
Atom
p4152
(dp4153
g38
(lp4154
sg40
I0
sg22
g3802
sg41
F0.0
sg42
g24
sg43
S' N4 '
p4155
sg45
S' '
p4156
sg47
g24
sg48
I19
sg49
I1
sg25
I19
sg50
F0.0
sg26
S'A'
p4157
sg52
(lp4158
sg54
(lp4159
sg56
(lp4160
sg58
I0
sg59
g24
sg60
F0.0
sg61
F0.0
sg62
S'N'
p4161
sg64
g3805
sg29
S'A'
p4162
sg66
F0.0
sg67
(lp4163
sg69
F0.0
sg70
I0
sg71
g24
sg9
S'N4'
p4164
sg73
F0.0
sg74
(lp4165
sg76
g24
sg77
g24
sg78
F0.0
sg79
S'ATOM  '
p4166
sg81
S' '
p4167
sg83
g24
sg84
(lp4168
I0
aI0
aI0
asg31
S'DC'
p4169
sg86
(lp4170
F-2.964
aF-1.122
aF-15.087
asg33
g3794
sg88
F1.0
sba(ipmx.atom
Atom
p4171
(dp4172
g38
(lp4173
sg40
I0
sg22
g3802
sg41
F0.0
sg42
g24
sg43
S' H41'
p4174
sg45
S' '
p4175
sg47
g24
sg48
I20
sg49
I1
sg25
I20
sg50
F0.0
sg26
S'A'
p4176
sg52
(lp4177
sg54
(lp4178
sg56
(lp4179
sg58
I0
sg59
g24
sg60
F0.0
sg61
F0.0
sg62
S'H'
p4180
sg64
g3805
sg29
S'A'
p4181
sg66
F0.0
sg67
(lp4182
sg69
F0.0
sg70
I0
sg71
g24
sg9
S'H41'
p4183
sg73
F0.0
sg74
(lp4184
sg76
g24
sg77
g24
sg78
F0.0
sg79
S'ATOM  '
p4185
sg81
S' '
p4186
sg83
g24
sg84
(lp4187
I0
aI0
aI0
asg31
S'DC'
p4188
sg86
(lp4189
F-2.025
aF-1.502
aF-15.11
asg33
g3794
sg88
F1.0
sba(ipmx.atom
Atom
p4190
(dp4191
g38
(lp4192
sg40
I0
sg22
g3802
sg41
F0.0
sg42
g24
sg43
S' H42'
p4193
sg45
S' '
p4194
sg47
g24
sg48
I21
sg49
I1
sg25
I21
sg50
F0.0
sg26
S'A'
p4195
sg52
(lp4196
sg54
(lp4197
sg56
(lp4198
sg58
I0
sg59
g24
sg60
F0.0
sg61
F0.0
sg62
S'H'
p4199
sg64
g3805
sg29
S'A'
p4200
sg66
F0.0
sg67
(lp4201
sg69
F0.0
sg70
I0
sg71
g24
sg9
S'H42'
p4202
sg73
F0.0
sg74
(lp4203
sg76
g24
sg77
g24
sg78
F0.0
sg79
S'ATOM  '
p4204
sg81
S' '
p4205
sg83
g24
sg84
(lp4206
I0
aI0
aI0
asg31
S'DC'
p4207
sg86
(lp4208
F-3.761
aF-1.719
aF-15.082
asg33
g3794
sg88
F1.0
sba(ipmx.atom
Atom
p4209
(dp4210
g38
(lp4211
sg40
I0
sg22
g3802
sg41
F0.0
sg42
g24
sg43
S' N3 '
p4212
sg45
S' '
p4213
sg47
g24
sg48
I22
sg49
I1
sg25
I22
sg50
F0.0
sg26
S'A'
p4214
sg52
(lp4215
sg54
(lp4216
sg56
(lp4217
sg58
I0
sg59
g24
sg60
F0.0
sg61
F0.0
sg62
S'N'
p4218
sg64
g3805
sg29
S'A'
p4219
sg66
F0.0
sg67
(lp4220
sg69
F0.0
sg70
I0
sg71
g24
sg9
S'N3'
p4221
sg73
F0.0
sg74
(lp4222
sg76
g24
sg77
g24
sg78
F0.0
sg79
S'ATOM  '
p4223
sg81
S' '
p4224
sg83
g24
sg84
(lp4225
I0
aI0
aI0
asg31
S'DC'
p4226
sg86
(lp4227
F-2.002
aF0.888
aF-15.098
asg33
g3794
sg88
F1.0
sba(ipmx.atom
Atom
p4228
(dp4229
g38
(lp4230
sg40
I0
sg22
g3802
sg41
F0.0
sg42
g24
sg43
S' C2 '
p4231
sg45
S' '
p4232
sg47
g24
sg48
I23
sg49
I1
sg25
I23
sg50
F0.0
sg26
S'A'
p4233
sg52
(lp4234
sg54
(lp4235
sg56
(lp4236
sg58
I0
sg59
g24
sg60
F0.0
sg61
F0.0
sg62
S'C'
p4237
sg64
g3805
sg29
S'A'
p4238
sg66
F0.0
sg67
(lp4239
sg69
F0.0
sg70
I0
sg71
g24
sg9
S'C2'
p4240
sg73
F0.0
sg74
(lp4241
sg76
g24
sg77
g24
sg78
F0.0
sg79
S'ATOM  '
p4242
sg81
S' '
p4243
sg83
g24
sg84
(lp4244
I0
aI0
aI0
asg31
S'DC'
p4245
sg86
(lp4246
F-2.12
aF2.242
aF-15.082
asg33
g3794
sg88
F1.0
sba(ipmx.atom
Atom
p4247
(dp4248
g38
(lp4249
sg40
I0
sg22
g3802
sg41
F0.0
sg42
g24
sg43
S' O  '
p4250
sg45
S' '
p4251
sg47
g24
sg48
I24
sg49
I1
sg25
I24
sg50
F0.0
sg26
S'A'
p4252
sg52
(lp4253
sg54
(lp4254
sg56
(lp4255
sg58
I0
sg59
g24
sg60
F0.0
sg61
F0.0
sg62
S'O'
p4256
sg64
g3805
sg29
S'A'
p4257
sg66
F0.0
sg67
(lp4258
sg69
F0.0
sg70
I0
sg71
g24
sg9
g557
sg73
F0.0
sg74
(lp4259
sg76
g24
sg77
g24
sg78
F0.0
sg79
S'ATOM  '
p4260
sg81
S' '
p4261
sg83
g24
sg84
(lp4262
I0
aI0
aI0
asg31
S'DC'
p4263
sg86
(lp4264
F-1.074
aF2.89
aF-15.083
asg33
g3794
sg88
F1.0
sba(ipmx.atom
Atom
p4265
(dp4266
g38
(lp4267
sg40
I0
sg22
g3802
sg41
F0.0
sg42
g24
sg43
S" C3'"
p4268
sg45
S' '
p4269
sg47
g24
sg48
I25
sg49
I1
sg25
I25
sg50
F0.0
sg26
S'A'
p4270
sg52
(lp4271
sg54
(lp4272
sg56
(lp4273
sg58
I0
sg59
g24
sg60
F0.0
sg61
F0.0
sg62
S'C'
p4274
sg64
g3805
sg29
S'A'
p4275
sg66
F0.0
sg67
(lp4276
sg69
F0.0
sg70
I0
sg71
g24
sg9
S"C3'"
p4277
sg73
F0.0
sg74
(lp4278
sg76
g24
sg77
g24
sg78
F0.0
sg79
S'ATOM  '
p4279
sg81
S' '
p4280
sg83
g24
sg84
(lp4281
I0
aI0
aI0
asg31
S'DC'
p4282
sg86
(lp4283
F-5.079
aF6.172
aF-15.201
asg33
g3794
sg88
F1.0
sba(ipmx.atom
Atom
p4284
(dp4285
g38
(lp4286
sg40
I0
sg22
g3802
sg41
F0.0
sg42
g24
sg43
S" H3'"
p4287
sg45
S' '
p4288
sg47
g24
sg48
I26
sg49
I1
sg25
I26
sg50
F0.0
sg26
S'A'
p4289
sg52
(lp4290
sg54
(lp4291
sg56
(lp4292
sg58
I0
sg59
g24
sg60
F0.0
sg61
F0.0
sg62
S'H'
p4293
sg64
g3805
sg29
S'A'
p4294
sg66
F0.0
sg67
(lp4295
sg69
F0.0
sg70
I0
sg71
g24
sg9
S"H3'"
p4296
sg73
F0.0
sg74
(lp4297
sg76
g24
sg77
g24
sg78
F0.0
sg79
S'ATOM  '
p4298
sg81
S' '
p4299
sg83
g24
sg84
(lp4300
I0
aI0
aI0
asg31
S'DC'
p4301
sg86
(lp4302
F-6.149
aF6.309
aF-15.331
asg33
g3794
sg88
F1.0
sba(ipmx.atom
Atom
p4303
(dp4304
g38
(lp4305
sg40
I0
sg22
g3802
sg41
F0.0
sg42
g24
sg43
S" C2'"
p4306
sg45
S' '
p4307
sg47
g24
sg48
I27
sg49
I1
sg25
I27
sg50
F0.0
sg26
S'A'
p4308
sg52
(lp4309
sg54
(lp4310
sg56
(lp4311
sg58
I0
sg59
g24
sg60
F0.0
sg61
F0.0
sg62
S'C'
p4312
sg64
g3805
sg29
S'A'
p4313
sg66
F0.0
sg67
(lp4314
sg69
F0.0
sg70
I0
sg71
g24
sg9
S"C2'"
p4315
sg73
F0.0
sg74
(lp4316
sg76
g24
sg77
g24
sg78
F0.0
sg79
S'ATOM  '
p4317
sg81
S' '
p4318
sg83
g24
sg84
(lp4319
I0
aI0
aI0
asg31
S'DC'
p4320
sg86
(lp4321
F-4.6
aF4.92
aF-15.935
asg33
g3794
sg88
F1.0
sba(ipmx.atom
Atom
p4322
(dp4323
g38
(lp4324
sg40
I0
sg22
g3802
sg41
F0.0
sg42
g24
sg43
S"1H2'"
p4325
sg45
S' '
p4326
sg47
g24
sg48
I28
sg49
I1
sg25
I28
sg50
F0.0
sg26
S'A'
p4327
sg52
(lp4328
sg54
(lp4329
sg56
(lp4330
sg58
I0
sg59
g24
sg60
F0.0
sg61
F0.0
sg62
S'H'
p4331
sg64
g3805
sg29
S'A'
p4332
sg66
F0.0
sg67
(lp4333
sg69
F0.0
sg70
I0
sg71
g24
sg9
S"H2'1"
p4334
sg73
F0.0
sg74
(lp4335
sg76
g24
sg77
g24
sg78
F0.0
sg79
S'ATOM  '
p4336
sg81
S' '
p4337
sg83
g24
sg84
(lp4338
I0
aI0
aI0
asg31
S'DC'
p4339
sg86
(lp4340
F-5.439
aF4.247
aF-16.067
asg33
g3794
sg88
F1.0
sba(ipmx.atom
Atom
p4341
(dp4342
g38
(lp4343
sg40
I0
sg22
g3802
sg41
F0.0
sg42
g24
sg43
S"2H2'"
p4344
sg45
S' '
p4345
sg47
g24
sg48
I29
sg49
I1
sg25
I29
sg50
F0.0
sg26
S'A'
p4346
sg52
(lp4347
sg54
(lp4348
sg56
(lp4349
sg58
I0
sg59
g24
sg60
F0.0
sg61
F0.0
sg62
S'H'
p4350
sg64
g3805
sg29
S'A'
p4351
sg66
F0.0
sg67
(lp4352
sg69
F0.0
sg70
I0
sg71
g24
sg9
S"H2'2"
p4353
sg73
F0.0
sg74
(lp4354
sg76
g24
sg77
g24
sg78
F0.0
sg79
S'ATOM  '
p4355
sg81
S' '
p4356
sg83
g24
sg84
(lp4357
I0
aI0
aI0
asg31
S'DC'
p4358
sg86
(lp4359
F-4.252
aF5.125
aF-16.925
asg33
g3794
sg88
F1.0
sba(ipmx.atom
Atom
p4360
(dp4361
g38
(lp4362
sg40
I0
sg22
g3802
sg41
F0.0
sg42
g24
sg43
S" O3'"
p4363
sg45
S' '
p4364
sg47
g24
sg48
I30
sg49
I1
sg25
I30
sg50
F0.0
sg26
S'A'
p4365
sg52
(lp4366
sg54
(lp4367
sg56
(lp4368
sg58
I0
sg59
g24
sg60
F0.0
sg61
F0.0
sg62
S'O'
p4369
sg64
g3805
sg29
S'A'
p4370
sg66
F0.0
sg67
(lp4371
sg69
F0.0
sg70
I0
sg71
g24
sg9
S"O3'"
p4372
sg73
F0.0
sg74
(lp4373
sg76
g24
sg77
g24
sg78
F0.0
sg79
S'ATOM  '
p4374
sg81
S' '
p4375
sg83
g24
sg84
(lp4376
I0
aI0
aI0
asg31
S'DC'
p4377
sg86
(lp4378
F-4.469
aF7.398
aF-15.643
asg33
g3794
sg88
F1.0
sbasg48
I1
sg678
Nsbasg34
(lp4379
g3811
ag3829
ag3848
ag3867
ag3886
ag3905
ag3924
ag3943
ag3962
ag3981
ag4000
ag4019
ag4038
ag4057
ag4076
ag4095
ag4114
ag4133
ag4152
ag4171
ag4190
ag4209
ag4228
ag4247
ag4265
ag4284
ag4303
ag4322
ag4341
ag4360
asg680
I0
sg29
S'A'
p4380
sg33
g3794
sg682
I00
sg48
S'A'
p4381
sbsS'B'
p4382
(ipmx.chain
Chain
p4383
(dp4384
g17
(lp4385
(ipmx.molecule
Molecule
p4386
(dp4387
g21
I0
sg22
g4383
sg23
g24
sg25
I2
sg26
S'B'
p4388
sg28
Nsg29
S'A'
p4389
sg31
S'DG'
p4390
sg33
g3794
sg34
(lp4391
(ipmx.atom
Atom
p4392
(dp4393
g38
(lp4394
sg40
I0
sg22
g4383
sg41
F0.0
sg42
g24
sg43
S' P  '
p4395
sg45
S' '
p4396
sg47
g24
sg48
I31
sg49
I2
sg25
I31
sg50
F0.0
sg26
S'B'
p4397
sg52
(lp4398
sg54
(lp4399
sg56
(lp4400
sg58
I0
sg59
g24
sg60
F0.0
sg61
F0.0
sg62
S'P'
p4401
sg64
g4386
sg29
S'A'
p4402
sg66
F0.0
sg67
(lp4403
sg69
F0.0
sg70
I0
sg71
g24
sg9
S'P'
p4404
sg73
F0.0
sg74
(lp4405
sg76
g24
sg77
g24
sg78
F0.0
sg79
S'ATOM  '
p4406
sg81
S' '
p4407
sg83
g24
sg84
(lp4408
I0
aI0
aI0
asg31
g4390
sg86
(lp4409
F6.714
aF-6.277
aF-16.301
asg33
g3794
sg88
F1.0
sba(ipmx.atom
Atom
p4410
(dp4411
g38
(lp4412
sg40
I0
sg22
g4383
sg41
F0.0
sg42
g24
sg43
S' O1P'
p4413
sg45
S' '
p4414
sg47
g24
sg48
I32
sg49
I2
sg25
I32
sg50
F0.0
sg26
S'B'
p4415
sg52
(lp4416
sg54
(lp4417
sg56
(lp4418
sg58
I0
sg59
g24
sg60
F0.0
sg61
F0.0
sg62
S'O'
p4419
sg64
g4386
sg29
S'A'
p4420
sg66
F0.0
sg67
(lp4421
sg69
F0.0
sg70
I0
sg71
g24
sg9
S'O1P'
p4422
sg73
F0.0
sg74
(lp4423
sg76
g24
sg77
g24
sg78
F0.0
sg79
S'ATOM  '
p4424
sg81
S' '
p4425
sg83
g24
sg84
(lp4426
I0
aI0
aI0
asg31
S'DG'
p4427
sg86
(lp4428
F8.207
aF-6.451
aF-16.209
asg33
g3794
sg88
F1.0
sba(ipmx.atom
Atom
p4429
(dp4430
g38
(lp4431
sg40
I0
sg22
g4383
sg41
F0.0
sg42
g24
sg43
S' O2P'
p4432
sg45
S' '
p4433
sg47
g24
sg48
I33
sg49
I2
sg25
I33
sg50
F0.0
sg26
S'B'
p4434
sg52
(lp4435
sg54
(lp4436
sg56
(lp4437
sg58
I0
sg59
g24
sg60
F0.0
sg61
F0.0
sg62
S'O'
p4438
sg64
g4386
sg29
S'A'
p4439
sg66
F0.0
sg67
(lp4440
sg69
F0.0
sg70
I0
sg71
g24
sg9
S'O2P'
p4441
sg73
F0.0
sg74
(lp4442
sg76
g24
sg77
g24
sg78
F0.0
sg79
S'ATOM  '
p4443
sg81
S' '
p4444
sg83
g24
sg84
(lp4445
I0
aI0
aI0
asg31
S'DG'
p4446
sg86
(lp4447
F5.823
aF-7.057
aF-15.462
asg33
g3794
sg88
F1.0
sba(ipmx.atom
Atom
p4448
(dp4449
g38
(lp4450
sg40
I0
sg22
g4383
sg41
F0.0
sg42
g24
sg43
S" O5'"
p4451
sg45
S' '
p4452
sg47
g24
sg48
I34
sg49
I2
sg25
I34
sg50
F0.0
sg26
S'B'
p4453
sg52
(lp4454
sg54
(lp4455
sg56
(lp4456
sg58
I0
sg59
g24
sg60
F0.0
sg61
F0.0
sg62
S'O'
p4457
sg64
g4386
sg29
S'A'
p4458
sg66
F0.0
sg67
(lp4459
sg69
F0.0
sg70
I0
sg71
g24
sg9
S"O5'"
p4460
sg73
F0.0
sg74
(lp4461
sg76
g24
sg77
g24
sg78
F0.0
sg79
S'ATOM  '
p4462
sg81
S' '
p4463
sg83
g24
sg84
(lp4464
I0
aI0
aI0
asg31
S'DG'
p4465
sg86
(lp4466
F6.451
aF-4.713
aF-16.12
asg33
g3794
sg88
F1.0
sba(ipmx.atom
Atom
p4467
(dp4468
g38
(lp4469
sg40
I0
sg22
g4383
sg41
F0.0
sg42
g24
sg43
S" C5'"
p4470
sg45
S' '
p4471
sg47
g24
sg48
I35
sg49
I2
sg25
I35
sg50
F0.0
sg26
S'B'
p4472
sg52
(lp4473
sg54
(lp4474
sg56
(lp4475
sg58
I0
sg59
g24
sg60
F0.0
sg61
F0.0
sg62
S'C'
p4476
sg64
g4386
sg29
S'A'
p4477
sg66
F0.0
sg67
(lp4478
sg69
F0.0
sg70
I0
sg71
g24
sg9
S"C5'"
p4479
sg73
F0.0
sg74
(lp4480
sg76
g24
sg77
g24
sg78
F0.0
sg79
S'ATOM  '
p4481
sg81
S' '
p4482
sg83
g24
sg84
(lp4483
I0
aI0
aI0
asg31
S'DG'
p4484
sg86
(lp4485
F7.053
aF-3.742
aF-16.976
asg33
g3794
sg88
F1.0
sba(ipmx.atom
Atom
p4486
(dp4487
g38
(lp4488
sg40
I0
sg22
g4383
sg41
F0.0
sg42
g24
sg43
S"1H5'"
p4489
sg45
S' '
p4490
sg47
g24
sg48
I36
sg49
I2
sg25
I36
sg50
F0.0
sg26
S'B'
p4491
sg52
(lp4492
sg54
(lp4493
sg56
(lp4494
sg58
I0
sg59
g24
sg60
F0.0
sg61
F0.0
sg62
S'H'
p4495
sg64
g4386
sg29
S'A'
p4496
sg66
F0.0
sg67
(lp4497
sg69
F0.0
sg70
I0
sg71
g24
sg9
S"H5'1"
p4498
sg73
F0.0
sg74
(lp4499
sg76
g24
sg77
g24
sg78
F0.0
sg79
S'ATOM  '
p4500
sg81
S' '
p4501
sg83
g24
sg84
(lp4502
I0
aI0
aI0
asg31
S'DG'
p4503
sg86
(lp4504
F8.002
aF-4.124
aF-17.362
asg33
g3794
sg88
F1.0
sba(ipmx.atom
Atom
p4505
(dp4506
g38
(lp4507
sg40
I0
sg22
g4383
sg41
F0.0
sg42
g24
sg43
S"2H5'"
p4508
sg45
S' '
p4509
sg47
g24
sg48
I37
sg49
I2
sg25
I37
sg50
F0.0
sg26
S'B'
p4510
sg52
(lp4511
sg54
(lp4512
sg56
(lp4513
sg58
I0
sg59
g24
sg60
F0.0
sg61
F0.0
sg62
S'H'
p4514
sg64
g4386
sg29
S'A'
p4515
sg66
F0.0
sg67
(lp4516
sg69
F0.0
sg70
I0
sg71
g24
sg9
S"H5'2"
p4517
sg73
F0.0
sg74
(lp4518
sg76
g24
sg77
g24
sg78
F0.0
sg79
S'ATOM  '
p4519
sg81
S' '
p4520
sg83
g24
sg84
(lp4521
I0
aI0
aI0
asg31
S'DG'
p4522
sg86
(lp4523
F6.401
aF-3.577
aF-17.835
asg33
g3794
sg88
F1.0
sba(ipmx.atom
Atom
p4524
(dp4525
g38
(lp4526
sg40
I0
sg22
g4383
sg41
F0.0
sg42
g24
sg43
S" C4'"
p4527
sg45
S' '
p4528
sg47
g24
sg48
I38
sg49
I2
sg25
I38
sg50
F0.0
sg26
S'B'
p4529
sg52
(lp4530
sg54
(lp4531
sg56
(lp4532
sg58
I0
sg59
g24
sg60
F0.0
sg61
F0.0
sg62
S'C'
p4533
sg64
g4386
sg29
S'A'
p4534
sg66
F0.0
sg67
(lp4535
sg69
F0.0
sg70
I0
sg71
g24
sg9
S"C4'"
p4536
sg73
F0.0
sg74
(lp4537
sg76
g24
sg77
g24
sg78
F0.0
sg79
S'ATOM  '
p4538
sg81
S' '
p4539
sg83
g24
sg84
(lp4540
I0
aI0
aI0
asg31
S'DG'
p4541
sg86
(lp4542
F7.316
aF-2.39
aF-16.289
asg33
g3794
sg88
F1.0
sba(ipmx.atom
Atom
p4543
(dp4544
g38
(lp4545
sg40
I0
sg22
g4383
sg41
F0.0
sg42
g24
sg43
S" H4'"
p4546
sg45
S' '
p4547
sg47
g24
sg48
I39
sg49
I2
sg25
I39
sg50
F0.0
sg26
S'B'
p4548
sg52
(lp4549
sg54
(lp4550
sg56
(lp4551
sg58
I0
sg59
g24
sg60
F0.0
sg61
F0.0
sg62
S'H'
p4552
sg64
g4386
sg29
S'A'
p4553
sg66
F0.0
sg67
(lp4554
sg69
F0.0
sg70
I0
sg71
g24
sg9
S"H4'"
p4555
sg73
F0.0
sg74
(lp4556
sg76
g24
sg77
g24
sg78
F0.0
sg79
S'ATOM  '
p4557
sg81
S' '
p4558
sg83
g24
sg84
(lp4559
I0
aI0
aI0
asg31
S'DG'
p4560
sg86
(lp4561
F8.059
aF-1.851
aF-16.865
asg33
g3794
sg88
F1.0
sba(ipmx.atom
Atom
p4562
(dp4563
g38
(lp4564
sg40
I0
sg22
g4383
sg41
F0.0
sg42
g24
sg43
S" O4'"
p4565
sg45
S' '
p4566
sg47
g24
sg48
I40
sg49
I2
sg25
I40
sg50
F0.0
sg26
S'B'
p4567
sg52
(lp4568
sg54
(lp4569
sg56
(lp4570
sg58
I0
sg59
g24
sg60
F0.0
sg61
F0.0
sg62
S'O'
p4571
sg64
g4386
sg29
S'A'
p4572
sg66
F0.0
sg67
(lp4573
sg69
F0.0
sg70
I0
sg71
g24
sg9
S"O4'"
p4574
sg73
F0.0
sg74
(lp4575
sg76
g24
sg77
g24
sg78
F0.0
sg79
S'ATOM  '
p4576
sg81
S' '
p4577
sg83
g24
sg84
(lp4578
I0
aI0
aI0
asg31
S'DG'
p4579
sg86
(lp4580
F6.1
aF-1.634
aF-16.286
asg33
g3794
sg88
F1.0
sba(ipmx.atom
Atom
p4581
(dp4582
g38
(lp4583
sg40
I0
sg22
g4383
sg41
F0.0
sg42
g24
sg43
S" C1'"
p4584
sg45
S' '
p4585
sg47
g24
sg48
I41
sg49
I2
sg25
I41
sg50
F0.0
sg26
S'B'
p4586
sg52
(lp4587
sg54
(lp4588
sg56
(lp4589
sg58
I0
sg59
g24
sg60
F0.0
sg61
F0.0
sg62
S'C'
p4590
sg64
g4386
sg29
S'A'
p4591
sg66
F0.0
sg67
(lp4592
sg69
F0.0
sg70
I0
sg71
g24
sg9
S"C1'"
p4593
sg73
F0.0
sg74
(lp4594
sg76
g24
sg77
g24
sg78
F0.0
sg79
S'ATOM  '
p4595
sg81
S' '
p4596
sg83
g24
sg84
(lp4597
I0
aI0
aI0
asg31
S'DG'
p4598
sg86
(lp4599
F5.527
aF-1.697
aF-14.998
asg33
g3794
sg88
F1.0
sba(ipmx.atom
Atom
p4600
(dp4601
g38
(lp4602
sg40
I0
sg22
g4383
sg41
F0.0
sg42
g24
sg43
S" H1'"
p4603
sg45
S' '
p4604
sg47
g24
sg48
I42
sg49
I2
sg25
I42
sg50
F0.0
sg26
S'B'
p4605
sg52
(lp4606
sg54
(lp4607
sg56
(lp4608
sg58
I0
sg59
g24
sg60
F0.0
sg61
F0.0
sg62
S'H'
p4609
sg64
g4386
sg29
S'A'
p4610
sg66
F0.0
sg67
(lp4611
sg69
F0.0
sg70
I0
sg71
g24
sg9
S"H1'"
p4612
sg73
F0.0
sg74
(lp4613
sg76
g24
sg77
g24
sg78
F0.0
sg79
S'ATOM  '
p4614
sg81
S' '
p4615
sg83
g24
sg84
(lp4616
I0
aI0
aI0
asg31
S'DG'
p4617
sg86
(lp4618
F5.527
aF-0.713
aF-14.531
asg33
g3794
sg88
F1.0
sba(ipmx.atom
Atom
p4619
(dp4620
g38
(lp4621
sg40
I0
sg22
g4383
sg41
F0.0
sg42
g24
sg43
S' N9 '
p4622
sg45
S' '
p4623
sg47
g24
sg48
I43
sg49
I2
sg25
I43
sg50
F0.0
sg26
S'B'
p4624
sg52
(lp4625
sg54
(lp4626
sg56
(lp4627
sg58
I0
sg59
g24
sg60
F0.0
sg61
F0.0
sg62
S'N'
p4628
sg64
g4386
sg29
S'A'
p4629
sg66
F0.0
sg67
(lp4630
sg69
F0.0
sg70
I0
sg71
g24
sg9
S'N9'
p4631
sg73
F0.0
sg74
(lp4632
sg76
g24
sg77
g24
sg78
F0.0
sg79
S'ATOM  '
p4633
sg81
S' '
p4634
sg83
g24
sg84
(lp4635
I0
aI0
aI0
asg31
S'DG'
p4636
sg86
(lp4637
F4.124
aF-2.185
aF-15.037
asg33
g3794
sg88
F1.0
sba(ipmx.atom
Atom
p4638
(dp4639
g38
(lp4640
sg40
I0
sg22
g4383
sg41
F0.0
sg42
g24
sg43
S' C8 '
p4641
sg45
S' '
p4642
sg47
g24
sg48
I44
sg49
I2
sg25
I44
sg50
F0.0
sg26
S'B'
p4643
sg52
(lp4644
sg54
(lp4645
sg56
(lp4646
sg58
I0
sg59
g24
sg60
F0.0
sg61
F0.0
sg62
S'C'
p4647
sg64
g4386
sg29
S'A'
p4648
sg66
F0.0
sg67
(lp4649
sg69
F0.0
sg70
I0
sg71
g24
sg9
S'C8'
p4650
sg73
F0.0
sg74
(lp4651
sg76
g24
sg77
g24
sg78
F0.0
sg79
S'ATOM  '
p4652
sg81
S' '
p4653
sg83
g24
sg84
(lp4654
I0
aI0
aI0
asg31
S'DG'
p4655
sg86
(lp4656
F3.637
aF-3.466
aF-15.084
asg33
g3794
sg88
F1.0
sba(ipmx.atom
Atom
p4657
(dp4658
g38
(lp4659
sg40
I0
sg22
g4383
sg41
F0.0
sg42
g24
sg43
S' H8 '
p4660
sg45
S' '
p4661
sg47
g24
sg48
I45
sg49
I2
sg25
I45
sg50
F0.0
sg26
S'B'
p4662
sg52
(lp4663
sg54
(lp4664
sg56
(lp4665
sg58
I0
sg59
g24
sg60
F0.0
sg61
F0.0
sg62
S'H'
p4666
sg64
g4386
sg29
S'A'
p4667
sg66
F0.0
sg67
(lp4668
sg69
F0.0
sg70
I0
sg71
g24
sg9
S'H8'
p4669
sg73
F0.0
sg74
(lp4670
sg76
g24
sg77
g24
sg78
F0.0
sg79
S'ATOM  '
p4671
sg81
S' '
p4672
sg83
g24
sg84
(lp4673
I0
aI0
aI0
asg31
S'DG'
p4674
sg86
(lp4675
F4.289
aF-4.327
aF-15.084
asg33
g3794
sg88
F1.0
sba(ipmx.atom
Atom
p4676
(dp4677
g38
(lp4678
sg40
I0
sg22
g4383
sg41
F0.0
sg42
g24
sg43
S' N7 '
p4679
sg45
S' '
p4680
sg47
g24
sg48
I46
sg49
I2
sg25
I46
sg50
F0.0
sg26
S'B'
p4681
sg52
(lp4682
sg54
(lp4683
sg56
(lp4684
sg58
I0
sg59
g24
sg60
F0.0
sg61
F0.0
sg62
S'N'
p4685
sg64
g4386
sg29
S'A'
p4686
sg66
F0.0
sg67
(lp4687
sg69
F0.0
sg70
I0
sg71
g24
sg9
S'N7'
p4688
sg73
F0.0
sg74
(lp4689
sg76
g24
sg77
g24
sg78
F0.0
sg79
S'ATOM  '
p4690
sg81
S' '
p4691
sg83
g24
sg84
(lp4692
I0
aI0
aI0
asg31
S'DG'
p4693
sg86
(lp4694
F2.336
aF-3.552
aF-15.151
asg33
g3794
sg88
F1.0
sba(ipmx.atom
Atom
p4695
(dp4696
g38
(lp4697
sg40
I0
sg22
g4383
sg41
F0.0
sg42
g24
sg43
S' C5 '
p4698
sg45
S' '
p4699
sg47
g24
sg48
I47
sg49
I2
sg25
I47
sg50
F0.0
sg26
S'B'
p4700
sg52
(lp4701
sg54
(lp4702
sg56
(lp4703
sg58
I0
sg59
g24
sg60
F0.0
sg61
F0.0
sg62
S'C'
p4704
sg64
g4386
sg29
S'A'
p4705
sg66
F0.0
sg67
(lp4706
sg69
F0.0
sg70
I0
sg71
g24
sg9
S'C5'
p4707
sg73
F0.0
sg74
(lp4708
sg76
g24
sg77
g24
sg78
F0.0
sg79
S'ATOM  '
p4709
sg81
S' '
p4710
sg83
g24
sg84
(lp4711
I0
aI0
aI0
asg31
S'DG'
p4712
sg86
(lp4713
F1.926
aF-2.218
aF-15.105
asg33
g3794
sg88
F1.0
sba(ipmx.atom
Atom
p4714
(dp4715
g38
(lp4716
sg40
I0
sg22
g4383
sg41
F0.0
sg42
g24
sg43
S' C6 '
p4717
sg45
S' '
p4718
sg47
g24
sg48
I48
sg49
I2
sg25
I48
sg50
F0.0
sg26
S'B'
p4719
sg52
(lp4720
sg54
(lp4721
sg56
(lp4722
sg58
I0
sg59
g24
sg60
F0.0
sg61
F0.0
sg62
S'C'
p4723
sg64
g4386
sg29
S'A'
p4724
sg66
F0.0
sg67
(lp4725
sg69
F0.0
sg70
I0
sg71
g24
sg9
S'C6'
p4726
sg73
F0.0
sg74
(lp4727
sg76
g24
sg77
g24
sg78
F0.0
sg79
S'ATOM  '
p4728
sg81
S' '
p4729
sg83
g24
sg84
(lp4730
I0
aI0
aI0
asg31
S'DG'
p4731
sg86
(lp4732
F0.622
aF-1.634
aF-15.117
asg33
g3794
sg88
F1.0
sba(ipmx.atom
Atom
p4733
(dp4734
g38
(lp4735
sg40
I0
sg22
g4383
sg41
F0.0
sg42
g24
sg43
S' O6 '
p4736
sg45
S' '
p4737
sg47
g24
sg48
I49
sg49
I2
sg25
I49
sg50
F0.0
sg26
S'B'
p4738
sg52
(lp4739
sg54
(lp4740
sg56
(lp4741
sg58
I0
sg59
g24
sg60
F0.0
sg61
F0.0
sg62
S'O'
p4742
sg64
g4386
sg29
S'A'
p4743
sg66
F0.0
sg67
(lp4744
sg69
F0.0
sg70
I0
sg71
g24
sg9
S'O6'
p4745
sg73
F0.0
sg74
(lp4746
sg76
g24
sg77
g24
sg78
F0.0
sg79
S'ATOM  '
p4747
sg81
S' '
p4748
sg83
g24
sg84
(lp4749
I0
aI0
aI0
asg31
S'DG'
p4750
sg86
(lp4751
F-0.467
aF-2.198
aF-15.178
asg33
g3794
sg88
F1.0
sba(ipmx.atom
Atom
p4752
(dp4753
g38
(lp4754
sg40
I0
sg22
g4383
sg41
F0.0
sg42
g24
sg43
S' N1 '
p4755
sg45
S' '
p4756
sg47
g24
sg48
I50
sg49
I2
sg25
I50
sg50
F0.0
sg26
S'B'
p4757
sg52
(lp4758
sg54
(lp4759
sg56
(lp4760
sg58
I0
sg59
g24
sg60
F0.0
sg61
F0.0
sg62
S'N'
p4761
sg64
g4386
sg29
S'A'
p4762
sg66
F0.0
sg67
(lp4763
sg69
F0.0
sg70
I0
sg71
g24
sg9
S'N1'
p4764
sg73
F0.0
sg74
(lp4765
sg76
g24
sg77
g24
sg78
F0.0
sg79
S'ATOM  '
p4766
sg81
S' '
p4767
sg83
g24
sg84
(lp4768
I0
aI0
aI0
asg31
S'DG'
p4769
sg86
(lp4770
F0.632
aF-0.254
aF-15.038
asg33
g3794
sg88
F1.0
sba(ipmx.atom
Atom
p4771
(dp4772
g38
(lp4773
sg40
I0
sg22
g4383
sg41
F0.0
sg42
g24
sg43
S' H1 '
p4774
sg45
S' '
p4775
sg47
g24
sg48
I51
sg49
I2
sg25
I51
sg50
F0.0
sg26
S'B'
p4776
sg52
(lp4777
sg54
(lp4778
sg56
(lp4779
sg58
I0
sg59
g24
sg60
F0.0
sg61
F0.0
sg62
S'H'
p4780
sg64
g4386
sg29
S'A'
p4781
sg66
F0.0
sg67
(lp4782
sg69
F0.0
sg70
I0
sg71
g24
sg9
S'H1'
p4783
sg73
F0.0
sg74
(lp4784
sg76
g24
sg77
g24
sg78
F0.0
sg79
S'ATOM  '
p4785
sg81
S' '
p4786
sg83
g24
sg84
(lp4787
I0
aI0
aI0
asg31
S'DG'
p4788
sg86
(lp4789
F-0.255
aF0.22
aF-15.048
asg33
g3794
sg88
F1.0
sba(ipmx.atom
Atom
p4790
(dp4791
g38
(lp4792
sg40
I0
sg22
g4383
sg41
F0.0
sg42
g24
sg43
S' C2 '
p4793
sg45
S' '
p4794
sg47
g24
sg48
I52
sg49
I2
sg25
I52
sg50
F0.0
sg26
S'B'
p4795
sg52
(lp4796
sg54
(lp4797
sg56
(lp4798
sg58
I0
sg59
g24
sg60
F0.0
sg61
F0.0
sg62
S'C'
p4799
sg64
g4386
sg29
S'A'
p4800
sg66
F0.0
sg67
(lp4801
sg69
F0.0
sg70
I0
sg71
g24
sg9
S'C2'
p4802
sg73
F0.0
sg74
(lp4803
sg76
g24
sg77
g24
sg78
F0.0
sg79
S'ATOM  '
p4804
sg81
S' '
p4805
sg83
g24
sg84
(lp4806
I0
aI0
aI0
asg31
S'DG'
p4807
sg86
(lp4808
F1.759
aF0.491
aF-14.946
asg33
g3794
sg88
F1.0
sba(ipmx.atom
Atom
p4809
(dp4810
g38
(lp4811
sg40
I0
sg22
g4383
sg41
F0.0
sg42
g24
sg43
S' N2 '
p4812
sg45
S' '
p4813
sg47
g24
sg48
I53
sg49
I2
sg25
I53
sg50
F0.0
sg26
S'B'
p4814
sg52
(lp4815
sg54
(lp4816
sg56
(lp4817
sg58
I0
sg59
g24
sg60
F0.0
sg61
F0.0
sg62
S'N'
p4818
sg64
g4386
sg29
S'A'
p4819
sg66
F0.0
sg67
(lp4820
sg69
F0.0
sg70
I0
sg71
g24
sg9
S'N2'
p4821
sg73
F0.0
sg74
(lp4822
sg76
g24
sg77
g24
sg78
F0.0
sg79
S'ATOM  '
p4823
sg81
S' '
p4824
sg83
g24
sg84
(lp4825
I0
aI0
aI0
asg31
S'DG'
p4826
sg86
(lp4827
F1.595
aF1.789
aF-14.858
asg33
g3794
sg88
F1.0
sba(ipmx.atom
Atom
p4828
(dp4829
g38
(lp4830
sg40
I0
sg22
g4383
sg41
F0.0
sg42
g24
sg43
S' H21'
p4831
sg45
S' '
p4832
sg47
g24
sg48
I54
sg49
I2
sg25
I54
sg50
F0.0
sg26
S'B'
p4833
sg52
(lp4834
sg54
(lp4835
sg56
(lp4836
sg58
I0
sg59
g24
sg60
F0.0
sg61
F0.0
sg62
S'H'
p4837
sg64
g4386
sg29
S'A'
p4838
sg66
F0.0
sg67
(lp4839
sg69
F0.0
sg70
I0
sg71
g24
sg9
S'H21'
p4840
sg73
F0.0
sg74
(lp4841
sg76
g24
sg77
g24
sg78
F0.0
sg79
S'ATOM  '
p4842
sg81
S' '
p4843
sg83
g24
sg84
(lp4844
I0
aI0
aI0
asg31
S'DG'
p4845
sg86
(lp4846
F2.411
aF2.366
aF-14.77
asg33
g3794
sg88
F1.0
sba(ipmx.atom
Atom
p4847
(dp4848
g38
(lp4849
sg40
I0
sg22
g4383
sg41
F0.0
sg42
g24
sg43
S' H22'
p4850
sg45
S' '
p4851
sg47
g24
sg48
I55
sg49
I2
sg25
I55
sg50
F0.0
sg26
S'B'
p4852
sg52
(lp4853
sg54
(lp4854
sg56
(lp4855
sg58
I0
sg59
g24
sg60
F0.0
sg61
F0.0
sg62
S'H'
p4856
sg64
g4386
sg29
S'A'
p4857
sg66
F0.0
sg67
(lp4858
sg69
F0.0
sg70
I0
sg71
g24
sg9
S'H22'
p4859
sg73
F0.0
sg74
(lp4860
sg76
g24
sg77
g24
sg78
F0.0
sg79
S'ATOM  '
p4861
sg81
S' '
p4862
sg83
g24
sg84
(lp4863
I0
aI0
aI0
asg31
S'DG'
p4864
sg86
(lp4865
F0.66
aF2.201
aF-14.884
asg33
g3794
sg88
F1.0
sba(ipmx.atom
Atom
p4866
(dp4867
g38
(lp4868
sg40
I0
sg22
g4383
sg41
F0.0
sg42
g24
sg43
S' N3 '
p4869
sg45
S' '
p4870
sg47
g24
sg48
I56
sg49
I2
sg25
I56
sg50
F0.0
sg26
S'B'
p4871
sg52
(lp4872
sg54
(lp4873
sg56
(lp4874
sg58
I0
sg59
g24
sg60
F0.0
sg61
F0.0
sg62
S'N'
p4875
sg64
g4386
sg29
S'A'
p4876
sg66
F0.0
sg67
(lp4877
sg69
F0.0
sg70
I0
sg71
g24
sg9
S'N3'
p4878
sg73
F0.0
sg74
(lp4879
sg76
g24
sg77
g24
sg78
F0.0
sg79
S'ATOM  '
p4880
sg81
S' '
p4881
sg83
g24
sg84
(lp4882
I0
aI0
aI0
asg31
S'DG'
p4883
sg86
(lp4884
F2.992
aF-0.007
aF-14.915
asg33
g3794
sg88
F1.0
sba(ipmx.atom
Atom
p4885
(dp4886
g38
(lp4887
sg40
I0
sg22
g4383
sg41
F0.0
sg42
g24
sg43
S' C4 '
p4888
sg45
S' '
p4889
sg47
g24
sg48
I57
sg49
I2
sg25
I57
sg50
F0.0
sg26
S'B'
p4890
sg52
(lp4891
sg54
(lp4892
sg56
(lp4893
sg58
I0
sg59
g24
sg60
F0.0
sg61
F0.0
sg62
S'C'
p4894
sg64
g4386
sg29
S'A'
p4895
sg66
F0.0
sg67
(lp4896
sg69
F0.0
sg70
I0
sg71
g24
sg9
S'C4'
p4897
sg73
F0.0
sg74
(lp4898
sg76
g24
sg77
g24
sg78
F0.0
sg79
S'ATOM  '
p4899
sg81
S' '
p4900
sg83
g24
sg84
(lp4901
I0
aI0
aI0
asg31
S'DG'
p4902
sg86
(lp4903
F3.013
aF-1.373
aF-15.015
asg33
g3794
sg88
F1.0
sba(ipmx.atom
Atom
p4904
(dp4905
g38
(lp4906
sg40
I0
sg22
g4383
sg41
F0.0
sg42
g24
sg43
S" C3'"
p4907
sg45
S' '
p4908
sg47
g24
sg48
I58
sg49
I2
sg25
I58
sg50
F0.0
sg26
S'B'
p4909
sg52
(lp4910
sg54
(lp4911
sg56
(lp4912
sg58
I0
sg59
g24
sg60
F0.0
sg61
F0.0
sg62
S'C'
p4913
sg64
g4386
sg29
S'A'
p4914
sg66
F0.0
sg67
(lp4915
sg69
F0.0
sg70
I0
sg71
g24
sg9
S"C3'"
p4916
sg73
F0.0
sg74
(lp4917
sg76
g24
sg77
g24
sg78
F0.0
sg79
S'ATOM  '
p4918
sg81
S' '
p4919
sg83
g24
sg84
(lp4920
I0
aI0
aI0
asg31
S'DG'
p4921
sg86
(lp4922
F7.853
aF-2.511
aF-14.853
asg33
g3794
sg88
F1.0
sba(ipmx.atom
Atom
p4923
(dp4924
g38
(lp4925
sg40
I0
sg22
g4383
sg41
F0.0
sg42
g24
sg43
S" H3'"
p4926
sg45
S' '
p4927
sg47
g24
sg48
I59
sg49
I2
sg25
I59
sg50
F0.0
sg26
S'B'
p4928
sg52
(lp4929
sg54
(lp4930
sg56
(lp4931
sg58
I0
sg59
g24
sg60
F0.0
sg61
F0.0
sg62
S'H'
p4932
sg64
g4386
sg29
S'A'
p4933
sg66
F0.0
sg67
(lp4934
sg69
F0.0
sg70
I0
sg71
g24
sg9
S"H3'"
p4935
sg73
F0.0
sg74
(lp4936
sg76
g24
sg77
g24
sg78
F0.0
sg79
S'ATOM  '
p4937
sg81
S' '
p4938
sg83
g24
sg84
(lp4939
I0
aI0
aI0
asg31
S'DG'
p4940
sg86
(lp4941
F8.361
aF-3.46
aF-14.677
asg33
g3794
sg88
F1.0
sba(ipmx.atom
Atom
p4942
(dp4943
g38
(lp4944
sg40
I0
sg22
g4383
sg41
F0.0
sg42
g24
sg43
S" C2'"
p4945
sg45
S' '
p4946
sg47
g24
sg48
I60
sg49
I2
sg25
I60
sg50
F0.0
sg26
S'B'
p4947
sg52
(lp4948
sg54
(lp4949
sg56
(lp4950
sg58
I0
sg59
g24
sg60
F0.0
sg61
F0.0
sg62
S'C'
p4951
sg64
g4386
sg29
S'A'
p4952
sg66
F0.0
sg67
(lp4953
sg69
F0.0
sg70
I0
sg71
g24
sg9
S"C2'"
p4954
sg73
F0.0
sg74
(lp4955
sg76
g24
sg77
g24
sg78
F0.0
sg79
S'ATOM  '
p4956
sg81
S' '
p4957
sg83
g24
sg84
(lp4958
I0
aI0
aI0
asg31
S'DG'
p4959
sg86
(lp4960
F6.497
aF-2.544
aF-14.206
asg33
g3794
sg88
F1.0
sba(ipmx.atom
Atom
p4961
(dp4962
g38
(lp4963
sg40
I0
sg22
g4383
sg41
F0.0
sg42
g24
sg43
S"1H2'"
p4964
sg45
S' '
p4965
sg47
g24
sg48
I61
sg49
I2
sg25
I61
sg50
F0.0
sg26
S'B'
p4966
sg52
(lp4967
sg54
(lp4968
sg56
(lp4969
sg58
I0
sg59
g24
sg60
F0.0
sg61
F0.0
sg62
S'H'
p4970
sg64
g4386
sg29
S'A'
p4971
sg66
F0.0
sg67
(lp4972
sg69
F0.0
sg70
I0
sg71
g24
sg9
S"H2'1"
p4973
sg73
F0.0
sg74
(lp4974
sg76
g24
sg77
g24
sg78
F0.0
sg79
S'ATOM  '
p4975
sg81
S' '
p4976
sg83
g24
sg84
(lp4977
I0
aI0
aI0
asg31
S'DG'
p4978
sg86
(lp4979
F6.142
aF-3.576
aF-14.139
asg33
g3794
sg88
F1.0
sba(ipmx.atom
Atom
p4980
(dp4981
g38
(lp4982
sg40
I0
sg22
g4383
sg41
F0.0
sg42
g24
sg43
S"2H2'"
p4983
sg45
S' '
p4984
sg47
g24
sg48
I62
sg49
I2
sg25
I62
sg50
F0.0
sg26
S'B'
p4985
sg52
(lp4986
sg54
(lp4987
sg56
(lp4988
sg58
I0
sg59
g24
sg60
F0.0
sg61
F0.0
sg62
S'H'
p4989
sg64
g4386
sg29
S'A'
p4990
sg66
F0.0
sg67
(lp4991
sg69
F0.0
sg70
I0
sg71
g24
sg9
S"H2'2"
p4992
sg73
F0.0
sg74
(lp4993
sg76
g24
sg77
g24
sg78
F0.0
sg79
S'ATOM  '
p4994
sg81
S' '
p4995
sg83
g24
sg84
(lp4996
I0
aI0
aI0
asg31
S'DG'
p4997
sg86
(lp4998
F6.62
aF-2.083
aF-13.255
asg33
g3794
sg88
F1.0
sba(ipmx.atom
Atom
p4999
(dp5000
g38
(lp5001
sg40
I0
sg22
g4383
sg41
F0.0
sg42
g24
sg43
S" O3'"
p5002
sg45
S' '
p5003
sg47
g24
sg48
I63
sg49
I2
sg25
I63
sg50
F0.0
sg26
S'B'
p5004
sg52
(lp5005
sg54
(lp5006
sg56
(lp5007
sg58
I0
sg59
g24
sg60
F0.0
sg61
F0.0
sg62
S'O'
p5008
sg64
g4386
sg29
S'A'
p5009
sg66
F0.0
sg67
(lp5010
sg69
F0.0
sg70
I0
sg71
g24
sg9
S"O3'"
p5011
sg73
F0.0
sg74
(lp5012
sg76
g24
sg77
g24
sg78
F0.0
sg79
S'ATOM  '
p5013
sg81
S' '
p5014
sg83
g24
sg84
(lp5015
I0
aI0
aI0
asg31
S'DG'
p5016
sg86
(lp5017
F8.714
aF-1.421
aF-14.453
asg33
g3794
sg88
F1.0
sbasg48
I2
sg678
Nsbasg34
(lp5018
g4392
ag4410
ag4429
ag4448
ag4467
ag4486
ag4505
ag4524
ag4543
ag4562
ag4581
ag4600
ag4619
ag4638
ag4657
ag4676
ag4695
ag4714
ag4733
ag4752
ag4771
ag4790
ag4809
ag4828
ag4847
ag4866
ag4885
ag4904
ag4923
ag4942
ag4961
ag4980
ag4999
asg680
I0
sg29
S'A'
p5019
sg33
g3794
sg682
I00
sg48
S'B'
p5020
sbssg17
(lp5021
g3805
ag4386
asg34
(lp5022
g3811
ag3829
ag3848
ag3867
ag3886
ag3905
ag3924
ag3943
ag3962
ag3981
ag4000
ag4019
ag4038
ag4057
ag4076
ag4095
ag4114
ag4133
ag4152
ag4171
ag4190
ag4209
ag4228
ag4247
ag4265
ag4284
ag4303
ag4322
ag4341
ag4360
ag4392
ag4410
ag4429
ag4448
ag4467
ag4486
ag4505
ag4524
ag4543
ag4562
ag4581
ag4600
ag4619
ag4638
ag4657
ag4676
ag4695
ag4714
ag4733
ag4752
ag4771
ag4790
ag4809
ag4828
ag4847
ag4866
ag4885
ag4904
ag4923
ag4942
ag4961
ag4980
ag4999
asg29
S'A'
p5023
sg1307
(lp5024
g3802
ag4383
asg48
I0
sg1309
I0
sbs.