(dp0
S'a'
p1
(ipmx.model
Model
p2
(dp3
S'box'
p4
(lp5
(lp6
I0
aI0
aI0
aa(lp7
I0
aI0
aI0
aa(lp8
I0
aI0
aI0
aasS'name'
p9
NsS'title'
p10
S'PMX MODEL'
p11
sS'chdic'
p12
(dp13
S'A'
p14
(ipmx.chain
Chain
p15
(dp16
S'residues'
p17
(lp18
(ipmx.molecule
Molecule
p19
(dp20
S'natoms'
p21
I0
sS'chain'
p22
g15
sS'real_resname'
p23
S''
p24
sS'orig_id'
p25
I1
sS'chain_id'
p26
S'A'
p27
sS'next'
p28
NsS'unity'
p29
S'A'
p30
sS'resname'
p31
S'DT'
p32
sS'model'
p33
g2
sS'atoms'
p34
(lp35
(ipmx.atom
Atom
p36
(dp37
S'neighbors'
p38
(lp39
sS'code'
p40
I0
sg22
g15
sS'm'
p41
F0.0
sS'ptype'
p42
g24
sS'long_name'
p43
S' P  '
p44
sS'altloc'
p45
S' '
p46
sS'atomtypeB'
p47
g24
sS'id'
p48
I1
sg25
I1
sS'vdw14'
p49
F0.0
sg26
S'A'
p50
sS'b14'
p51
(lp52
sS'b13'
p53
(lp54
sS'bonds'
p55
(lp56
sS'order'
p57
I0
sS'type'
p58
g24
sS'symbol'
p59
S'P'
p60
sS'bfac'
p61
F0.0
sS'mB'
p62
F0.0
sS'resnr'
p63
I1
sS'molecule'
p64
g19
sg29
S'A'
p65
sS'qB'
p66
F0.0
sS'connected'
p67
(lp68
sS'cgnr'
p69
F0.0
sS'boxid'
p70
I0
sS'hyb'
p71
g24
sg9
S'P'
p72
sS'vdw'
p73
F0.0
sS'f'
p74
(lp75
sS'atype'
p76
g24
sS'typeB'
p77
g24
sS'q'
p78
F0.0
sS'race'
p79
S'ATOM  '
p80
sS'grpnr'
p81
S' '
p82
sS'atomtype'
p83
g24
sS'v'
p84
(lp85
I0
aI0
aI0
asg31
g32
sS'x'
p86
(lp87
F-8.181
aF3.77
aF-13.834
asg33
g2
sS'occ'
p88
F1.0
sba(ipmx.atom
Atom
p89
(dp90
g38
(lp91
sg40
I0
sg22
g15
sg41
F0.0
sg42
g24
sg43
S' O1P'
p92
sg45
S' '
p93
sg47
g24
sg48
I2
sg25
I2
sg49
F0.0
sg26
S'A'
p94
sg51
(lp95
sg53
(lp96
sg55
(lp97
sg57
I0
sg58
g24
sg59
S'O'
p98
sg61
F0.0
sg62
F0.0
sg63
I1
sg64
g19
sg29
S'A'
p99
sg66
F0.0
sg67
(lp100
sg69
F0.0
sg70
I0
sg71
g24
sg9
S'O1P'
p101
sg73
F0.0
sg74
(lp102
sg76
g24
sg77
g24
sg78
F0.0
sg79
S'ATOM  '
p103
sg81
S' '
p104
sg83
g24
sg84
(lp105
I0
aI0
aI0
asg31
S'DT'
p106
sg86
(lp107
F-8.886
aF5.063
aF-14.001
asg33
g2
sg88
F1.0
sba(ipmx.atom
Atom
p108
(dp109
g38
(lp110
sg40
I0
sg22
g15
sg41
F0.0
sg42
g24
sg43
S' O2P'
p111
sg45
S' '
p112
sg47
g24
sg48
I3
sg25
I3
sg49
F0.0
sg26
S'A'
p113
sg51
(lp114
sg53
(lp115
sg55
(lp116
sg57
I0
sg58
g24
sg59
S'O'
p117
sg61
F0.0
sg62
F0.0
sg63
I1
sg64
g19
sg29
S'A'
p118
sg66
F0.0
sg67
(lp119
sg69
F0.0
sg70
I0
sg71
g24
sg9
S'O2P'
p120
sg73
F0.0
sg74
(lp121
sg76
g24
sg77
g24
sg78
F0.0
sg79
S'ATOM  '
p122
sg81
S' '
p123
sg83
g24
sg84
(lp124
I0
aI0
aI0
asg31
S'DT'
p125
sg86
(lp126
F-8.536
aF2.608
aF-14.668
asg33
g2
sg88
F1.0
sba(ipmx.atom
Atom
p127
(dp128
g38
(lp129
sg40
I0
sg22
g15
sg41
F0.0
sg42
g24
sg43
S" O5'"
p130
sg45
S' '
p131
sg47
g24
sg48
I4
sg25
I4
sg49
F0.0
sg26
S'A'
p132
sg51
(lp133
sg53
(lp134
sg55
(lp135
sg57
I0
sg58
g24
sg59
S'O'
p136
sg61
F0.0
sg62
F0.0
sg63
I1
sg64
g19
sg29
S'A'
p137
sg66
F0.0
sg67
(lp138
sg69
F0.0
sg70
I0
sg71
g24
sg9
S"O5'"
p139
sg73
F0.0
sg74
(lp140
sg76
g24
sg77
g24
sg78
F0.0
sg79
S'ATOM  '
p141
sg81
S' '
p142
sg83
g24
sg84
(lp143
I0
aI0
aI0
asg31
S'DT'
p144
sg86
(lp145
F-6.641
aF4.095
aF-14.022
asg33
g2
sg88
F1.0
sba(ipmx.atom
Atom
p146
(dp147
g38
(lp148
sg40
I0
sg22
g15
sg41
F0.0
sg42
g24
sg43
S" C5'"
p149
sg45
S' '
p150
sg47
g24
sg48
I5
sg25
I5
sg49
F0.0
sg26
S'A'
p151
sg51
(lp152
sg53
(lp153
sg55
(lp154
sg57
I0
sg58
g24
sg59
S'C'
p155
sg61
F0.0
sg62
F0.0
sg63
I1
sg64
g19
sg29
S'A'
p156
sg66
F0.0
sg67
(lp157
sg69
F0.0
sg70
I0
sg71
g24
sg9
S"C5'"
p158
sg73
F0.0
sg74
(lp159
sg76
g24
sg77
g24
sg78
F0.0
sg79
S'ATOM  '
p160
sg81
S' '
p161
sg83
g24
sg84
(lp162
I0
aI0
aI0
asg31
S'DT'
p163
sg86
(lp164
F-5.962
aF4.931
aF-13.101
asg33
g2
sg88
F1.0
sba(ipmx.atom
Atom
p165
(dp166
g38
(lp167
sg40
I0
sg22
g15
sg41
F0.0
sg42
g24
sg43
S"1H5'"
p168
sg45
S' '
p169
sg47
g24
sg48
I6
sg25
I6
sg49
F0.0
sg26
S'A'
p170
sg51
(lp171
sg53
(lp172
sg55
(lp173
sg57
I0
sg58
g24
sg59
S'H'
p174
sg61
F0.0
sg62
F0.0
sg63
I1
sg64
g19
sg29
S'A'
p175
sg66
F0.0
sg67
(lp176
sg69
F0.0
sg70
I0
sg71
g24
sg9
S"H5'"
p177
sg73
F0.0
sg74
(lp178
sg76
g24
sg77
g24
sg78
F0.0
sg79
S'ATOM  '
p179
sg81
S' '
p180
sg83
g24
sg84
(lp181
I0
aI0
aI0
asg31
S'DT'
p182
sg86
(lp183
F-6.68
aF5.639
aF-12.687
asg33
g2
sg88
F1.0
sba(ipmx.atom
Atom
p184
(dp185
g38
(lp186
sg40
I0
sg22
g15
sg41
F0.0
sg42
g24
sg43
S"2H5'"
p187
sg45
S' '
p188
sg47
g24
sg48
I7
sg25
I7
sg49
F0.0
sg26
S'A'
p189
sg51
(lp190
sg53
(lp191
sg55
(lp192
sg57
I0
sg58
g24
sg59
S'H'
p193
sg61
F0.0
sg62
F0.0
sg63
I1
sg64
g19
sg29
S'A'
p194
sg66
F0.0
sg67
(lp195
sg69
F0.0
sg70
I0
sg71
g24
sg9
S"H5''"
p196
sg73
F0.0
sg74
(lp197
sg76
g24
sg77
g24
sg78
F0.0
sg79
S'ATOM  '
p198
sg81
S' '
p199
sg83
g24
sg84
(lp200
I0
aI0
aI0
asg31
S'DT'
p201
sg86
(lp202
F-5.603
aF4.323
aF-12.268
asg33
g2
sg88
F1.0
sba(ipmx.atom
Atom
p203
(dp204
g38
(lp205
sg40
I0
sg22
g15
sg41
F0.0
sg42
g24
sg43
S" C4'"
p206
sg45
S' '
p207
sg47
g24
sg48
I8
sg25
I8
sg49
F0.0
sg26
S'A'
p208
sg51
(lp209
sg53
(lp210
sg55
(lp211
sg57
I0
sg58
g24
sg59
S'C'
p212
sg61
F0.0
sg62
F0.0
sg63
I1
sg64
g19
sg29
S'A'
p213
sg66
F0.0
sg67
(lp214
sg69
F0.0
sg70
I0
sg71
g24
sg9
S"C4'"
p215
sg73
F0.0
sg74
(lp216
sg76
g24
sg77
g24
sg78
F0.0
sg79
S'ATOM  '
p217
sg81
S' '
p218
sg83
g24
sg84
(lp219
I0
aI0
aI0
asg31
S'DT'
p220
sg86
(lp221
F-4.793
aF5.702
aF-13.739
asg33
g2
sg88
F1.0
sba(ipmx.atom
Atom
p222
(dp223
g38
(lp224
sg40
I0
sg22
g15
sg41
F0.0
sg42
g24
sg43
S" H4'"
p225
sg45
S' '
p226
sg47
g24
sg48
I9
sg25
I9
sg49
F0.0
sg26
S'A'
p227
sg51
(lp228
sg53
(lp229
sg55
(lp230
sg57
I0
sg58
g24
sg59
S'H'
p231
sg61
F0.0
sg62
F0.0
sg63
I1
sg64
g19
sg29
S'A'
p232
sg66
F0.0
sg67
(lp233
sg69
F0.0
sg70
I0
sg71
g24
sg9
S"H4'"
p234
sg73
F0.0
sg74
(lp235
sg76
g24
sg77
g24
sg78
F0.0
sg79
S'ATOM  '
p236
sg81
S' '
p237
sg83
g24
sg84
(lp238
I0
aI0
aI0
asg31
S'DT'
p239
sg86
(lp240
F-4.59
aF6.548
aF-13.089
asg33
g2
sg88
F1.0
sba(ipmx.atom
Atom
p241
(dp242
g38
(lp243
sg40
I0
sg22
g15
sg41
F0.0
sg42
g24
sg43
S" O4'"
p244
sg45
S' '
p245
sg47
g24
sg48
I10
sg25
I10
sg49
F0.0
sg26
S'A'
p246
sg51
(lp247
sg53
(lp248
sg55
(lp249
sg57
I0
sg58
g24
sg59
S'O'
p250
sg61
F0.0
sg62
F0.0
sg63
I1
sg64
g19
sg29
S'A'
p251
sg66
F0.0
sg67
(lp252
sg69
F0.0
sg70
I0
sg71
g24
sg9
S"O4'"
p253
sg73
F0.0
sg74
(lp254
sg76
g24
sg77
g24
sg78
F0.0
sg79
S'ATOM  '
p255
sg81
S' '
p256
sg83
g24
sg84
(lp257
I0
aI0
aI0
asg31
S'DT'
p258
sg86
(lp259
F-3.664
aF4.832
aF-13.748
asg33
g2
sg88
F1.0
sba(ipmx.atom
Atom
p260
(dp261
g38
(lp262
sg40
I0
sg22
g15
sg41
F0.0
sg42
g24
sg43
S" C1'"
p263
sg45
S' '
p264
sg47
g24
sg48
I11
sg25
I11
sg49
F0.0
sg26
S'A'
p265
sg51
(lp266
sg53
(lp267
sg55
(lp268
sg57
I0
sg58
g24
sg59
S'C'
p269
sg61
F0.0
sg62
F0.0
sg63
I1
sg64
g19
sg29
S'A'
p270
sg66
F0.0
sg67
(lp271
sg69
F0.0
sg70
I0
sg71
g24
sg9
S"C1'"
p272
sg73
F0.0
sg74
(lp273
sg76
g24
sg77
g24
sg78
F0.0
sg79
S'ATOM  '
p274
sg81
S' '
p275
sg83
g24
sg84
(lp276
I0
aI0
aI0
asg31
S'DT'
p277
sg86
(lp278
F-3.472
aF4.351
aF-15.067
asg33
g2
sg88
F1.0
sba(ipmx.atom
Atom
p279
(dp280
g38
(lp281
sg40
I0
sg22
g15
sg41
F0.0
sg42
g24
sg43
S" H1'"
p282
sg45
S' '
p283
sg47
g24
sg48
I12
sg25
I12
sg49
F0.0
sg26
S'A'
p284
sg51
(lp285
sg53
(lp286
sg55
(lp287
sg57
I0
sg58
g24
sg59
S'H'
p288
sg61
F0.0
sg62
F0.0
sg63
I1
sg64
g19
sg29
S'A'
p289
sg66
F0.0
sg67
(lp290
sg69
F0.0
sg70
I0
sg71
g24
sg9
S"H1'"
p291
sg73
F0.0
sg74
(lp292
sg76
g24
sg77
g24
sg78
F0.0
sg79
S'ATOM  '
p293
sg81
S' '
p294
sg83
g24
sg84
(lp295
I0
aI0
aI0
asg31
S'DT'
p296
sg86
(lp297
F-2.531
aF4.763
aF-15.444
asg33
g2
sg88
F1.0
sba(ipmx.atom
Atom
p298
(dp299
g38
(lp300
sg40
I0
sg22
g15
sg41
F0.0
sg42
g24
sg43
S' N1 '
p301
sg45
S' '
p302
sg47
g24
sg48
I13
sg25
I13
sg49
F0.0
sg26
S'A'
p303
sg51
(lp304
sg53
(lp305
sg55
(lp306
sg57
I0
sg58
g24
sg59
S'N'
p307
sg61
F0.0
sg62
F0.0
sg63
I1
sg64
g19
sg29
S'A'
p308
sg66
F0.0
sg67
(lp309
sg69
F0.0
sg70
I0
sg71
g24
sg9
S'N1'
p310
sg73
F0.0
sg74
(lp311
sg76
g24
sg77
g24
sg78
F0.0
sg79
S'ATOM  '
p312
sg81
S' '
p313
sg83
g24
sg84
(lp314
I0
aI0
aI0
asg31
S'DT'
p315
sg86
(lp316
F-3.385
aF2.863
aF-15.071
asg33
g2
sg88
F1.0
sba(ipmx.atom
Atom
p317
(dp318
g38
(lp319
sg40
I0
sg22
g15
sg41
F0.0
sg42
g24
sg43
S' C6 '
p320
sg45
S' '
p321
sg47
g24
sg48
I14
sg25
I14
sg49
F0.0
sg26
S'A'
p322
sg51
(lp323
sg53
(lp324
sg55
(lp325
sg57
I0
sg58
g24
sg59
S'C'
p326
sg61
F0.0
sg62
F0.0
sg63
I1
sg64
g19
sg29
S'A'
p327
sg66
F0.0
sg67
(lp328
sg69
F0.0
sg70
I0
sg71
g24
sg9
S'C6'
p329
sg73
F0.0
sg74
(lp330
sg76
g24
sg77
g24
sg78
F0.0
sg79
S'ATOM  '
p331
sg81
S' '
p332
sg83
g24
sg84
(lp333
I0
aI0
aI0
asg31
S'DT'
p334
sg86
(lp335
F-4.508
aF2.054
aF-15.103
asg33
g2
sg88
F1.0
sba(ipmx.atom
Atom
p336
(dp337
g38
(lp338
sg40
I0
sg22
g15
sg41
F0.0
sg42
g24
sg43
S' H6 '
p339
sg45
S' '
p340
sg47
g24
sg48
I15
sg25
I15
sg49
F0.0
sg26
S'A'
p341
sg51
(lp342
sg53
(lp343
sg55
(lp344
sg57
I0
sg58
g24
sg59
S'H'
p345
sg61
F0.0
sg62
F0.0
sg63
I1
sg64
g19
sg29
S'A'
p346
sg66
F0.0
sg67
(lp347
sg69
F0.0
sg70
I0
sg71
g24
sg9
S'H6'
p348
sg73
F0.0
sg74
(lp349
sg76
g24
sg77
g24
sg78
F0.0
sg79
S'ATOM  '
p350
sg81
S' '
p351
sg83
g24
sg84
(lp352
I0
aI0
aI0
asg31
S'DT'
p353
sg86
(lp354
F-5.49
aF2.493
aF-15.111
asg33
g2
sg88
F1.0
sba(ipmx.atom
Atom
p355
(dp356
g38
(lp357
sg40
I0
sg22
g15
sg41
F0.0
sg42
g24
sg43
S' C5 '
p358
sg45
S' '
p359
sg47
g24
sg48
I16
sg25
I16
sg49
F0.0
sg26
S'A'
p360
sg51
(lp361
sg53
(lp362
sg55
(lp363
sg57
I0
sg58
g24
sg59
S'C'
p364
sg61
F0.0
sg62
F0.0
sg63
I1
sg64
g19
sg29
S'A'
p365
sg66
F0.0
sg67
(lp366
sg69
F0.0
sg70
I0
sg71
g24
sg9
S'C5'
p367
sg73
F0.0
sg74
(lp368
sg76
g24
sg77
g24
sg78
F0.0
sg79
S'ATOM  '
p369
sg81
S' '
p370
sg83
g24
sg84
(lp371
I0
aI0
aI0
asg31
S'DT'
p372
sg86
(lp373
F-4.405
aF0.701
aF-15.134
asg33
g2
sg88
F1.0
sba(ipmx.atom
Atom
p374
(dp375
g38
(lp376
sg40
I0
sg22
g15
sg41
F0.0
sg42
g24
sg43
S' C7 '
p377
sg45
S' '
p378
sg47
g24
sg48
I17
sg25
I17
sg49
F0.0
sg26
S'A'
p379
sg51
(lp380
sg53
(lp381
sg55
(lp382
sg57
I0
sg58
g24
sg59
S'C'
p383
sg61
F0.0
sg62
F0.0
sg63
I1
sg64
g19
sg29
S'A'
p384
sg66
F0.0
sg67
(lp385
sg69
F0.0
sg70
I0
sg71
g24
sg9
S'C5M'
p386
sg73
F0.0
sg74
(lp387
sg76
g24
sg77
g24
sg78
F0.0
sg79
S'ATOM  '
p388
sg81
S' '
p389
sg83
g24
sg84
(lp390
I0
aI0
aI0
asg31
S'DT'
p391
sg86
(lp392
F-5.631
aF-0.199
aF-15.195
asg33
g2
sg88
F1.0
sba(ipmx.atom
Atom
p393
(dp394
g38
(lp395
sg40
I0
sg22
g15
sg41
F0.0
sg42
g24
sg43
S' H71'
p396
sg45
S' '
p397
sg47
g24
sg48
I18
sg25
I18
sg49
F0.0
sg26
S'A'
p398
sg51
(lp399
sg53
(lp400
sg55
(lp401
sg57
I0
sg58
g24
sg59
S'H'
p402
sg61
F0.0
sg62
F0.0
sg63
I1
sg64
g19
sg29
S'A'
p403
sg66
F0.0
sg67
(lp404
sg69
F0.0
sg70
I0
sg71
g24
sg9
S'H51'
p405
sg73
F0.0
sg74
(lp406
sg76
g24
sg77
g24
sg78
F0.0
sg79
S'ATOM  '
p407
sg81
S' '
p408
sg83
g24
sg84
(lp409
I0
aI0
aI0
asg31
S'DT'
p410
sg86
(lp411
F-6.007
aF-0.251
aF-16.208
asg33
g2
sg88
F1.0
sba(ipmx.atom
Atom
p412
(dp413
g38
(lp414
sg40
I0
sg22
g15
sg41
F0.0
sg42
g24
sg43
S' H72'
p415
sg45
S' '
p416
sg47
g24
sg48
I19
sg25
I19
sg49
F0.0
sg26
S'A'
p417
sg51
(lp418
sg53
(lp419
sg55
(lp420
sg57
I0
sg58
g24
sg59
S'H'
p421
sg61
F0.0
sg62
F0.0
sg63
I1
sg64
g19
sg29
S'A'
p422
sg66
F0.0
sg67
(lp423
sg69
F0.0
sg70
I0
sg71
g24
sg9
S'H52'
p424
sg73
F0.0
sg74
(lp425
sg76
g24
sg77
g24
sg78
F0.0
sg79
S'ATOM  '
p426
sg81
S' '
p427
sg83
g24
sg84
(lp428
I0
aI0
aI0
asg31
S'DT'
p429
sg86
(lp430
F-6.464
aF0.147
aF-14.626
asg33
g2
sg88
F1.0
sba(ipmx.atom
Atom
p431
(dp432
g38
(lp433
sg40
I0
sg22
g15
sg41
F0.0
sg42
g24
sg43
S' H73'
p434
sg45
S' '
p435
sg47
g24
sg48
I20
sg25
I20
sg49
F0.0
sg26
S'A'
p436
sg51
(lp437
sg53
(lp438
sg55
(lp439
sg57
I0
sg58
g24
sg59
S'H'
p440
sg61
F0.0
sg62
F0.0
sg63
I1
sg64
g19
sg29
S'A'
p441
sg66
F0.0
sg67
(lp442
sg69
F0.0
sg70
I0
sg71
g24
sg9
S'H53'
p443
sg73
F0.0
sg74
(lp444
sg76
g24
sg77
g24
sg78
F0.0
sg79
S'ATOM  '
p445
sg81
S' '
p446
sg83
g24
sg84
(lp447
I0
aI0
aI0
asg31
S'DT'
p448
sg86
(lp449
F-5.378
aF-1.182
aF-14.796
asg33
g2
sg88
F1.0
sba(ipmx.atom
Atom
p450
(dp451
g38
(lp452
sg40
I0
sg22
g15
sg41
F0.0
sg42
g24
sg43
S' C4 '
p453
sg45
S' '
p454
sg47
g24
sg48
I21
sg25
I21
sg49
F0.0
sg26
S'A'
p455
sg51
(lp456
sg53
(lp457
sg55
(lp458
sg57
I0
sg58
g24
sg59
S'C'
p459
sg61
F0.0
sg62
F0.0
sg63
I1
sg64
g19
sg29
S'A'
p460
sg66
F0.0
sg67
(lp461
sg69
F0.0
sg70
I0
sg71
g24
sg9
S'C4'
p462
sg73
F0.0
sg74
(lp463
sg76
g24
sg77
g24
sg78
F0.0
sg79
S'ATOM  '
p464
sg81
S' '
p465
sg83
g24
sg84
(lp466
I0
aI0
aI0
asg31
S'DT'
p467
sg86
(lp468
F-3.103
aF0.073
aF-15.111
asg33
g2
sg88
F1.0
sba(ipmx.atom
Atom
p469
(dp470
g38
(lp471
sg40
I0
sg22
g15
sg41
F0.0
sg42
g24
sg43
S' O4 '
p472
sg45
S' '
p473
sg47
g24
sg48
I22
sg25
I22
sg49
F0.0
sg26
S'A'
p474
sg51
(lp475
sg53
(lp476
sg55
(lp477
sg57
I0
sg58
g24
sg59
S'O'
p478
sg61
F0.0
sg62
F0.0
sg63
I1
sg64
g19
sg29
S'A'
p479
sg66
F0.0
sg67
(lp480
sg69
F0.0
sg70
I0
sg71
g24
sg9
S'O4'
p481
sg73
F0.0
sg74
(lp482
sg76
g24
sg77
g24
sg78
F0.0
sg79
S'ATOM  '
p483
sg81
S' '
p484
sg83
g24
sg84
(lp485
I0
aI0
aI0
asg31
S'DT'
p486
sg86
(lp487
F-2.909
aF-1.134
aF-15.112
asg33
g2
sg88
F1.0
sba(ipmx.atom
Atom
p488
(dp489
g38
(lp490
sg40
I0
sg22
g15
sg41
F0.0
sg42
g24
sg43
S' N3 '
p491
sg45
S' '
p492
sg47
g24
sg48
I23
sg25
I23
sg49
F0.0
sg26
S'A'
p493
sg51
(lp494
sg53
(lp495
sg55
(lp496
sg57
I0
sg58
g24
sg59
S'N'
p497
sg61
F0.0
sg62
F0.0
sg63
I1
sg64
g19
sg29
S'A'
p498
sg66
F0.0
sg67
(lp499
sg69
F0.0
sg70
I0
sg71
g24
sg9
S'N3'
p500
sg73
F0.0
sg74
(lp501
sg76
g24
sg77
g24
sg78
F0.0
sg79
S'ATOM  '
p502
sg81
S' '
p503
sg83
g24
sg84
(lp504
I0
aI0
aI0
asg31
S'DT'
p505
sg86
(lp506
F-2.033
aF0.926
aF-15.096
asg33
g2
sg88
F1.0
sba(ipmx.atom
Atom
p507
(dp508
g38
(lp509
sg40
I0
sg22
g15
sg41
F0.0
sg42
g24
sg43
S' H3 '
p510
sg45
S' '
p511
sg47
g24
sg48
I24
sg25
I24
sg49
F0.0
sg26
S'A'
p512
sg51
(lp513
sg53
(lp514
sg55
(lp515
sg57
I0
sg58
g24
sg59
S'H'
p516
sg61
F0.0
sg62
F0.0
sg63
I1
sg64
g19
sg29
S'A'
p517
sg66
F0.0
sg67
(lp518
sg69
F0.0
sg70
I0
sg71
g24
sg9
S'H3'
p519
sg73
F0.0
sg74
(lp520
sg76
g24
sg77
g24
sg78
F0.0
sg79
S'ATOM  '
p521
sg81
S' '
p522
sg83
g24
sg84
(lp523
I0
aI0
aI0
asg31
S'DT'
p524
sg86
(lp525
F-1.112
aF0.52
aF-15.094
asg33
g2
sg88
F1.0
sba(ipmx.atom
Atom
p526
(dp527
g38
(lp528
sg40
I0
sg22
g15
sg41
F0.0
sg42
g24
sg43
S' C2 '
p529
sg45
S' '
p530
sg47
g24
sg48
I25
sg25
I25
sg49
F0.0
sg26
S'A'
p531
sg51
(lp532
sg53
(lp533
sg55
(lp534
sg57
I0
sg58
g24
sg59
S'C'
p535
sg61
F0.0
sg62
F0.0
sg63
I1
sg64
g19
sg29
S'A'
p536
sg66
F0.0
sg67
(lp537
sg69
F0.0
sg70
I0
sg71
g24
sg9
S'C2'
p538
sg73
F0.0
sg74
(lp539
sg76
g24
sg77
g24
sg78
F0.0
sg79
S'ATOM  '
p540
sg81
S' '
p541
sg83
g24
sg84
(lp542
I0
aI0
aI0
asg31
S'DT'
p543
sg86
(lp544
F-2.105
aF2.297
aF-15.08
asg33
g2
sg88
F1.0
sba(ipmx.atom
Atom
p545
(dp546
g38
(lp547
sg40
I0
sg22
g15
sg41
F0.0
sg42
g24
sg43
S' O  '
p548
sg45
S' '
p549
sg47
g24
sg48
I26
sg25
I26
sg49
F0.0
sg26
S'A'
p550
sg51
(lp551
sg53
(lp552
sg55
(lp553
sg57
I0
sg58
g24
sg59
S'O'
p554
sg61
F0.0
sg62
F0.0
sg63
I1
sg64
g19
sg29
S'A'
p555
sg66
F0.0
sg67
(lp556
sg69
F0.0
sg70
I0
sg71
g24
sg9
S'O2'
p557
sg73
F0.0
sg74
(lp558
sg76
g24
sg77
g24
sg78
F0.0
sg79
S'ATOM  '
p559
sg81
S' '
p560
sg83
g24
sg84
(lp561
I0
aI0
aI0
asg31
S'DT'
p562
sg86
(lp563
F-1.063
aF2.944
aF-15.101
asg33
g2
sg88
F1.0
sba(ipmx.atom
Atom
p564
(dp565
g38
(lp566
sg40
I0
sg22
g15
sg41
F0.0
sg42
g24
sg43
S" C3'"
p567
sg45
S' '
p568
sg47
g24
sg48
I27
sg25
I27
sg49
F0.0
sg26
S'A'
p569
sg51
(lp570
sg53
(lp571
sg55
(lp572
sg57
I0
sg58
g24
sg59
S'C'
p573
sg61
F0.0
sg62
F0.0
sg63
I1
sg64
g19
sg29
S'A'
p574
sg66
F0.0
sg67
(lp575
sg69
F0.0
sg70
I0
sg71
g24
sg9
S"C3'"
p576
sg73
F0.0
sg74
(lp577
sg76
g24
sg77
g24
sg78
F0.0
sg79
S'ATOM  '
p578
sg81
S' '
p579
sg83
g24
sg84
(lp580
I0
aI0
aI0
asg31
S'DT'
p581
sg86
(lp582
F-5.078
aF6.175
aF-15.197
asg33
g2
sg88
F1.0
sba(ipmx.atom
Atom
p583
(dp584
g38
(lp585
sg40
I0
sg22
g15
sg41
F0.0
sg42
g24
sg43
S" H3'"
p586
sg45
S' '
p587
sg47
g24
sg48
I28
sg25
I28
sg49
F0.0
sg26
S'A'
p588
sg51
(lp589
sg53
(lp590
sg55
(lp591
sg57
I0
sg58
g24
sg59
S'H'
p592
sg61
F0.0
sg62
F0.0
sg63
I1
sg64
g19
sg29
S'A'
p593
sg66
F0.0
sg67
(lp594
sg69
F0.0
sg70
I0
sg71
g24
sg9
S"H3'"
p595
sg73
F0.0
sg74
(lp596
sg76
g24
sg77
g24
sg78
F0.0
sg79
S'ATOM  '
p597
sg81
S' '
p598
sg83
g24
sg84
(lp599
I0
aI0
aI0
asg31
S'DT'
p600
sg86
(lp601
F-6.148
aF6.307
aF-15.33
asg33
g2
sg88
F1.0
sba(ipmx.atom
Atom
p602
(dp603
g38
(lp604
sg40
I0
sg22
g15
sg41
F0.0
sg42
g24
sg43
S" C2'"
p605
sg45
S' '
p606
sg47
g24
sg48
I29
sg25
I29
sg49
F0.0
sg26
S'A'
p607
sg51
(lp608
sg53
(lp609
sg55
(lp610
sg57
I0
sg58
g24
sg59
S'C'
p611
sg61
F0.0
sg62
F0.0
sg63
I1
sg64
g19
sg29
S'A'
p612
sg66
F0.0
sg67
(lp613
sg69
F0.0
sg70
I0
sg71
g24
sg9
S"C2'"
p614
sg73
F0.0
sg74
(lp615
sg76
g24
sg77
g24
sg78
F0.0
sg79
S'ATOM  '
p616
sg81
S' '
p617
sg83
g24
sg84
(lp618
I0
aI0
aI0
asg31
S'DT'
p619
sg86
(lp620
F-4.597
aF4.927
aF-15.934
asg33
g2
sg88
F1.0
sba(ipmx.atom
Atom
p621
(dp622
g38
(lp623
sg40
I0
sg22
g15
sg41
F0.0
sg42
g24
sg43
S"1H2'"
p624
sg45
S' '
p625
sg47
g24
sg48
I30
sg25
I30
sg49
F0.0
sg26
S'A'
p626
sg51
(lp627
sg53
(lp628
sg55
(lp629
sg57
I0
sg58
g24
sg59
S'H'
p630
sg61
F0.0
sg62
F0.0
sg63
I1
sg64
g19
sg29
S'A'
p631
sg66
F0.0
sg67
(lp632
sg69
F0.0
sg70
I0
sg71
g24
sg9
S"H2'"
p633
sg73
F0.0
sg74
(lp634
sg76
g24
sg77
g24
sg78
F0.0
sg79
S'ATOM  '
p635
sg81
S' '
p636
sg83
g24
sg84
(lp637
I0
aI0
aI0
asg31
S'DT'
p638
sg86
(lp639
F-5.431
aF4.251
aF-16.069
asg33
g2
sg88
F1.0
sba(ipmx.atom
Atom
p640
(dp641
g38
(lp642
sg40
I0
sg22
g15
sg41
F0.0
sg42
g24
sg43
S"2H2'"
p643
sg45
S' '
p644
sg47
g24
sg48
I31
sg25
I31
sg49
F0.0
sg26
S'A'
p645
sg51
(lp646
sg53
(lp647
sg55
(lp648
sg57
I0
sg58
g24
sg59
S'H'
p649
sg61
F0.0
sg62
F0.0
sg63
I1
sg64
g19
sg29
S'A'
p650
sg66
F0.0
sg67
(lp651
sg69
F0.0
sg70
I0
sg71
g24
sg9
S"H2''"
p652
sg73
F0.0
sg74
(lp653
sg76
g24
sg77
g24
sg78
F0.0
sg79
S'ATOM  '
p654
sg81
S' '
p655
sg83
g24
sg84
(lp656
I0
aI0
aI0
asg31
S'DT'
p657
sg86
(lp658
F-4.241
aF5.144
aF-16.918
asg33
g2
sg88
F1.0
sba(ipmx.atom
Atom
p659
(dp660
g38
(lp661
sg40
I0
sg22
g15
sg41
F0.0
sg42
g24
sg43
S" O3'"
p662
sg45
S' '
p663
sg47
g24
sg48
I32
sg25
I32
sg49
F0.0
sg26
S'A'
p664
sg51
(lp665
sg53
(lp666
sg55
(lp667
sg57
I0
sg58
g24
sg59
S'O'
p668
sg61
F0.0
sg62
F0.0
sg63
I1
sg64
g19
sg29
S'A'
p669
sg66
F0.0
sg67
(lp670
sg69
F0.0
sg70
I0
sg71
g24
sg9
S"O3'"
p671
sg73
F0.0
sg74
(lp672
sg76
g24
sg77
g24
sg78
F0.0
sg79
S'ATOM  '
p673
sg81
S' '
p674
sg83
g24
sg84
(lp675
I0
aI0
aI0
asg31
S'DT'
p676
sg86
(lp677
F-4.467
aF7.4
aF-15.637
asg33
g2
sg88
F1.0
sbasg48
I1
sS'previous'
p678
Nsbasg34
(lp679
g36
ag89
ag108
ag127
ag146
ag165
ag184
ag203
ag222
ag241
ag260
ag279
ag298
ag317
ag336
ag355
ag374
ag393
ag412
ag431
ag450
ag469
ag488
ag507
ag526
ag545
ag564
ag583
ag602
ag621
ag640
ag659
asS'nres'
p680
I0
sg29
S'A'
p681
sg33
g2
sS'residue_tree_ok'
p682
I00
sg48
S'A'
p683
sbsS'B'
p684
(ipmx.chain
Chain
p685
(dp686
g17
(lp687
(ipmx.molecule
Molecule
p688
(dp689
g21
I0
sg22
g685
sg23
g24
sg25
I2
sg26
S'B'
p690
sg28
Nsg29
S'A'
p691
sg31
S'DA'
p692
sg33
g2
sg34
(lp693
(ipmx.atom
Atom
p694
(dp695
g38
(lp696
sg40
I0
sg22
g685
sg41
F0.0
sg42
g24
sg43
S' P  '
p697
sg45
S' '
p698
sg47
g24
sg48
I33
sg25
I33
sg49
F0.0
sg26
S'B'
p699
sg51
(lp700
sg53
(lp701
sg55
(lp702
sg57
I0
sg58
g24
sg59
S'P'
p703
sg61
F0.0
sg62
F0.0
sg63
I2
sg64
g688
sg29
S'A'
p704
sg66
F0.0
sg67
(lp705
sg69
F0.0
sg70
I0
sg71
g24
sg9
S'P'
p706
sg73
F0.0
sg74
(lp707
sg76
g24
sg77
g24
sg78
F0.0
sg79
S'ATOM  '
p708
sg81
S' '
p709
sg83
g24
sg84
(lp710
I0
aI0
aI0
asg31
g692
sg86
(lp711
F6.736
aF-6.269
aF-16.319
asg33
g2
sg88
F1.0
sba(ipmx.atom
Atom
p712
(dp713
g38
(lp714
sg40
I0
sg22
g685
sg41
F0.0
sg42
g24
sg43
S' O1P'
p715
sg45
S' '
p716
sg47
g24
sg48
I34
sg25
I34
sg49
F0.0
sg26
S'B'
p717
sg51
(lp718
sg53
(lp719
sg55
(lp720
sg57
I0
sg58
g24
sg59
S'O'
p721
sg61
F0.0
sg62
F0.0
sg63
I2
sg64
g688
sg29
S'A'
p722
sg66
F0.0
sg67
(lp723
sg69
F0.0
sg70
I0
sg71
g24
sg9
S'O1P'
p724
sg73
F0.0
sg74
(lp725
sg76
g24
sg77
g24
sg78
F0.0
sg79
S'ATOM  '
p726
sg81
S' '
p727
sg83
g24
sg84
(lp728
I0
aI0
aI0
asg31
S'DA'
p729
sg86
(lp730
F8.219
aF-6.444
aF-16.231
asg33
g2
sg88
F1.0
sba(ipmx.atom
Atom
p731
(dp732
g38
(lp733
sg40
I0
sg22
g685
sg41
F0.0
sg42
g24
sg43
S' O2P'
p734
sg45
S' '
p735
sg47
g24
sg48
I35
sg25
I35
sg49
F0.0
sg26
S'B'
p736
sg51
(lp737
sg53
(lp738
sg55
(lp739
sg57
I0
sg58
g24
sg59
S'O'
p740
sg61
F0.0
sg62
F0.0
sg63
I2
sg64
g688
sg29
S'A'
p741
sg66
F0.0
sg67
(lp742
sg69
F0.0
sg70
I0
sg71
g24
sg9
S'O2P'
p743
sg73
F0.0
sg74
(lp744
sg76
g24
sg77
g24
sg78
F0.0
sg79
S'ATOM  '
p745
sg81
S' '
p746
sg83
g24
sg84
(lp747
I0
aI0
aI0
asg31
S'DA'
p748
sg86
(lp749
F5.841
aF-7.064
aF-15.485
asg33
g2
sg88
F1.0
sba(ipmx.atom
Atom
p750
(dp751
g38
(lp752
sg40
I0
sg22
g685
sg41
F0.0
sg42
g24
sg43
S" O5'"
p753
sg45
S' '
p754
sg47
g24
sg48
I36
sg25
I36
sg49
F0.0
sg26
S'B'
p755
sg51
(lp756
sg53
(lp757
sg55
(lp758
sg57
I0
sg58
g24
sg59
S'O'
p759
sg61
F0.0
sg62
F0.0
sg63
I2
sg64
g688
sg29
S'A'
p760
sg66
F0.0
sg67
(lp761
sg69
F0.0
sg70
I0
sg71
g24
sg9
S"O5'"
p762
sg73
F0.0
sg74
(lp763
sg76
g24
sg77
g24
sg78
F0.0
sg79
S'ATOM  '
p764
sg81
S' '
p765
sg83
g24
sg84
(lp766
I0
aI0
aI0
asg31
S'DA'
p767
sg86
(lp768
F6.465
aF-4.711
aF-16.12
asg33
g2
sg88
F1.0
sba(ipmx.atom
Atom
p769
(dp770
g38
(lp771
sg40
I0
sg22
g685
sg41
F0.0
sg42
g24
sg43
S" C5'"
p772
sg45
S' '
p773
sg47
g24
sg48
I37
sg25
I37
sg49
F0.0
sg26
S'B'
p774
sg51
(lp775
sg53
(lp776
sg55
(lp777
sg57
I0
sg58
g24
sg59
S'C'
p778
sg61
F0.0
sg62
F0.0
sg63
I2
sg64
g688
sg29
S'A'
p779
sg66
F0.0
sg67
(lp780
sg69
F0.0
sg70
I0
sg71
g24
sg9
S"C5'"
p781
sg73
F0.0
sg74
(lp782
sg76
g24
sg77
g24
sg78
F0.0
sg79
S'ATOM  '
p783
sg81
S' '
p784
sg83
g24
sg84
(lp785
I0
aI0
aI0
asg31
S'DA'
p786
sg86
(lp787
F7.064
aF-3.739
aF-16.973
asg33
g2
sg88
F1.0
sba(ipmx.atom
Atom
p788
(dp789
g38
(lp790
sg40
I0
sg22
g685
sg41
F0.0
sg42
g24
sg43
S"1H5'"
p791
sg45
S' '
p792
sg47
g24
sg48
I38
sg25
I38
sg49
F0.0
sg26
S'B'
p793
sg51
(lp794
sg53
(lp795
sg55
(lp796
sg57
I0
sg58
g24
sg59
S'H'
p797
sg61
F0.0
sg62
F0.0
sg63
I2
sg64
g688
sg29
S'A'
p798
sg66
F0.0
sg67
(lp799
sg69
F0.0
sg70
I0
sg71
g24
sg9
g177
sg73
F0.0
sg74
(lp800
sg76
g24
sg77
g24
sg78
F0.0
sg79
S'ATOM  '
p801
sg81
S' '
p802
sg83
g24
sg84
(lp803
I0
aI0
aI0
asg31
S'DA'
p804
sg86
(lp805
F8.013
aF-4.116
aF-17.363
asg33
g2
sg88
F1.0
sba(ipmx.atom
Atom
p806
(dp807
g38
(lp808
sg40
I0
sg22
g685
sg41
F0.0
sg42
g24
sg43
S"2H5'"
p809
sg45
S' '
p810
sg47
g24
sg48
I39
sg25
I39
sg49
F0.0
sg26
S'B'
p811
sg51
(lp812
sg53
(lp813
sg55
(lp814
sg57
I0
sg58
g24
sg59
S'H'
p815
sg61
F0.0
sg62
F0.0
sg63
I2
sg64
g688
sg29
S'A'
p816
sg66
F0.0
sg67
(lp817
sg69
F0.0
sg70
I0
sg71
g24
sg9
g196
sg73
F0.0
sg74
(lp818
sg76
g24
sg77
g24
sg78
F0.0
sg79
S'ATOM  '
p819
sg81
S' '
p820
sg83
g24
sg84
(lp821
I0
aI0
aI0
asg31
S'DA'
p822
sg86
(lp823
F6.417
aF-3.572
aF-17.838
asg33
g2
sg88
F1.0
sba(ipmx.atom
Atom
p824
(dp825
g38
(lp826
sg40
I0
sg22
g685
sg41
F0.0
sg42
g24
sg43
S" C4'"
p827
sg45
S' '
p828
sg47
g24
sg48
I40
sg25
I40
sg49
F0.0
sg26
S'B'
p829
sg51
(lp830
sg53
(lp831
sg55
(lp832
sg57
I0
sg58
g24
sg59
S'C'
p833
sg61
F0.0
sg62
F0.0
sg63
I2
sg64
g688
sg29
S'A'
p834
sg66
F0.0
sg67
(lp835
sg69
F0.0
sg70
I0
sg71
g24
sg9
S"C4'"
p836
sg73
F0.0
sg74
(lp837
sg76
g24
sg77
g24
sg78
F0.0
sg79
S'ATOM  '
p838
sg81
S' '
p839
sg83
g24
sg84
(lp840
I0
aI0
aI0
asg31
S'DA'
p841
sg86
(lp842
F7.318
aF-2.397
aF-16.261
asg33
g2
sg88
F1.0
sba(ipmx.atom
Atom
p843
(dp844
g38
(lp845
sg40
I0
sg22
g685
sg41
F0.0
sg42
g24
sg43
S" H4'"
p846
sg45
S' '
p847
sg47
g24
sg48
I41
sg25
I41
sg49
F0.0
sg26
S'B'
p848
sg51
(lp849
sg53
(lp850
sg55
(lp851
sg57
I0
sg58
g24
sg59
S'H'
p852
sg61
F0.0
sg62
F0.0
sg63
I2
sg64
g688
sg29
S'A'
p853
sg66
F0.0
sg67
(lp854
sg69
F0.0
sg70
I0
sg71
g24
sg9
S"H4'"
p855
sg73
F0.0
sg74
(lp856
sg76
g24
sg77
g24
sg78
F0.0
sg79
S'ATOM  '
p857
sg81
S' '
p858
sg83
g24
sg84
(lp859
I0
aI0
aI0
asg31
S'DA'
p860
sg86
(lp861
F8.06
aF-1.849
aF-16.838
asg33
g2
sg88
F1.0
sba(ipmx.atom
Atom
p862
(dp863
g38
(lp864
sg40
I0
sg22
g685
sg41
F0.0
sg42
g24
sg43
S" O4'"
p865
sg45
S' '
p866
sg47
g24
sg48
I42
sg25
I42
sg49
F0.0
sg26
S'B'
p867
sg51
(lp868
sg53
(lp869
sg55
(lp870
sg57
I0
sg58
g24
sg59
S'O'
p871
sg61
F0.0
sg62
F0.0
sg63
I2
sg64
g688
sg29
S'A'
p872
sg66
F0.0
sg67
(lp873
sg69
F0.0
sg70
I0
sg71
g24
sg9
S"O4'"
p874
sg73
F0.0
sg74
(lp875
sg76
g24
sg77
g24
sg78
F0.0
sg79
S'ATOM  '
p876
sg81
S' '
p877
sg83
g24
sg84
(lp878
I0
aI0
aI0
asg31
S'DA'
p879
sg86
(lp880
F6.102
aF-1.654
aF-16.247
asg33
g2
sg88
F1.0
sba(ipmx.atom
Atom
p881
(dp882
g38
(lp883
sg40
I0
sg22
g685
sg41
F0.0
sg42
g24
sg43
S" C1'"
p884
sg45
S' '
p885
sg47
g24
sg48
I43
sg25
I43
sg49
F0.0
sg26
S'B'
p886
sg51
(lp887
sg53
(lp888
sg55
(lp889
sg57
I0
sg58
g24
sg59
S'C'
p890
sg61
F0.0
sg62
F0.0
sg63
I2
sg64
g688
sg29
S'A'
p891
sg66
F0.0
sg67
(lp892
sg69
F0.0
sg70
I0
sg71
g24
sg9
S"C1'"
p893
sg73
F0.0
sg74
(lp894
sg76
g24
sg77
g24
sg78
F0.0
sg79
S'ATOM  '
p895
sg81
S' '
p896
sg83
g24
sg84
(lp897
I0
aI0
aI0
asg31
S'DA'
p898
sg86
(lp899
F5.532
aF-1.721
aF-14.947
asg33
g2
sg88
F1.0
sba(ipmx.atom
Atom
p900
(dp901
g38
(lp902
sg40
I0
sg22
g685
sg41
F0.0
sg42
g24
sg43
S" H1'"
p903
sg45
S' '
p904
sg47
g24
sg48
I44
sg25
I44
sg49
F0.0
sg26
S'B'
p905
sg51
(lp906
sg53
(lp907
sg55
(lp908
sg57
I0
sg58
g24
sg59
S'H'
p909
sg61
F0.0
sg62
F0.0
sg63
I2
sg64
g688
sg29
S'A'
p910
sg66
F0.0
sg67
(lp911
sg69
F0.0
sg70
I0
sg71
g24
sg9
S"H1'"
p912
sg73
F0.0
sg74
(lp913
sg76
g24
sg77
g24
sg78
F0.0
sg79
S'ATOM  '
p914
sg81
S' '
p915
sg83
g24
sg84
(lp916
I0
aI0
aI0
asg31
S'DA'
p917
sg86
(lp918
F5.541
aF-0.723
aF-14.506
asg33
g2
sg88
F1.0
sba(ipmx.atom
Atom
p919
(dp920
g38
(lp921
sg40
I0
sg22
g685
sg41
F0.0
sg42
g24
sg43
S' N9 '
p922
sg45
S' '
p923
sg47
g24
sg48
I45
sg25
I45
sg49
F0.0
sg26
S'B'
p924
sg51
(lp925
sg53
(lp926
sg55
(lp927
sg57
I0
sg58
g24
sg59
S'N'
p928
sg61
F0.0
sg62
F0.0
sg63
I2
sg64
g688
sg29
S'A'
p929
sg66
F0.0
sg67
(lp930
sg69
F0.0
sg70
I0
sg71
g24
sg9
S'N9'
p931
sg73
F0.0
sg74
(lp932
sg76
g24
sg77
g24
sg78
F0.0
sg79
S'ATOM  '
p933
sg81
S' '
p934
sg83
g24
sg84
(lp935
I0
aI0
aI0
asg31
S'DA'
p936
sg86
(lp937
F4.131
aF-2.202
aF-15.027
asg33
g2
sg88
F1.0
sba(ipmx.atom
Atom
p938
(dp939
g38
(lp940
sg40
I0
sg22
g685
sg41
F0.0
sg42
g24
sg43
S' C8 '
p941
sg45
S' '
p942
sg47
g24
sg48
I46
sg25
I46
sg49
F0.0
sg26
S'B'
p943
sg51
(lp944
sg53
(lp945
sg55
(lp946
sg57
I0
sg58
g24
sg59
S'C'
p947
sg61
F0.0
sg62
F0.0
sg63
I2
sg64
g688
sg29
S'A'
p948
sg66
F0.0
sg67
(lp949
sg69
F0.0
sg70
I0
sg71
g24
sg9
S'C8'
p950
sg73
F0.0
sg74
(lp951
sg76
g24
sg77
g24
sg78
F0.0
sg79
S'ATOM  '
p952
sg81
S' '
p953
sg83
g24
sg84
(lp954
I0
aI0
aI0
asg31
S'DA'
p955
sg86
(lp956
F3.662
aF-3.49
aF-15.087
asg33
g2
sg88
F1.0
sba(ipmx.atom
Atom
p957
(dp958
g38
(lp959
sg40
I0
sg22
g685
sg41
F0.0
sg42
g24
sg43
S' H8 '
p960
sg45
S' '
p961
sg47
g24
sg48
I47
sg25
I47
sg49
F0.0
sg26
S'B'
p962
sg51
(lp963
sg53
(lp964
sg55
(lp965
sg57
I0
sg58
g24
sg59
S'H'
p966
sg61
F0.0
sg62
F0.0
sg63
I2
sg64
g688
sg29
S'A'
p967
sg66
F0.0
sg67
(lp968
sg69
F0.0
sg70
I0
sg71
g24
sg9
S'H8'
p969
sg73
F0.0
sg74
(lp970
sg76
g24
sg77
g24
sg78
F0.0
sg79
S'ATOM  '
p971
sg81
S' '
p972
sg83
g24
sg84
(lp973
I0
aI0
aI0
asg31
S'DA'
p974
sg86
(lp975
F4.334
aF-4.334
aF-15.088
asg33
g2
sg88
F1.0
sba(ipmx.atom
Atom
p976
(dp977
g38
(lp978
sg40
I0
sg22
g685
sg41
F0.0
sg42
g24
sg43
S' N7 '
p979
sg45
S' '
p980
sg47
g24
sg48
I48
sg25
I48
sg49
F0.0
sg26
S'B'
p981
sg51
(lp982
sg53
(lp983
sg55
(lp984
sg57
I0
sg58
g24
sg59
S'N'
p985
sg61
F0.0
sg62
F0.0
sg63
I2
sg64
g688
sg29
S'A'
p986
sg66
F0.0
sg67
(lp987
sg69
F0.0
sg70
I0
sg71
g24
sg9
S'N7'
p988
sg73
F0.0
sg74
(lp989
sg76
g24
sg77
g24
sg78
F0.0
sg79
S'ATOM  '
p990
sg81
S' '
p991
sg83
g24
sg84
(lp992
I0
aI0
aI0
asg31
S'DA'
p993
sg86
(lp994
F2.363
aF-3.609
aF-15.17
asg33
g2
sg88
F1.0
sba(ipmx.atom
Atom
p995
(dp996
g38
(lp997
sg40
I0
sg22
g685
sg41
F0.0
sg42
g24
sg43
S' C5 '
p998
sg45
S' '
p999
sg47
g24
sg48
I49
sg25
I49
sg49
F0.0
sg26
S'B'
p1000
sg51
(lp1001
sg53
(lp1002
sg55
(lp1003
sg57
I0
sg58
g24
sg59
S'C'
p1004
sg61
F0.0
sg62
F0.0
sg63
I2
sg64
g688
sg29
S'A'
p1005
sg66
F0.0
sg67
(lp1006
sg69
F0.0
sg70
I0
sg71
g24
sg9
S'C5'
p1007
sg73
F0.0
sg74
(lp1008
sg76
g24
sg77
g24
sg78
F0.0
sg79
S'ATOM  '
p1009
sg81
S' '
p1010
sg83
g24
sg84
(lp1011
I0
aI0
aI0
asg31
S'DA'
p1012
sg86
(lp1013
F1.945
aF-2.276
aF-15.112
asg33
g2
sg88
F1.0
sba(ipmx.atom
Atom
p1014
(dp1015
g38
(lp1016
sg40
I0
sg22
g685
sg41
F0.0
sg42
g24
sg43
S' C6 '
p1017
sg45
S' '
p1018
sg47
g24
sg48
I50
sg25
I50
sg49
F0.0
sg26
S'B'
p1019
sg51
(lp1020
sg53
(lp1021
sg55
(lp1022
sg57
I0
sg58
g24
sg59
S'C'
p1023
sg61
F0.0
sg62
F0.0
sg63
I2
sg64
g688
sg29
S'A'
p1024
sg66
F0.0
sg67
(lp1025
sg69
F0.0
sg70
I0
sg71
g24
sg9
S'C6'
p1026
sg73
F0.0
sg74
(lp1027
sg76
g24
sg77
g24
sg78
F0.0
sg79
S'ATOM  '
p1028
sg81
S' '
p1029
sg83
g24
sg84
(lp1030
I0
aI0
aI0
asg31
S'DA'
p1031
sg86
(lp1032
F0.685
aF-1.645
aF-15.126
asg33
g2
sg88
F1.0
sba(ipmx.atom
Atom
p1033
(dp1034
g38
(lp1035
sg40
I0
sg22
g685
sg41
F0.0
sg42
g24
sg43
S' N6 '
p1036
sg45
S' '
p1037
sg47
g24
sg48
I51
sg25
I51
sg49
F0.0
sg26
S'B'
p1038
sg51
(lp1039
sg53
(lp1040
sg55
(lp1041
sg57
I0
sg58
g24
sg59
S'N'
p1042
sg61
F0.0
sg62
F0.0
sg63
I2
sg64
g688
sg29
S'A'
p1043
sg66
F0.0
sg67
(lp1044
sg69
F0.0
sg70
I0
sg71
g24
sg9
S'N6'
p1045
sg73
F0.0
sg74
(lp1046
sg76
g24
sg77
g24
sg78
F0.0
sg79
S'ATOM  '
p1047
sg81
S' '
p1048
sg83
g24
sg84
(lp1049
I0
aI0
aI0
asg31
S'DA'
p1050
sg86
(lp1051
F-0.447
aF-2.319
aF-15.218
asg33
g2
sg88
F1.0
sba(ipmx.atom
Atom
p1052
(dp1053
g38
(lp1054
sg40
I0
sg22
g685
sg41
F0.0
sg42
g24
sg43
S' H61'
p1055
sg45
S' '
p1056
sg47
g24
sg48
I52
sg25
I52
sg49
F0.0
sg26
S'B'
p1057
sg51
(lp1058
sg53
(lp1059
sg55
(lp1060
sg57
I0
sg58
g24
sg59
S'H'
p1061
sg61
F0.0
sg62
F0.0
sg63
I2
sg64
g688
sg29
S'A'
p1062
sg66
F0.0
sg67
(lp1063
sg69
F0.0
sg70
I0
sg71
g24
sg9
S'H61'
p1064
sg73
F0.0
sg74
(lp1065
sg76
g24
sg77
g24
sg78
F0.0
sg79
S'ATOM  '
p1066
sg81
S' '
p1067
sg83
g24
sg84
(lp1068
I0
aI0
aI0
asg31
S'DA'
p1069
sg86
(lp1070
F-0.384
aF-3.318
aF-15.252
asg33
g2
sg88
F1.0
sba(ipmx.atom
Atom
p1071
(dp1072
g38
(lp1073
sg40
I0
sg22
g685
sg41
F0.0
sg42
g24
sg43
S' H62'
p1074
sg45
S' '
p1075
sg47
g24
sg48
I53
sg25
I53
sg49
F0.0
sg26
S'B'
p1076
sg51
(lp1077
sg53
(lp1078
sg55
(lp1079
sg57
I0
sg58
g24
sg59
S'H'
p1080
sg61
F0.0
sg62
F0.0
sg63
I2
sg64
g688
sg29
S'A'
p1081
sg66
F0.0
sg67
(lp1082
sg69
F0.0
sg70
I0
sg71
g24
sg9
S'H62'
p1083
sg73
F0.0
sg74
(lp1084
sg76
g24
sg77
g24
sg78
F0.0
sg79
S'ATOM  '
p1085
sg81
S' '
p1086
sg83
g24
sg84
(lp1087
I0
aI0
aI0
asg31
S'DA'
p1088
sg86
(lp1089
F-1.335
aF-1.833
aF-15.214
asg33
g2
sg88
F1.0
sba(ipmx.atom
Atom
p1090
(dp1091
g38
(lp1092
sg40
I0
sg22
g685
sg41
F0.0
sg42
g24
sg43
S' N1 '
p1093
sg45
S' '
p1094
sg47
g24
sg48
I54
sg25
I54
sg49
F0.0
sg26
S'B'
p1095
sg51
(lp1096
sg53
(lp1097
sg55
(lp1098
sg57
I0
sg58
g24
sg59
S'N'
p1099
sg61
F0.0
sg62
F0.0
sg63
I2
sg64
g688
sg29
S'A'
p1100
sg66
F0.0
sg67
(lp1101
sg69
F0.0
sg70
I0
sg71
g24
sg9
S'N1'
p1102
sg73
F0.0
sg74
(lp1103
sg76
g24
sg77
g24
sg78
F0.0
sg79
S'ATOM  '
p1104
sg81
S' '
p1105
sg83
g24
sg84
(lp1106
I0
aI0
aI0
asg31
S'DA'
p1107
sg86
(lp1108
F0.575
aF-0.317
aF-15.049
asg33
g2
sg88
F1.0
sba(ipmx.atom
Atom
p1109
(dp1110
g38
(lp1111
sg40
I0
sg22
g685
sg41
F0.0
sg42
g24
sg43
S' C2 '
p1112
sg45
S' '
p1113
sg47
g24
sg48
I55
sg25
I55
sg49
F0.0
sg26
S'B'
p1114
sg51
(lp1115
sg53
(lp1116
sg55
(lp1117
sg57
I0
sg58
g24
sg59
S'C'
p1118
sg61
F0.0
sg62
F0.0
sg63
I2
sg64
g688
sg29
S'A'
p1119
sg66
F0.0
sg67
(lp1120
sg69
F0.0
sg70
I0
sg71
g24
sg9
S'C2'
p1121
sg73
F0.0
sg74
(lp1122
sg76
g24
sg77
g24
sg78
F0.0
sg79
S'ATOM  '
p1123
sg81
S' '
p1124
sg83
g24
sg84
(lp1125
I0
aI0
aI0
asg31
S'DA'
p1126
sg86
(lp1127
F1.699
aF0.388
aF-14.961
asg33
g2
sg88
F1.0
sba(ipmx.atom
Atom
p1128
(dp1129
g38
(lp1130
sg40
I0
sg22
g685
sg41
F0.0
sg42
g24
sg43
S' H2 '
p1131
sg45
S' '
p1132
sg47
g24
sg48
I56
sg25
I56
sg49
F0.0
sg26
S'B'
p1133
sg51
(lp1134
sg53
(lp1135
sg55
(lp1136
sg57
I0
sg58
g24
sg59
S'H'
p1137
sg61
F0.0
sg62
F0.0
sg63
I2
sg64
g688
sg29
S'A'
p1138
sg66
F0.0
sg67
(lp1139
sg69
F0.0
sg70
I0
sg71
g24
sg9
S'H2'
p1140
sg73
F0.0
sg74
(lp1141
sg76
g24
sg77
g24
sg78
F0.0
sg79
S'ATOM  '
p1142
sg81
S' '
p1143
sg83
g24
sg84
(lp1144
I0
aI0
aI0
asg31
S'DA'
p1145
sg86
(lp1146
F1.591
aF1.462
aF-14.887
asg33
g2
sg88
F1.0
sba(ipmx.atom
Atom
p1147
(dp1148
g38
(lp1149
sg40
I0
sg22
g685
sg41
F0.0
sg42
g24
sg43
S' N3 '
p1150
sg45
S' '
p1151
sg47
g24
sg48
I57
sg25
I57
sg49
F0.0
sg26
S'B'
p1152
sg51
(lp1153
sg53
(lp1154
sg55
(lp1155
sg57
I0
sg58
g24
sg59
S'N'
p1156
sg61
F0.0
sg62
F0.0
sg63
I2
sg64
g688
sg29
S'A'
p1157
sg66
F0.0
sg67
(lp1158
sg69
F0.0
sg70
I0
sg71
g24
sg9
S'N3'
p1159
sg73
F0.0
sg74
(lp1160
sg76
g24
sg77
g24
sg78
F0.0
sg79
S'ATOM  '
p1161
sg81
S' '
p1162
sg83
g24
sg84
(lp1163
I0
aI0
aI0
asg31
S'DA'
p1164
sg86
(lp1165
F2.945
aF-0.057
aF-14.937
asg33
g2
sg88
F1.0
sba(ipmx.atom
Atom
p1166
(dp1167
g38
(lp1168
sg40
I0
sg22
g685
sg41
F0.0
sg42
g24
sg43
S' C4 '
p1169
sg45
S' '
p1170
sg47
g24
sg48
I58
sg25
I58
sg49
F0.0
sg26
S'B'
p1171
sg51
(lp1172
sg53
(lp1173
sg55
(lp1174
sg57
I0
sg58
g24
sg59
S'C'
p1175
sg61
F0.0
sg62
F0.0
sg63
I2
sg64
g688
sg29
S'A'
p1176
sg66
F0.0
sg67
(lp1177
sg69
F0.0
sg70
I0
sg71
g24
sg9
S'C4'
p1178
sg73
F0.0
sg74
(lp1179
sg76
g24
sg77
g24
sg78
F0.0
sg79
S'ATOM  '
p1180
sg81
S' '
p1181
sg83
g24
sg84
(lp1182
I0
aI0
aI0
asg31
S'DA'
p1183
sg86
(lp1184
F3.005
aF-1.414
aF-15.024
asg33
g2
sg88
F1.0
sba(ipmx.atom
Atom
p1185
(dp1186
g38
(lp1187
sg40
I0
sg22
g685
sg41
F0.0
sg42
g24
sg43
S" C3'"
p1188
sg45
S' '
p1189
sg47
g24
sg48
I59
sg25
I59
sg49
F0.0
sg26
S'B'
p1190
sg51
(lp1191
sg53
(lp1192
sg55
(lp1193
sg57
I0
sg58
g24
sg59
S'C'
p1194
sg61
F0.0
sg62
F0.0
sg63
I2
sg64
g688
sg29
S'A'
p1195
sg66
F0.0
sg67
(lp1196
sg69
F0.0
sg70
I0
sg71
g24
sg9
S"C3'"
p1197
sg73
F0.0
sg74
(lp1198
sg76
g24
sg77
g24
sg78
F0.0
sg79
S'ATOM  '
p1199
sg81
S' '
p1200
sg83
g24
sg84
(lp1201
I0
aI0
aI0
asg31
S'DA'
p1202
sg86
(lp1203
F7.81
aF-2.527
aF-14.803
asg33
g2
sg88
F1.0
sba(ipmx.atom
Atom
p1204
(dp1205
g38
(lp1206
sg40
I0
sg22
g685
sg41
F0.0
sg42
g24
sg43
S" H3'"
p1207
sg45
S' '
p1208
sg47
g24
sg48
I60
sg25
I60
sg49
F0.0
sg26
S'B'
p1209
sg51
(lp1210
sg53
(lp1211
sg55
(lp1212
sg57
I0
sg58
g24
sg59
S'H'
p1213
sg61
F0.0
sg62
F0.0
sg63
I2
sg64
g688
sg29
S'A'
p1214
sg66
F0.0
sg67
(lp1215
sg69
F0.0
sg70
I0
sg71
g24
sg9
S"H3'"
p1216
sg73
F0.0
sg74
(lp1217
sg76
g24
sg77
g24
sg78
F0.0
sg79
S'ATOM  '
p1218
sg81
S' '
p1219
sg83
g24
sg84
(lp1220
I0
aI0
aI0
asg31
S'DA'
p1221
sg86
(lp1222
F8.361
aF-3.455
aF-14.664
asg33
g2
sg88
F1.0
sba(ipmx.atom
Atom
p1223
(dp1224
g38
(lp1225
sg40
I0
sg22
g685
sg41
F0.0
sg42
g24
sg43
S" C2'"
p1226
sg45
S' '
p1227
sg47
g24
sg48
I61
sg25
I61
sg49
F0.0
sg26
S'B'
p1228
sg51
(lp1229
sg53
(lp1230
sg55
(lp1231
sg57
I0
sg58
g24
sg59
S'C'
p1232
sg61
F0.0
sg62
F0.0
sg63
I2
sg64
g688
sg29
S'A'
p1233
sg66
F0.0
sg67
(lp1234
sg69
F0.0
sg70
I0
sg71
g24
sg9
S"C2'"
p1235
sg73
F0.0
sg74
(lp1236
sg76
g24
sg77
g24
sg78
F0.0
sg79
S'ATOM  '
p1237
sg81
S' '
p1238
sg83
g24
sg84
(lp1239
I0
aI0
aI0
asg31
S'DA'
p1240
sg86
(lp1241
F6.446
aF-2.615
aF-14.103
asg33
g2
sg88
F1.0
sba(ipmx.atom
Atom
p1242
(dp1243
g38
(lp1244
sg40
I0
sg22
g685
sg41
F0.0
sg42
g24
sg43
S"1H2'"
p1245
sg45
S' '
p1246
sg47
g24
sg48
I62
sg25
I62
sg49
F0.0
sg26
S'B'
p1247
sg51
(lp1248
sg53
(lp1249
sg55
(lp1250
sg57
I0
sg58
g24
sg59
S'H'
p1251
sg61
F0.0
sg62
F0.0
sg63
I2
sg64
g688
sg29
S'A'
p1252
sg66
F0.0
sg67
(lp1253
sg69
F0.0
sg70
I0
sg71
g24
sg9
g633
sg73
F0.0
sg74
(lp1254
sg76
g24
sg77
g24
sg78
F0.0
sg79
S'ATOM  '
p1255
sg81
S' '
p1256
sg83
g24
sg84
(lp1257
I0
aI0
aI0
asg31
S'DA'
p1258
sg86
(lp1259
F6.091
aF-3.645
aF-14.078
asg33
g2
sg88
F1.0
sba(ipmx.atom
Atom
p1260
(dp1261
g38
(lp1262
sg40
I0
sg22
g685
sg41
F0.0
sg42
g24
sg43
S"2H2'"
p1263
sg45
S' '
p1264
sg47
g24
sg48
I63
sg25
I63
sg49
F0.0
sg26
S'B'
p1265
sg51
(lp1266
sg53
(lp1267
sg55
(lp1268
sg57
I0
sg58
g24
sg59
S'H'
p1269
sg61
F0.0
sg62
F0.0
sg63
I2
sg64
g688
sg29
S'A'
p1270
sg66
F0.0
sg67
(lp1271
sg69
F0.0
sg70
I0
sg71
g24
sg9
g652
sg73
F0.0
sg74
(lp1272
sg76
g24
sg77
g24
sg78
F0.0
sg79
S'ATOM  '
p1273
sg81
S' '
p1274
sg83
g24
sg84
(lp1275
I0
aI0
aI0
asg31
S'DA'
p1276
sg86
(lp1277
F6.485
aF-2.305
aF-13.079
asg33
g2
sg88
F1.0
sba(ipmx.atom
Atom
p1278
(dp1279
g38
(lp1280
sg40
I0
sg22
g685
sg41
F0.0
sg42
g24
sg43
S" O3'"
p1281
sg45
S' '
p1282
sg47
g24
sg48
I64
sg25
I64
sg49
F0.0
sg26
S'B'
p1283
sg51
(lp1284
sg53
(lp1285
sg55
(lp1286
sg57
I0
sg58
g24
sg59
S'O'
p1287
sg61
F0.0
sg62
F0.0
sg63
I2
sg64
g688
sg29
S'A'
p1288
sg66
F0.0
sg67
(lp1289
sg69
F0.0
sg70
I0
sg71
g24
sg9
S"O3'"
p1290
sg73
F0.0
sg74
(lp1291
sg76
g24
sg77
g24
sg78
F0.0
sg79
S'ATOM  '
p1292
sg81
S' '
p1293
sg83
g24
sg84
(lp1294
I0
aI0
aI0
asg31
S'DA'
p1295
sg86
(lp1296
F8.68
aF-1.432
aF-14.447
asg33
g2
sg88
F1.0
sbasg48
I2
sg678
Nsbasg34
(lp1297
g694
ag712
ag731
ag750
ag769
ag788
ag806
ag824
ag843
ag862
ag881
ag900
ag919
ag938
ag957
ag976
ag995
ag1014
ag1033
ag1052
ag1071
ag1090
ag1109
ag1128
ag1147
ag1166
ag1185
ag1204
ag1223
ag1242
ag1260
ag1278
asg680
I0
sg29
S'A'
p1298
sg33
g2
sg682
I00
sg48
S'B'
p1299
sbssg17
(lp1300
g19
ag688
asg34
(lp1301
g36
ag89
ag108
ag127
ag146
ag165
ag184
ag203
ag222
ag241
ag260
ag279
ag298
ag317
ag336
ag355
ag374
ag393
ag412
ag431
ag450
ag469
ag488
ag507
ag526
ag545
ag564
ag583
ag602
ag621
ag640
ag659
ag694
ag712
ag731
ag750
ag769
ag788
ag806
ag824
ag843
ag862
ag881
ag900
ag919
ag938
ag957
ag976
ag995
ag1014
ag1033
ag1052
ag1071
ag1090
ag1109
ag1128
ag1147
ag1166
ag1185
ag1204
ag1223
ag1242
ag1260
ag1278
asg29
S'A'
p1302
sS'chains'
p1303
(lp1304
g15
ag685
asg48
I0
sS'have_bonds'
p1305
I0
sbsS'c'
p1306
(ipmx.model
Model
p1307
(dp1308
g4
(lp1309
(lp1310
I0
aI0
aI0
aa(lp1311
I0
aI0
aI0
aa(lp1312
I0
aI0
aI0
aasg9
Nsg10
g11
sg12
(dp1313
S'A'
p1314
(ipmx.chain
Chain
p1315
(dp1316
g17
(lp1317
(ipmx.molecule
Molecule
p1318
(dp1319
g21
I0
sg22
g1315
sg23
g24
sg25
I1
sg26
S'A'
p1320
sg28
Nsg29
S'A'
p1321
sg31
S'DG'
p1322
sg33
g1307
sg34
(lp1323
(ipmx.atom
Atom
p1324
(dp1325
g38
(lp1326
sg40
I0
sg22
g1315
sg41
F0.0
sg42
g24
sg43
S' P  '
p1327
sg45
S' '
p1328
sg47
g24
sg48
I1
sg25
I1
sg49
F0.0
sg26
S'A'
p1329
sg51
(lp1330
sg53
(lp1331
sg55
(lp1332
sg57
I0
sg58
g24
sg59
S'P'
p1333
sg61
F0.0
sg62
F0.0
sg63
I1
sg64
g1318
sg29
S'A'
p1334
sg66
F0.0
sg67
(lp1335
sg69
F0.0
sg70
I0
sg71
g24
sg9
S'P'
p1336
sg73
F0.0
sg74
(lp1337
sg76
g24
sg77
g24
sg78
F0.0
sg79
S'ATOM  '
p1338
sg81
S' '
p1339
sg83
g24
sg84
(lp1340
I0
aI0
aI0
asg31
g1322
sg86
(lp1341
F-8.181
aF3.77
aF-13.833
asg33
g1307
sg88
F1.0
sba(ipmx.atom
Atom
p1342
(dp1343
g38
(lp1344
sg40
I0
sg22
g1315
sg41
F0.0
sg42
g24
sg43
S' O1P'
p1345
sg45
S' '
p1346
sg47
g24
sg48
I2
sg25
I2
sg49
F0.0
sg26
S'A'
p1347
sg51
(lp1348
sg53
(lp1349
sg55
(lp1350
sg57
I0
sg58
g24
sg59
S'O'
p1351
sg61
F0.0
sg62
F0.0
sg63
I1
sg64
g1318
sg29
S'A'
p1352
sg66
F0.0
sg67
(lp1353
sg69
F0.0
sg70
I0
sg71
g24
sg9
S'O1P'
p1354
sg73
F0.0
sg74
(lp1355
sg76
g24
sg77
g24
sg78
F0.0
sg79
S'ATOM  '
p1356
sg81
S' '
p1357
sg83
g24
sg84
(lp1358
I0
aI0
aI0
asg31
S'DG'
p1359
sg86
(lp1360
F-8.88
aF5.07
aF-13.997
asg33
g1307
sg88
F1.0
sba(ipmx.atom
Atom
p1361
(dp1362
g38
(lp1363
sg40
I0
sg22
g1315
sg41
F0.0
sg42
g24
sg43
S' O2P'
p1364
sg45
S' '
p1365
sg47
g24
sg48
I3
sg25
I3
sg49
F0.0
sg26
S'A'
p1366
sg51
(lp1367
sg53
(lp1368
sg55
(lp1369
sg57
I0
sg58
g24
sg59
S'O'
p1370
sg61
F0.0
sg62
F0.0
sg63
I1
sg64
g1318
sg29
S'A'
p1371
sg66
F0.0
sg67
(lp1372
sg69
F0.0
sg70
I0
sg71
g24
sg9
S'O2P'
p1373
sg73
F0.0
sg74
(lp1374
sg76
g24
sg77
g24
sg78
F0.0
sg79
S'ATOM  '
p1375
sg81
S' '
p1376
sg83
g24
sg84
(lp1377
I0
aI0
aI0
asg31
S'DG'
p1378
sg86
(lp1379
F-8.536
aF2.61
aF-14.67
asg33
g1307
sg88
F1.0
sba(ipmx.atom
Atom
p1380
(dp1381
g38
(lp1382
sg40
I0
sg22
g1315
sg41
F0.0
sg42
g24
sg43
S" O5'"
p1383
sg45
S' '
p1384
sg47
g24
sg48
I4
sg25
I4
sg49
F0.0
sg26
S'A'
p1385
sg51
(lp1386
sg53
(lp1387
sg55
(lp1388
sg57
I0
sg58
g24
sg59
S'O'
p1389
sg61
F0.0
sg62
F0.0
sg63
I1
sg64
g1318
sg29
S'A'
p1390
sg66
F0.0
sg67
(lp1391
sg69
F0.0
sg70
I0
sg71
g24
sg9
S"O5'"
p1392
sg73
F0.0
sg74
(lp1393
sg76
g24
sg77
g24
sg78
F0.0
sg79
S'ATOM  '
p1394
sg81
S' '
p1395
sg83
g24
sg84
(lp1396
I0
aI0
aI0
asg31
S'DG'
p1397
sg86
(lp1398
F-6.636
aF4.079
aF-14.024
asg33
g1307
sg88
F1.0
sba(ipmx.atom
Atom
p1399
(dp1400
g38
(lp1401
sg40
I0
sg22
g1315
sg41
F0.0
sg42
g24
sg43
S" C5'"
p1402
sg45
S' '
p1403
sg47
g24
sg48
I5
sg25
I5
sg49
F0.0
sg26
S'A'
p1404
sg51
(lp1405
sg53
(lp1406
sg55
(lp1407
sg57
I0
sg58
g24
sg59
S'C'
p1408
sg61
F0.0
sg62
F0.0
sg63
I1
sg64
g1318
sg29
S'A'
p1409
sg66
F0.0
sg67
(lp1410
sg69
F0.0
sg70
I0
sg71
g24
sg9
S"C5'"
p1411
sg73
F0.0
sg74
(lp1412
sg76
g24
sg77
g24
sg78
F0.0
sg79
S'ATOM  '
p1413
sg81
S' '
p1414
sg83
g24
sg84
(lp1415
I0
aI0
aI0
asg31
S'DG'
p1416
sg86
(lp1417
F-5.966
aF4.931
aF-13.106
asg33
g1307
sg88
F1.0
sba(ipmx.atom
Atom
p1418
(dp1419
g38
(lp1420
sg40
I0
sg22
g1315
sg41
F0.0
sg42
g24
sg43
S"1H5'"
p1421
sg45
S' '
p1422
sg47
g24
sg48
I6
sg25
I6
sg49
F0.0
sg26
S'A'
p1423
sg51
(lp1424
sg53
(lp1425
sg55
(lp1426
sg57
I0
sg58
g24
sg59
S'H'
p1427
sg61
F0.0
sg62
F0.0
sg63
I1
sg64
g1318
sg29
S'A'
p1428
sg66
F0.0
sg67
(lp1429
sg69
F0.0
sg70
I0
sg71
g24
sg9
g177
sg73
F0.0
sg74
(lp1430
sg76
g24
sg77
g24
sg78
F0.0
sg79
S'ATOM  '
p1431
sg81
S' '
p1432
sg83
g24
sg84
(lp1433
I0
aI0
aI0
asg31
S'DG'
p1434
sg86
(lp1435
F-6.686
aF5.64
aF-12.692
asg33
g1307
sg88
F1.0
sba(ipmx.atom
Atom
p1436
(dp1437
g38
(lp1438
sg40
I0
sg22
g1315
sg41
F0.0
sg42
g24
sg43
S"2H5'"
p1439
sg45
S' '
p1440
sg47
g24
sg48
I7
sg25
I7
sg49
F0.0
sg26
S'A'
p1441
sg51
(lp1442
sg53
(lp1443
sg55
(lp1444
sg57
I0
sg58
g24
sg59
S'H'
p1445
sg61
F0.0
sg62
F0.0
sg63
I1
sg64
g1318
sg29
S'A'
p1446
sg66
F0.0
sg67
(lp1447
sg69
F0.0
sg70
I0
sg71
g24
sg9
g196
sg73
F0.0
sg74
(lp1448
sg76
g24
sg77
g24
sg78
F0.0
sg79
S'ATOM  '
p1449
sg81
S' '
p1450
sg83
g24
sg84
(lp1451
I0
aI0
aI0
asg31
S'DG'
p1452
sg86
(lp1453
F-5.608
aF4.331
aF-12.265
asg33
g1307
sg88
F1.0
sba(ipmx.atom
Atom
p1454
(dp1455
g38
(lp1456
sg40
I0
sg22
g1315
sg41
F0.0
sg42
g24
sg43
S" C4'"
p1457
sg45
S' '
p1458
sg47
g24
sg48
I8
sg25
I8
sg49
F0.0
sg26
S'A'
p1459
sg51
(lp1460
sg53
(lp1461
sg55
(lp1462
sg57
I0
sg58
g24
sg59
S'C'
p1463
sg61
F0.0
sg62
F0.0
sg63
I1
sg64
g1318
sg29
S'A'
p1464
sg66
F0.0
sg67
(lp1465
sg69
F0.0
sg70
I0
sg71
g24
sg9
S"C4'"
p1466
sg73
F0.0
sg74
(lp1467
sg76
g24
sg77
g24
sg78
F0.0
sg79
S'ATOM  '
p1468
sg81
S' '
p1469
sg83
g24
sg84
(lp1470
I0
aI0
aI0
asg31
S'DG'
p1471
sg86
(lp1472
F-4.797
aF5.702
aF-13.74
asg33
g1307
sg88
F1.0
sba(ipmx.atom
Atom
p1473
(dp1474
g38
(lp1475
sg40
I0
sg22
g1315
sg41
F0.0
sg42
g24
sg43
S" H4'"
p1476
sg45
S' '
p1477
sg47
g24
sg48
I9
sg25
I9
sg49
F0.0
sg26
S'A'
p1478
sg51
(lp1479
sg53
(lp1480
sg55
(lp1481
sg57
I0
sg58
g24
sg59
S'H'
p1482
sg61
F0.0
sg62
F0.0
sg63
I1
sg64
g1318
sg29
S'A'
p1483
sg66
F0.0
sg67
(lp1484
sg69
F0.0
sg70
I0
sg71
g24
sg9
S"H4'"
p1485
sg73
F0.0
sg74
(lp1486
sg76
g24
sg77
g24
sg78
F0.0
sg79
S'ATOM  '
p1487
sg81
S' '
p1488
sg83
g24
sg84
(lp1489
I0
aI0
aI0
asg31
S'DG'
p1490
sg86
(lp1491
F-4.597
aF6.551
aF-13.091
asg33
g1307
sg88
F1.0
sba(ipmx.atom
Atom
p1492
(dp1493
g38
(lp1494
sg40
I0
sg22
g1315
sg41
F0.0
sg42
g24
sg43
S" O4'"
p1495
sg45
S' '
p1496
sg47
g24
sg48
I10
sg25
I10
sg49
F0.0
sg26
S'A'
p1497
sg51
(lp1498
sg53
(lp1499
sg55
(lp1500
sg57
I0
sg58
g24
sg59
S'O'
p1501
sg61
F0.0
sg62
F0.0
sg63
I1
sg64
g1318
sg29
S'A'
p1502
sg66
F0.0
sg67
(lp1503
sg69
F0.0
sg70
I0
sg71
g24
sg9
S"O4'"
p1504
sg73
F0.0
sg74
(lp1505
sg76
g24
sg77
g24
sg78
F0.0
sg79
S'ATOM  '
p1506
sg81
S' '
p1507
sg83
g24
sg84
(lp1508
I0
aI0
aI0
asg31
S'DG'
p1509
sg86
(lp1510
F-3.665
aF4.838
aF-13.747
asg33
g1307
sg88
F1.0
sba(ipmx.atom
Atom
p1511
(dp1512
g38
(lp1513
sg40
I0
sg22
g1315
sg41
F0.0
sg42
g24
sg43
S" C1'"
p1514
sg45
S' '
p1515
sg47
g24
sg48
I11
sg25
I11
sg49
F0.0
sg26
S'A'
p1516
sg51
(lp1517
sg53
(lp1518
sg55
(lp1519
sg57
I0
sg58
g24
sg59
S'C'
p1520
sg61
F0.0
sg62
F0.0
sg63
I1
sg64
g1318
sg29
S'A'
p1521
sg66
F0.0
sg67
(lp1522
sg69
F0.0
sg70
I0
sg71
g24
sg9
S"C1'"
p1523
sg73
F0.0
sg74
(lp1524
sg76
g24
sg77
g24
sg78
F0.0
sg79
S'ATOM  '
p1525
sg81
S' '
p1526
sg83
g24
sg84
(lp1527
I0
aI0
aI0
asg31
S'DG'
p1528
sg86
(lp1529
F-3.476
aF4.351
aF-15.064
asg33
g1307
sg88
F1.0
sba(ipmx.atom
Atom
p1530
(dp1531
g38
(lp1532
sg40
I0
sg22
g1315
sg41
F0.0
sg42
g24
sg43
S" H1'"
p1533
sg45
S' '
p1534
sg47
g24
sg48
I12
sg25
I12
sg49
F0.0
sg26
S'A'
p1535
sg51
(lp1536
sg53
(lp1537
sg55
(lp1538
sg57
I0
sg58
g24
sg59
S'H'
p1539
sg61
F0.0
sg62
F0.0
sg63
I1
sg64
g1318
sg29
S'A'
p1540
sg66
F0.0
sg67
(lp1541
sg69
F0.0
sg70
I0
sg71
g24
sg9
S"H1'"
p1542
sg73
F0.0
sg74
(lp1543
sg76
g24
sg77
g24
sg78
F0.0
sg79
S'ATOM  '
p1544
sg81
S' '
p1545
sg83
g24
sg84
(lp1546
I0
aI0
aI0
asg31
S'DG'
p1547
sg86
(lp1548
F-2.535
aF4.749
aF-15.444
asg33
g1307
sg88
F1.0
sba(ipmx.atom
Atom
p1549
(dp1550
g38
(lp1551
sg40
I0
sg22
g1315
sg41
F0.0
sg42
g24
sg43
S' N9 '
p1552
sg45
S' '
p1553
sg47
g24
sg48
I13
sg25
I13
sg49
F0.0
sg26
S'A'
p1554
sg51
(lp1555
sg53
(lp1556
sg55
(lp1557
sg57
I0
sg58
g24
sg59
S'N'
p1558
sg61
F0.0
sg62
F0.0
sg63
I1
sg64
g1318
sg29
S'A'
p1559
sg66
F0.0
sg67
(lp1560
sg69
F0.0
sg70
I0
sg71
g24
sg9
S'N9'
p1561
sg73
F0.0
sg74
(lp1562
sg76
g24
sg77
g24
sg78
F0.0
sg79
S'ATOM  '
p1563
sg81
S' '
p1564
sg83
g24
sg84
(lp1565
I0
aI0
aI0
asg31
S'DG'
p1566
sg86
(lp1567
F-3.389
aF2.874
aF-15.069
asg33
g1307
sg88
F1.0
sba(ipmx.atom
Atom
p1568
(dp1569
g38
(lp1570
sg40
I0
sg22
g1315
sg41
F0.0
sg42
g24
sg43
S' C8 '
p1571
sg45
S' '
p1572
sg47
g24
sg48
I14
sg25
I14
sg49
F0.0
sg26
S'A'
p1573
sg51
(lp1574
sg53
(lp1575
sg55
(lp1576
sg57
I0
sg58
g24
sg59
S'C'
p1577
sg61
F0.0
sg62
F0.0
sg63
I1
sg64
g1318
sg29
S'A'
p1578
sg66
F0.0
sg67
(lp1579
sg69
F0.0
sg70
I0
sg71
g24
sg9
S'C8'
p1580
sg73
F0.0
sg74
(lp1581
sg76
g24
sg77
g24
sg78
F0.0
sg79
S'ATOM  '
p1582
sg81
S' '
p1583
sg83
g24
sg84
(lp1584
I0
aI0
aI0
asg31
S'DG'
p1585
sg86
(lp1586
F-4.401
aF1.946
aF-15.107
asg33
g1307
sg88
F1.0
sba(ipmx.atom
Atom
p1587
(dp1588
g38
(lp1589
sg40
I0
sg22
g1315
sg41
F0.0
sg42
g24
sg43
S' H8 '
p1590
sg45
S' '
p1591
sg47
g24
sg48
I15
sg25
I15
sg49
F0.0
sg26
S'A'
p1592
sg51
(lp1593
sg53
(lp1594
sg55
(lp1595
sg57
I0
sg58
g24
sg59
S'H'
p1596
sg61
F0.0
sg62
F0.0
sg63
I1
sg64
g1318
sg29
S'A'
p1597
sg66
F0.0
sg67
(lp1598
sg69
F0.0
sg70
I0
sg71
g24
sg9
S'H8'
p1599
sg73
F0.0
sg74
(lp1600
sg76
g24
sg77
g24
sg78
F0.0
sg79
S'ATOM  '
p1601
sg81
S' '
p1602
sg83
g24
sg84
(lp1603
I0
aI0
aI0
asg31
S'DG'
p1604
sg86
(lp1605
F-5.445
aF2.226
aF-15.122
asg33
g1307
sg88
F1.0
sba(ipmx.atom
Atom
p1606
(dp1607
g38
(lp1608
sg40
I0
sg22
g1315
sg41
F0.0
sg42
g24
sg43
S' N7 '
p1609
sg45
S' '
p1610
sg47
g24
sg48
I16
sg25
I16
sg49
F0.0
sg26
S'A'
p1611
sg51
(lp1612
sg53
(lp1613
sg55
(lp1614
sg57
I0
sg58
g24
sg59
S'N'
p1615
sg61
F0.0
sg62
F0.0
sg63
I1
sg64
g1318
sg29
S'A'
p1616
sg66
F0.0
sg67
(lp1617
sg69
F0.0
sg70
I0
sg71
g24
sg9
S'N7'
p1618
sg73
F0.0
sg74
(lp1619
sg76
g24
sg77
g24
sg78
F0.0
sg79
S'ATOM  '
p1620
sg81
S' '
p1621
sg83
g24
sg84
(lp1622
I0
aI0
aI0
asg31
S'DG'
p1623
sg86
(lp1624
F-3.996
aF0.708
aF-15.11
asg33
g1307
sg88
F1.0
sba(ipmx.atom
Atom
p1625
(dp1626
g38
(lp1627
sg40
I0
sg22
g1315
sg41
F0.0
sg42
g24
sg43
S' C5 '
p1628
sg45
S' '
p1629
sg47
g24
sg48
I17
sg25
I17
sg49
F0.0
sg26
S'A'
p1630
sg51
(lp1631
sg53
(lp1632
sg55
(lp1633
sg57
I0
sg58
g24
sg59
S'C'
p1634
sg61
F0.0
sg62
F0.0
sg63
I1
sg64
g1318
sg29
S'A'
p1635
sg66
F0.0
sg67
(lp1636
sg69
F0.0
sg70
I0
sg71
g24
sg9
S'C5'
p1637
sg73
F0.0
sg74
(lp1638
sg76
g24
sg77
g24
sg78
F0.0
sg79
S'ATOM  '
p1639
sg81
S' '
p1640
sg83
g24
sg84
(lp1641
I0
aI0
aI0
asg31
S'DG'
p1642
sg86
(lp1643
F-2.605
aF0.825
aF-15.088
asg33
g1307
sg88
F1.0
sba(ipmx.atom
Atom
p1644
(dp1645
g38
(lp1646
sg40
I0
sg22
g1315
sg41
F0.0
sg42
g24
sg43
S' C6 '
p1647
sg45
S' '
p1648
sg47
g24
sg48
I18
sg25
I18
sg49
F0.0
sg26
S'A'
p1649
sg51
(lp1650
sg53
(lp1651
sg55
(lp1652
sg57
I0
sg58
g24
sg59
S'C'
p1653
sg61
F0.0
sg62
F0.0
sg63
I1
sg64
g1318
sg29
S'A'
p1654
sg66
F0.0
sg67
(lp1655
sg69
F0.0
sg70
I0
sg71
g24
sg9
S'C6'
p1656
sg73
F0.0
sg74
(lp1657
sg76
g24
sg77
g24
sg78
F0.0
sg79
S'ATOM  '
p1658
sg81
S' '
p1659
sg83
g24
sg84
(lp1660
I0
aI0
aI0
asg31
S'DG'
p1661
sg86
(lp1662
F-1.576
aF-0.166
aF-15.089
asg33
g1307
sg88
F1.0
sba(ipmx.atom
Atom
p1663
(dp1664
g38
(lp1665
sg40
I0
sg22
g1315
sg41
F0.0
sg42
g24
sg43
S' O6 '
p1666
sg45
S' '
p1667
sg47
g24
sg48
I19
sg25
I19
sg49
F0.0
sg26
S'A'
p1668
sg51
(lp1669
sg53
(lp1670
sg55
(lp1671
sg57
I0
sg58
g24
sg59
S'O'
p1672
sg61
F0.0
sg62
F0.0
sg63
I1
sg64
g1318
sg29
S'A'
p1673
sg66
F0.0
sg67
(lp1674
sg69
F0.0
sg70
I0
sg71
g24
sg9
S'O6'
p1675
sg73
F0.0
sg74
(lp1676
sg76
g24
sg77
g24
sg78
F0.0
sg79
S'ATOM  '
p1677
sg81
S' '
p1678
sg83
g24
sg84
(lp1679
I0
aI0
aI0
asg31
S'DG'
p1680
sg86
(lp1681
F-1.693
aF-1.387
aF-15.095
asg33
g1307
sg88
F1.0
sba(ipmx.atom
Atom
p1682
(dp1683
g38
(lp1684
sg40
I0
sg22
g1315
sg41
F0.0
sg42
g24
sg43
S' N1 '
p1685
sg45
S' '
p1686
sg47
g24
sg48
I20
sg25
I20
sg49
F0.0
sg26
S'A'
p1687
sg51
(lp1688
sg53
(lp1689
sg55
(lp1690
sg57
I0
sg58
g24
sg59
S'N'
p1691
sg61
F0.0
sg62
F0.0
sg63
I1
sg64
g1318
sg29
S'A'
p1692
sg66
F0.0
sg67
(lp1693
sg69
F0.0
sg70
I0
sg71
g24
sg9
S'N1'
p1694
sg73
F0.0
sg74
(lp1695
sg76
g24
sg77
g24
sg78
F0.0
sg79
S'ATOM  '
p1696
sg81
S' '
p1697
sg83
g24
sg84
(lp1698
I0
aI0
aI0
asg31
S'DG'
p1699
sg86
(lp1700
F-0.299
aF0.354
aF-15.087
asg33
g1307
sg88
F1.0
sba(ipmx.atom
Atom
p1701
(dp1702
g38
(lp1703
sg40
I0
sg22
g1315
sg41
F0.0
sg42
g24
sg43
S' H1 '
p1704
sg45
S' '
p1705
sg47
g24
sg48
I21
sg25
I21
sg49
F0.0
sg26
S'A'
p1706
sg51
(lp1707
sg53
(lp1708
sg55
(lp1709
sg57
I0
sg58
g24
sg59
S'H'
p1710
sg61
F0.0
sg62
F0.0
sg63
I1
sg64
g1318
sg29
S'A'
p1711
sg66
F0.0
sg67
(lp1712
sg69
F0.0
sg70
I0
sg71
g24
sg9
S'H1'
p1713
sg73
F0.0
sg74
(lp1714
sg76
g24
sg77
g24
sg78
F0.0
sg79
S'ATOM  '
p1715
sg81
S' '
p1716
sg83
g24
sg84
(lp1717
I0
aI0
aI0
asg31
S'DG'
p1718
sg86
(lp1719
F0.468
aF-0.3
aF-15.081
asg33
g1307
sg88
F1.0
sba(ipmx.atom
Atom
p1720
(dp1721
g38
(lp1722
sg40
I0
sg22
g1315
sg41
F0.0
sg42
g24
sg43
S' C2 '
p1723
sg45
S' '
p1724
sg47
g24
sg48
I22
sg25
I22
sg49
F0.0
sg26
S'A'
p1725
sg51
(lp1726
sg53
(lp1727
sg55
(lp1728
sg57
I0
sg58
g24
sg59
S'C'
p1729
sg61
F0.0
sg62
F0.0
sg63
I1
sg64
g1318
sg29
S'A'
p1730
sg66
F0.0
sg67
(lp1731
sg69
F0.0
sg70
I0
sg71
g24
sg9
S'C2'
p1732
sg73
F0.0
sg74
(lp1733
sg76
g24
sg77
g24
sg78
F0.0
sg79
S'ATOM  '
p1734
sg81
S' '
p1735
sg83
g24
sg84
(lp1736
I0
aI0
aI0
asg31
S'DG'
p1737
sg86
(lp1738
F-0.021
aF1.681
aF-15.095
asg33
g1307
sg88
F1.0
sba(ipmx.atom
Atom
p1739
(dp1740
g38
(lp1741
sg40
I0
sg22
g1315
sg41
F0.0
sg42
g24
sg43
S' N2 '
p1742
sg45
S' '
p1743
sg47
g24
sg48
I23
sg25
I23
sg49
F0.0
sg26
S'A'
p1744
sg51
(lp1745
sg53
(lp1746
sg55
(lp1747
sg57
I0
sg58
g24
sg59
S'N'
p1748
sg61
F0.0
sg62
F0.0
sg63
I1
sg64
g1318
sg29
S'A'
p1749
sg66
F0.0
sg67
(lp1750
sg69
F0.0
sg70
I0
sg71
g24
sg9
S'N2'
p1751
sg73
F0.0
sg74
(lp1752
sg76
g24
sg77
g24
sg78
F0.0
sg79
S'ATOM  '
p1753
sg81
S' '
p1754
sg83
g24
sg84
(lp1755
I0
aI0
aI0
asg31
S'DG'
p1756
sg86
(lp1757
F1.247
aF2.012
aF-15.09
asg33
g1307
sg88
F1.0
sba(ipmx.atom
Atom
p1758
(dp1759
g38
(lp1760
sg40
I0
sg22
g1315
sg41
F0.0
sg42
g24
sg43
S' H21'
p1761
sg45
S' '
p1762
sg47
g24
sg48
I24
sg25
I24
sg49
F0.0
sg26
S'A'
p1763
sg51
(lp1764
sg53
(lp1765
sg55
(lp1766
sg57
I0
sg58
g24
sg59
S'H'
p1767
sg61
F0.0
sg62
F0.0
sg63
I1
sg64
g1318
sg29
S'A'
p1768
sg66
F0.0
sg67
(lp1769
sg69
F0.0
sg70
I0
sg71
g24
sg9
S'H21'
p1770
sg73
F0.0
sg74
(lp1771
sg76
g24
sg77
g24
sg78
F0.0
sg79
S'ATOM  '
p1772
sg81
S' '
p1773
sg83
g24
sg84
(lp1774
I0
aI0
aI0
asg31
S'DG'
p1775
sg86
(lp1776
F1.482
aF2.989
aF-15.104
asg33
g1307
sg88
F1.0
sba(ipmx.atom
Atom
p1777
(dp1778
g38
(lp1779
sg40
I0
sg22
g1315
sg41
F0.0
sg42
g24
sg43
S' H22'
p1780
sg45
S' '
p1781
sg47
g24
sg48
I25
sg25
I25
sg49
F0.0
sg26
S'A'
p1782
sg51
(lp1783
sg53
(lp1784
sg55
(lp1785
sg57
I0
sg58
g24
sg59
S'H'
p1786
sg61
F0.0
sg62
F0.0
sg63
I1
sg64
g1318
sg29
S'A'
p1787
sg66
F0.0
sg67
(lp1788
sg69
F0.0
sg70
I0
sg71
g24
sg9
S'H22'
p1789
sg73
F0.0
sg74
(lp1790
sg76
g24
sg77
g24
sg78
F0.0
sg79
S'ATOM  '
p1791
sg81
S' '
p1792
sg83
g24
sg84
(lp1793
I0
aI0
aI0
asg31
S'DG'
p1794
sg86
(lp1795
F1.973
aF1.296
aF-15.084
asg33
g1307
sg88
F1.0
sba(ipmx.atom
Atom
p1796
(dp1797
g38
(lp1798
sg40
I0
sg22
g1315
sg41
F0.0
sg42
g24
sg43
S' N3 '
p1799
sg45
S' '
p1800
sg47
g24
sg48
I26
sg25
I26
sg49
F0.0
sg26
S'A'
p1801
sg51
(lp1802
sg53
(lp1803
sg55
(lp1804
sg57
I0
sg58
g24
sg59
S'N'
p1805
sg61
F0.0
sg62
F0.0
sg63
I1
sg64
g1318
sg29
S'A'
p1806
sg66
F0.0
sg67
(lp1807
sg69
F0.0
sg70
I0
sg71
g24
sg9
S'N3'
p1808
sg73
F0.0
sg74
(lp1809
sg76
g24
sg77
g24
sg78
F0.0
sg79
S'ATOM  '
p1810
sg81
S' '
p1811
sg83
g24
sg84
(lp1812
I0
aI0
aI0
asg31
S'DG'
p1813
sg86
(lp1814
F-0.94
aF2.641
aF-15.097
asg33
g1307
sg88
F1.0
sba(ipmx.atom
Atom
p1815
(dp1816
g38
(lp1817
sg40
I0
sg22
g1315
sg41
F0.0
sg42
g24
sg43
S' C4 '
p1818
sg45
S' '
p1819
sg47
g24
sg48
I27
sg25
I27
sg49
F0.0
sg26
S'A'
p1820
sg51
(lp1821
sg53
(lp1822
sg55
(lp1823
sg57
I0
sg58
g24
sg59
S'C'
p1824
sg61
F0.0
sg62
F0.0
sg63
I1
sg64
g1318
sg29
S'A'
p1825
sg66
F0.0
sg67
(lp1826
sg69
F0.0
sg70
I0
sg71
g24
sg9
S'C4'
p1827
sg73
F0.0
sg74
(lp1828
sg76
g24
sg77
g24
sg78
F0.0
sg79
S'ATOM  '
p1829
sg81
S' '
p1830
sg83
g24
sg84
(lp1831
I0
aI0
aI0
asg31
S'DG'
p1832
sg86
(lp1833
F-2.221
aF2.152
aF-15.082
asg33
g1307
sg88
F1.0
sba(ipmx.atom
Atom
p1834
(dp1835
g38
(lp1836
sg40
I0
sg22
g1315
sg41
F0.0
sg42
g24
sg43
S" C3'"
p1837
sg45
S' '
p1838
sg47
g24
sg48
I28
sg25
I28
sg49
F0.0
sg26
S'A'
p1839
sg51
(lp1840
sg53
(lp1841
sg55
(lp1842
sg57
I0
sg58
g24
sg59
S'C'
p1843
sg61
F0.0
sg62
F0.0
sg63
I1
sg64
g1318
sg29
S'A'
p1844
sg66
F0.0
sg67
(lp1845
sg69
F0.0
sg70
I0
sg71
g24
sg9
S"C3'"
p1846
sg73
F0.0
sg74
(lp1847
sg76
g24
sg77
g24
sg78
F0.0
sg79
S'ATOM  '
p1848
sg81
S' '
p1849
sg83
g24
sg84
(lp1850
I0
aI0
aI0
asg31
S'DG'
p1851
sg86
(lp1852
F-5.086
aF6.165
aF-15.2
asg33
g1307
sg88
F1.0
sba(ipmx.atom
Atom
p1853
(dp1854
g38
(lp1855
sg40
I0
sg22
g1315
sg41
F0.0
sg42
g24
sg43
S" H3'"
p1856
sg45
S' '
p1857
sg47
g24
sg48
I29
sg25
I29
sg49
F0.0
sg26
S'A'
p1858
sg51
(lp1859
sg53
(lp1860
sg55
(lp1861
sg57
I0
sg58
g24
sg59
S'H'
p1862
sg61
F0.0
sg62
F0.0
sg63
I1
sg64
g1318
sg29
S'A'
p1863
sg66
F0.0
sg67
(lp1864
sg69
F0.0
sg70
I0
sg71
g24
sg9
S"H3'"
p1865
sg73
F0.0
sg74
(lp1866
sg76
g24
sg77
g24
sg78
F0.0
sg79
S'ATOM  '
p1867
sg81
S' '
p1868
sg83
g24
sg84
(lp1869
I0
aI0
aI0
asg31
S'DG'
p1870
sg86
(lp1871
F-6.155
aF6.304
aF-15.328
asg33
g1307
sg88
F1.0
sba(ipmx.atom
Atom
p1872
(dp1873
g38
(lp1874
sg40
I0
sg22
g1315
sg41
F0.0
sg42
g24
sg43
S" C2'"
p1875
sg45
S' '
p1876
sg47
g24
sg48
I30
sg25
I30
sg49
F0.0
sg26
S'A'
p1877
sg51
(lp1878
sg53
(lp1879
sg55
(lp1880
sg57
I0
sg58
g24
sg59
S'C'
p1881
sg61
F0.0
sg62
F0.0
sg63
I1
sg64
g1318
sg29
S'A'
p1882
sg66
F0.0
sg67
(lp1883
sg69
F0.0
sg70
I0
sg71
g24
sg9
S"C2'"
p1884
sg73
F0.0
sg74
(lp1885
sg76
g24
sg77
g24
sg78
F0.0
sg79
S'ATOM  '
p1886
sg81
S' '
p1887
sg83
g24
sg84
(lp1888
I0
aI0
aI0
asg31
S'DG'
p1889
sg86
(lp1890
F-4.613
aF4.904
aF-15.927
asg33
g1307
sg88
F1.0
sba(ipmx.atom
Atom
p1891
(dp1892
g38
(lp1893
sg40
I0
sg22
g1315
sg41
F0.0
sg42
g24
sg43
S"1H2'"
p1894
sg45
S' '
p1895
sg47
g24
sg48
I31
sg25
I31
sg49
F0.0
sg26
S'A'
p1896
sg51
(lp1897
sg53
(lp1898
sg55
(lp1899
sg57
I0
sg58
g24
sg59
S'H'
p1900
sg61
F0.0
sg62
F0.0
sg63
I1
sg64
g1318
sg29
S'A'
p1901
sg66
F0.0
sg67
(lp1902
sg69
F0.0
sg70
I0
sg71
g24
sg9
g633
sg73
F0.0
sg74
(lp1903
sg76
g24
sg77
g24
sg78
F0.0
sg79
S'ATOM  '
p1904
sg81
S' '
p1905
sg83
g24
sg84
(lp1906
I0
aI0
aI0
asg31
S'DG'
p1907
sg86
(lp1908
F-5.432
aF4.196
aF-16.028
asg33
g1307
sg88
F1.0
sba(ipmx.atom
Atom
p1909
(dp1910
g38
(lp1911
sg40
I0
sg22
g1315
sg41
F0.0
sg42
g24
sg43
S"2H2'"
p1912
sg45
S' '
p1913
sg47
g24
sg48
I32
sg25
I32
sg49
F0.0
sg26
S'A'
p1914
sg51
(lp1915
sg53
(lp1916
sg55
(lp1917
sg57
I0
sg58
g24
sg59
S'H'
p1918
sg61
F0.0
sg62
F0.0
sg63
I1
sg64
g1318
sg29
S'A'
p1919
sg66
F0.0
sg67
(lp1920
sg69
F0.0
sg70
I0
sg71
g24
sg9
g652
sg73
F0.0
sg74
(lp1921
sg76
g24
sg77
g24
sg78
F0.0
sg79
S'ATOM  '
p1922
sg81
S' '
p1923
sg83
g24
sg84
(lp1924
I0
aI0
aI0
asg31
S'DG'
p1925
sg86
(lp1926
F-4.274
aF5.113
aF-16.92
asg33
g1307
sg88
F1.0
sba(ipmx.atom
Atom
p1927
(dp1928
g38
(lp1929
sg40
I0
sg22
g1315
sg41
F0.0
sg42
g24
sg43
S" O3'"
p1930
sg45
S' '
p1931
sg47
g24
sg48
I33
sg25
I33
sg49
F0.0
sg26
S'A'
p1932
sg51
(lp1933
sg53
(lp1934
sg55
(lp1935
sg57
I0
sg58
g24
sg59
S'O'
p1936
sg61
F0.0
sg62
F0.0
sg63
I1
sg64
g1318
sg29
S'A'
p1937
sg66
F0.0
sg67
(lp1938
sg69
F0.0
sg70
I0
sg71
g24
sg9
S"O3'"
p1939
sg73
F0.0
sg74
(lp1940
sg76
g24
sg77
g24
sg78
F0.0
sg79
S'ATOM  '
p1941
sg81
S' '
p1942
sg83
g24
sg84
(lp1943
I0
aI0
aI0
asg31
S'DG'
p1944
sg86
(lp1945
F-4.475
aF7.395
aF-15.64
asg33
g1307
sg88
F1.0
sbasg48
I1
sg678
Nsbasg34
(lp1946
g1324
ag1342
ag1361
ag1380
ag1399
ag1418
ag1436
ag1454
ag1473
ag1492
ag1511
ag1530
ag1549
ag1568
ag1587
ag1606
ag1625
ag1644
ag1663
ag1682
ag1701
ag1720
ag1739
ag1758
ag1777
ag1796
ag1815
ag1834
ag1853
ag1872
ag1891
ag1909
ag1927
asg680
I0
sg29
S'A'
p1947
sg33
g1307
sg682
I00
sg48
S'A'
p1948
sbsS'B'
p1949
(ipmx.chain
Chain
p1950
(dp1951
g17
(lp1952
(ipmx.molecule
Molecule
p1953
(dp1954
g21
I0
sg22
g1950
sg23
g24
sg25
I2
sg26
S'B'
p1955
sg28
Nsg29
S'A'
p1956
sg31
S'DC'
p1957
sg33
g1307
sg34
(lp1958
(ipmx.atom
Atom
p1959
(dp1960
g38
(lp1961
sg40
I0
sg22
g1950
sg41
F0.0
sg42
g24
sg43
S' P  '
p1962
sg45
S' '
p1963
sg47
g24
sg48
I34
sg25
I34
sg49
F0.0
sg26
S'B'
p1964
sg51
(lp1965
sg53
(lp1966
sg55
(lp1967
sg57
I0
sg58
g24
sg59
S'P'
p1968
sg61
F0.0
sg62
F0.0
sg63
I2
sg64
g1953
sg29
S'A'
p1969
sg66
F0.0
sg67
(lp1970
sg69
F0.0
sg70
I0
sg71
g24
sg9
S'P'
p1971
sg73
F0.0
sg74
(lp1972
sg76
g24
sg77
g24
sg78
F0.0
sg79
S'ATOM  '
p1973
sg81
S' '
p1974
sg83
g24
sg84
(lp1975
I0
aI0
aI0
asg31
g1957
sg86
(lp1976
F6.688
aF-6.31
aF-16.322
asg33
g1307
sg88
F1.0
sba(ipmx.atom
Atom
p1977
(dp1978
g38
(lp1979
sg40
I0
sg22
g1950
sg41
F0.0
sg42
g24
sg43
S' O1P'
p1980
sg45
S' '
p1981
sg47
g24
sg48
I35
sg25
I35
sg49
F0.0
sg26
S'B'
p1982
sg51
(lp1983
sg53
(lp1984
sg55
(lp1985
sg57
I0
sg58
g24
sg59
S'O'
p1986
sg61
F0.0
sg62
F0.0
sg63
I2
sg64
g1953
sg29
S'A'
p1987
sg66
F0.0
sg67
(lp1988
sg69
F0.0
sg70
I0
sg71
g24
sg9
S'O1P'
p1989
sg73
F0.0
sg74
(lp1990
sg76
g24
sg77
g24
sg78
F0.0
sg79
S'ATOM  '
p1991
sg81
S' '
p1992
sg83
g24
sg84
(lp1993
I0
aI0
aI0
asg31
S'DC'
p1994
sg86
(lp1995
F8.172
aF-6.501
aF-16.233
asg33
g1307
sg88
F1.0
sba(ipmx.atom
Atom
p1996
(dp1997
g38
(lp1998
sg40
I0
sg22
g1950
sg41
F0.0
sg42
g24
sg43
S' O2P'
p1999
sg45
S' '
p2000
sg47
g24
sg48
I36
sg25
I36
sg49
F0.0
sg26
S'B'
p2001
sg51
(lp2002
sg53
(lp2003
sg55
(lp2004
sg57
I0
sg58
g24
sg59
S'O'
p2005
sg61
F0.0
sg62
F0.0
sg63
I2
sg64
g1953
sg29
S'A'
p2006
sg66
F0.0
sg67
(lp2007
sg69
F0.0
sg70
I0
sg71
g24
sg9
S'O2P'
p2008
sg73
F0.0
sg74
(lp2009
sg76
g24
sg77
g24
sg78
F0.0
sg79
S'ATOM  '
p2010
sg81
S' '
p2011
sg83
g24
sg84
(lp2012
I0
aI0
aI0
asg31
S'DC'
p2013
sg86
(lp2014
F5.784
aF-7.078
aF-15.474
asg33
g1307
sg88
F1.0
sba(ipmx.atom
Atom
p2015
(dp2016
g38
(lp2017
sg40
I0
sg22
g1950
sg41
F0.0
sg42
g24
sg43
S" O5'"
p2018
sg45
S' '
p2019
sg47
g24
sg48
I37
sg25
I37
sg49
F0.0
sg26
S'B'
p2020
sg51
(lp2021
sg53
(lp2022
sg55
(lp2023
sg57
I0
sg58
g24
sg59
S'O'
p2024
sg61
F0.0
sg62
F0.0
sg63
I2
sg64
g1953
sg29
S'A'
p2025
sg66
F0.0
sg67
(lp2026
sg69
F0.0
sg70
I0
sg71
g24
sg9
S"O5'"
p2027
sg73
F0.0
sg74
(lp2028
sg76
g24
sg77
g24
sg78
F0.0
sg79
S'ATOM  '
p2029
sg81
S' '
p2030
sg83
g24
sg84
(lp2031
I0
aI0
aI0
asg31
S'DC'
p2032
sg86
(lp2033
F6.457
aF-4.751
aF-16.121
asg33
g1307
sg88
F1.0
sba(ipmx.atom
Atom
p2034
(dp2035
g38
(lp2036
sg40
I0
sg22
g1950
sg41
F0.0
sg42
g24
sg43
S" C5'"
p2037
sg45
S' '
p2038
sg47
g24
sg48
I38
sg25
I38
sg49
F0.0
sg26
S'B'
p2039
sg51
(lp2040
sg53
(lp2041
sg55
(lp2042
sg57
I0
sg58
g24
sg59
S'C'
p2043
sg61
F0.0
sg62
F0.0
sg63
I2
sg64
g1953
sg29
S'A'
p2044
sg66
F0.0
sg67
(lp2045
sg69
F0.0
sg70
I0
sg71
g24
sg9
S"C5'"
p2046
sg73
F0.0
sg74
(lp2047
sg76
g24
sg77
g24
sg78
F0.0
sg79
S'ATOM  '
p2048
sg81
S' '
p2049
sg83
g24
sg84
(lp2050
I0
aI0
aI0
asg31
S'DC'
p2051
sg86
(lp2052
F7.029
aF-3.777
aF-16.983
asg33
g1307
sg88
F1.0
sba(ipmx.atom
Atom
p2053
(dp2054
g38
(lp2055
sg40
I0
sg22
g1950
sg41
F0.0
sg42
g24
sg43
S"1H5'"
p2056
sg45
S' '
p2057
sg47
g24
sg48
I39
sg25
I39
sg49
F0.0
sg26
S'B'
p2058
sg51
(lp2059
sg53
(lp2060
sg55
(lp2061
sg57
I0
sg58
g24
sg59
S'H'
p2062
sg61
F0.0
sg62
F0.0
sg63
I2
sg64
g1953
sg29
S'A'
p2063
sg66
F0.0
sg67
(lp2064
sg69
F0.0
sg70
I0
sg71
g24
sg9
g177
sg73
F0.0
sg74
(lp2065
sg76
g24
sg77
g24
sg78
F0.0
sg79
S'ATOM  '
p2066
sg81
S' '
p2067
sg83
g24
sg84
(lp2068
I0
aI0
aI0
asg31
S'DC'
p2069
sg86
(lp2070
F7.976
aF-4.151
aF-17.379
asg33
g1307
sg88
F1.0
sba(ipmx.atom
Atom
p2071
(dp2072
g38
(lp2073
sg40
I0
sg22
g1950
sg41
F0.0
sg42
g24
sg43
S"2H5'"
p2074
sg45
S' '
p2075
sg47
g24
sg48
I40
sg25
I40
sg49
F0.0
sg26
S'B'
p2076
sg51
(lp2077
sg53
(lp2078
sg55
(lp2079
sg57
I0
sg58
g24
sg59
S'H'
p2080
sg61
F0.0
sg62
F0.0
sg63
I2
sg64
g1953
sg29
S'A'
p2081
sg66
F0.0
sg67
(lp2082
sg69
F0.0
sg70
I0
sg71
g24
sg9
g196
sg73
F0.0
sg74
(lp2083
sg76
g24
sg77
g24
sg78
F0.0
sg79
S'ATOM  '
p2084
sg81
S' '
p2085
sg83
g24
sg84
(lp2086
I0
aI0
aI0
asg31
S'DC'
p2087
sg86
(lp2088
F6.37
aF-3.612
aF-17.84
asg33
g1307
sg88
F1.0
sba(ipmx.atom
Atom
p2089
(dp2090
g38
(lp2091
sg40
I0
sg22
g1950
sg41
F0.0
sg42
g24
sg43
S" C4'"
p2092
sg45
S' '
p2093
sg47
g24
sg48
I41
sg25
I41
sg49
F0.0
sg26
S'B'
p2094
sg51
(lp2095
sg53
(lp2096
sg55
(lp2097
sg57
I0
sg58
g24
sg59
S'C'
p2098
sg61
F0.0
sg62
F0.0
sg63
I2
sg64
g1953
sg29
S'A'
p2099
sg66
F0.0
sg67
(lp2100
sg69
F0.0
sg70
I0
sg71
g24
sg9
S"C4'"
p2101
sg73
F0.0
sg74
(lp2102
sg76
g24
sg77
g24
sg78
F0.0
sg79
S'ATOM  '
p2103
sg81
S' '
p2104
sg83
g24
sg84
(lp2105
I0
aI0
aI0
asg31
S'DC'
p2106
sg86
(lp2107
F7.279
aF-2.435
aF-16.269
asg33
g1307
sg88
F1.0
sba(ipmx.atom
Atom
p2108
(dp2109
g38
(lp2110
sg40
I0
sg22
g1950
sg41
F0.0
sg42
g24
sg43
S" H4'"
p2111
sg45
S' '
p2112
sg47
g24
sg48
I42
sg25
I42
sg49
F0.0
sg26
S'B'
p2113
sg51
(lp2114
sg53
(lp2115
sg55
(lp2116
sg57
I0
sg58
g24
sg59
S'H'
p2117
sg61
F0.0
sg62
F0.0
sg63
I2
sg64
g1953
sg29
S'A'
p2118
sg66
F0.0
sg67
(lp2119
sg69
F0.0
sg70
I0
sg71
g24
sg9
S"H4'"
p2120
sg73
F0.0
sg74
(lp2121
sg76
g24
sg77
g24
sg78
F0.0
sg79
S'ATOM  '
p2122
sg81
S' '
p2123
sg83
g24
sg84
(lp2124
I0
aI0
aI0
asg31
S'DC'
p2125
sg86
(lp2126
F8.022
aF-1.889
aF-16.846
asg33
g1307
sg88
F1.0
sba(ipmx.atom
Atom
p2127
(dp2128
g38
(lp2129
sg40
I0
sg22
g1950
sg41
F0.0
sg42
g24
sg43
S" O4'"
p2130
sg45
S' '
p2131
sg47
g24
sg48
I43
sg25
I43
sg49
F0.0
sg26
S'B'
p2132
sg51
(lp2133
sg53
(lp2134
sg55
(lp2135
sg57
I0
sg58
g24
sg59
S'O'
p2136
sg61
F0.0
sg62
F0.0
sg63
I2
sg64
g1953
sg29
S'A'
p2137
sg66
F0.0
sg67
(lp2138
sg69
F0.0
sg70
I0
sg71
g24
sg9
S"O4'"
p2139
sg73
F0.0
sg74
(lp2140
sg76
g24
sg77
g24
sg78
F0.0
sg79
S'ATOM  '
p2141
sg81
S' '
p2142
sg83
g24
sg84
(lp2143
I0
aI0
aI0
asg31
S'DC'
p2144
sg86
(lp2145
F6.06
aF-1.695
aF-16.25
asg33
g1307
sg88
F1.0
sba(ipmx.atom
Atom
p2146
(dp2147
g38
(lp2148
sg40
I0
sg22
g1950
sg41
F0.0
sg42
g24
sg43
S" C1'"
p2149
sg45
S' '
p2150
sg47
g24
sg48
I44
sg25
I44
sg49
F0.0
sg26
S'B'
p2151
sg51
(lp2152
sg53
(lp2153
sg55
(lp2154
sg57
I0
sg58
g24
sg59
S'C'
p2155
sg61
F0.0
sg62
F0.0
sg63
I2
sg64
g1953
sg29
S'A'
p2156
sg66
F0.0
sg67
(lp2157
sg69
F0.0
sg70
I0
sg71
g24
sg9
S"C1'"
p2158
sg73
F0.0
sg74
(lp2159
sg76
g24
sg77
g24
sg78
F0.0
sg79
S'ATOM  '
p2160
sg81
S' '
p2161
sg83
g24
sg84
(lp2162
I0
aI0
aI0
asg31
S'DC'
p2163
sg86
(lp2164
F5.491
aF-1.763
aF-14.95
asg33
g1307
sg88
F1.0
sba(ipmx.atom
Atom
p2165
(dp2166
g38
(lp2167
sg40
I0
sg22
g1950
sg41
F0.0
sg42
g24
sg43
S" H1'"
p2168
sg45
S' '
p2169
sg47
g24
sg48
I45
sg25
I45
sg49
F0.0
sg26
S'B'
p2170
sg51
(lp2171
sg53
(lp2172
sg55
(lp2173
sg57
I0
sg58
g24
sg59
S'H'
p2174
sg61
F0.0
sg62
F0.0
sg63
I2
sg64
g1953
sg29
S'A'
p2175
sg66
F0.0
sg67
(lp2176
sg69
F0.0
sg70
I0
sg71
g24
sg9
S"H1'"
p2177
sg73
F0.0
sg74
(lp2178
sg76
g24
sg77
g24
sg78
F0.0
sg79
S'ATOM  '
p2179
sg81
S' '
p2180
sg83
g24
sg84
(lp2181
I0
aI0
aI0
asg31
S'DC'
p2182
sg86
(lp2183
F5.52
aF-0.76
aF-14.515
asg33
g1307
sg88
F1.0
sba(ipmx.atom
Atom
p2184
(dp2185
g38
(lp2186
sg40
I0
sg22
g1950
sg41
F0.0
sg42
g24
sg43
S' N1 '
p2187
sg45
S' '
p2188
sg47
g24
sg48
I46
sg25
I46
sg49
F0.0
sg26
S'B'
p2189
sg51
(lp2190
sg53
(lp2191
sg55
(lp2192
sg57
I0
sg58
g24
sg59
S'N'
p2193
sg61
F0.0
sg62
F0.0
sg63
I2
sg64
g1953
sg29
S'A'
p2194
sg66
F0.0
sg67
(lp2195
sg69
F0.0
sg70
I0
sg71
g24
sg9
S'N1'
p2196
sg73
F0.0
sg74
(lp2197
sg76
g24
sg77
g24
sg78
F0.0
sg79
S'ATOM  '
p2198
sg81
S' '
p2199
sg83
g24
sg84
(lp2200
I0
aI0
aI0
asg31
S'DC'
p2201
sg86
(lp2202
F4.072
aF-2.226
aF-15.026
asg33
g1307
sg88
F1.0
sba(ipmx.atom
Atom
p2203
(dp2204
g38
(lp2205
sg40
I0
sg22
g1950
sg41
F0.0
sg42
g24
sg43
S' C6 '
p2206
sg45
S' '
p2207
sg47
g24
sg48
I47
sg25
I47
sg49
F0.0
sg26
S'B'
p2208
sg51
(lp2209
sg53
(lp2210
sg55
(lp2211
sg57
I0
sg58
g24
sg59
S'C'
p2212
sg61
F0.0
sg62
F0.0
sg63
I2
sg64
g1953
sg29
S'A'
p2213
sg66
F0.0
sg67
(lp2214
sg69
F0.0
sg70
I0
sg71
g24
sg9
S'C6'
p2215
sg73
F0.0
sg74
(lp2216
sg76
g24
sg77
g24
sg78
F0.0
sg79
S'ATOM  '
p2217
sg81
S' '
p2218
sg83
g24
sg84
(lp2219
I0
aI0
aI0
asg31
S'DC'
p2220
sg86
(lp2221
F3.748
aF-3.556
aF-15.091
asg33
g1307
sg88
F1.0
sba(ipmx.atom
Atom
p2222
(dp2223
g38
(lp2224
sg40
I0
sg22
g1950
sg41
F0.0
sg42
g24
sg43
S' H6 '
p2225
sg45
S' '
p2226
sg47
g24
sg48
I48
sg25
I48
sg49
F0.0
sg26
S'B'
p2227
sg51
(lp2228
sg53
(lp2229
sg55
(lp2230
sg57
I0
sg58
g24
sg59
S'H'
p2231
sg61
F0.0
sg62
F0.0
sg63
I2
sg64
g1953
sg29
S'A'
p2232
sg66
F0.0
sg67
(lp2233
sg69
F0.0
sg70
I0
sg71
g24
sg9
S'H6'
p2234
sg73
F0.0
sg74
(lp2235
sg76
g24
sg77
g24
sg78
F0.0
sg79
S'ATOM  '
p2236
sg81
S' '
p2237
sg83
g24
sg84
(lp2238
I0
aI0
aI0
asg31
S'DC'
p2239
sg86
(lp2240
F4.522
aF-4.298
aF-15.11
asg33
g1307
sg88
F1.0
sba(ipmx.atom
Atom
p2241
(dp2242
g38
(lp2243
sg40
I0
sg22
g1950
sg41
F0.0
sg42
g24
sg43
S' C5 '
p2244
sg45
S' '
p2245
sg47
g24
sg48
I49
sg25
I49
sg49
F0.0
sg26
S'B'
p2246
sg51
(lp2247
sg53
(lp2248
sg55
(lp2249
sg57
I0
sg58
g24
sg59
S'C'
p2250
sg61
F0.0
sg62
F0.0
sg63
I2
sg64
g1953
sg29
S'A'
p2251
sg66
F0.0
sg67
(lp2252
sg69
F0.0
sg70
I0
sg71
g24
sg9
S'C5'
p2253
sg73
F0.0
sg74
(lp2254
sg76
g24
sg77
g24
sg78
F0.0
sg79
S'ATOM  '
p2255
sg81
S' '
p2256
sg83
g24
sg84
(lp2257
I0
aI0
aI0
asg31
S'DC'
p2258
sg86
(lp2259
F2.459
aF-3.96
aF-15.155
asg33
g1307
sg88
F1.0
sba(ipmx.atom
Atom
p2260
(dp2261
g38
(lp2262
sg40
I0
sg22
g1950
sg41
F0.0
sg42
g24
sg43
S' H5 '
p2263
sg45
S' '
p2264
sg47
g24
sg48
I50
sg25
I50
sg49
F0.0
sg26
S'B'
p2265
sg51
(lp2266
sg53
(lp2267
sg55
(lp2268
sg57
I0
sg58
g24
sg59
S'H'
p2269
sg61
F0.0
sg62
F0.0
sg63
I2
sg64
g1953
sg29
S'A'
p2270
sg66
F0.0
sg67
(lp2271
sg69
F0.0
sg70
I0
sg71
g24
sg9
S'H5'
p2272
sg73
F0.0
sg74
(lp2273
sg76
g24
sg77
g24
sg78
F0.0
sg79
S'ATOM  '
p2274
sg81
S' '
p2275
sg83
g24
sg84
(lp2276
I0
aI0
aI0
asg31
S'DC'
p2277
sg86
(lp2278
F2.228
aF-5.01
aF-15.226
asg33
g1307
sg88
F1.0
sba(ipmx.atom
Atom
p2279
(dp2280
g38
(lp2281
sg40
I0
sg22
g1950
sg41
F0.0
sg42
g24
sg43
S' C4 '
p2282
sg45
S' '
p2283
sg47
g24
sg48
I51
sg25
I51
sg49
F0.0
sg26
S'B'
p2284
sg51
(lp2285
sg53
(lp2286
sg55
(lp2287
sg57
I0
sg58
g24
sg59
S'C'
p2288
sg61
F0.0
sg62
F0.0
sg63
I2
sg64
g1953
sg29
S'A'
p2289
sg66
F0.0
sg67
(lp2290
sg69
F0.0
sg70
I0
sg71
g24
sg9
S'C4'
p2291
sg73
F0.0
sg74
(lp2292
sg76
g24
sg77
g24
sg78
F0.0
sg79
S'ATOM  '
p2293
sg81
S' '
p2294
sg83
g24
sg84
(lp2295
I0
aI0
aI0
asg31
S'DC'
p2296
sg86
(lp2297
F1.476
aF-2.956
aF-15.144
asg33
g1307
sg88
F1.0
sba(ipmx.atom
Atom
p2298
(dp2299
g38
(lp2300
sg40
I0
sg22
g1950
sg41
F0.0
sg42
g24
sg43
S' N4 '
p2301
sg45
S' '
p2302
sg47
g24
sg48
I52
sg25
I52
sg49
F0.0
sg26
S'B'
p2303
sg51
(lp2304
sg53
(lp2305
sg55
(lp2306
sg57
I0
sg58
g24
sg59
S'N'
p2307
sg61
F0.0
sg62
F0.0
sg63
I2
sg64
g1953
sg29
S'A'
p2308
sg66
F0.0
sg67
(lp2309
sg69
F0.0
sg70
I0
sg71
g24
sg9
S'N4'
p2310
sg73
F0.0
sg74
(lp2311
sg76
g24
sg77
g24
sg78
F0.0
sg79
S'ATOM  '
p2312
sg81
S' '
p2313
sg83
g24
sg84
(lp2314
I0
aI0
aI0
asg31
S'DC'
p2315
sg86
(lp2316
F0.23
aF-3.308
aF-15.224
asg33
g1307
sg88
F1.0
sba(ipmx.atom
Atom
p2317
(dp2318
g38
(lp2319
sg40
I0
sg22
g1950
sg41
F0.0
sg42
g24
sg43
S' H41'
p2320
sg45
S' '
p2321
sg47
g24
sg48
I53
sg25
I53
sg49
F0.0
sg26
S'B'
p2322
sg51
(lp2323
sg53
(lp2324
sg55
(lp2325
sg57
I0
sg58
g24
sg59
S'H'
p2326
sg61
F0.0
sg62
F0.0
sg63
I2
sg64
g1953
sg29
S'A'
p2327
sg66
F0.0
sg67
(lp2328
sg69
F0.0
sg70
I0
sg71
g24
sg9
S'H41'
p2329
sg73
F0.0
sg74
(lp2330
sg76
g24
sg77
g24
sg78
F0.0
sg79
S'ATOM  '
p2331
sg81
S' '
p2332
sg83
g24
sg84
(lp2333
I0
aI0
aI0
asg31
S'DC'
p2334
sg86
(lp2335
F-0.473
aF-2.579
aF-15.209
asg33
g1307
sg88
F1.0
sba(ipmx.atom
Atom
p2336
(dp2337
g38
(lp2338
sg40
I0
sg22
g1950
sg41
F0.0
sg42
g24
sg43
S' H42'
p2339
sg45
S' '
p2340
sg47
g24
sg48
I54
sg25
I54
sg49
F0.0
sg26
S'B'
p2341
sg51
(lp2342
sg53
(lp2343
sg55
(lp2344
sg57
I0
sg58
g24
sg59
S'H'
p2345
sg61
F0.0
sg62
F0.0
sg63
I2
sg64
g1953
sg29
S'A'
p2346
sg66
F0.0
sg67
(lp2347
sg69
F0.0
sg70
I0
sg71
g24
sg9
S'H42'
p2348
sg73
F0.0
sg74
(lp2349
sg76
g24
sg77
g24
sg78
F0.0
sg79
S'ATOM  '
p2350
sg81
S' '
p2351
sg83
g24
sg84
(lp2352
I0
aI0
aI0
asg31
S'DC'
p2353
sg86
(lp2354
F-0.025
aF-4.264
aF-15.338
asg33
g1307
sg88
F1.0
sba(ipmx.atom
Atom
p2355
(dp2356
g38
(lp2357
sg40
I0
sg22
g1950
sg41
F0.0
sg42
g24
sg43
S' N3 '
p2358
sg45
S' '
p2359
sg47
g24
sg48
I55
sg25
I55
sg49
F0.0
sg26
S'B'
p2360
sg51
(lp2361
sg53
(lp2362
sg55
(lp2363
sg57
I0
sg58
g24
sg59
S'N'
p2364
sg61
F0.0
sg62
F0.0
sg63
I2
sg64
g1953
sg29
S'A'
p2365
sg66
F0.0
sg67
(lp2366
sg69
F0.0
sg70
I0
sg71
g24
sg9
S'N3'
p2367
sg73
F0.0
sg74
(lp2368
sg76
g24
sg77
g24
sg78
F0.0
sg79
S'ATOM  '
p2369
sg81
S' '
p2370
sg83
g24
sg84
(lp2371
I0
aI0
aI0
asg31
S'DC'
p2372
sg86
(lp2373
F1.737
aF-1.668
aF-15.072
asg33
g1307
sg88
F1.0
sba(ipmx.atom
Atom
p2374
(dp2375
g38
(lp2376
sg40
I0
sg22
g1950
sg41
F0.0
sg42
g24
sg43
S' C2 '
p2377
sg45
S' '
p2378
sg47
g24
sg48
I56
sg25
I56
sg49
F0.0
sg26
S'B'
p2379
sg51
(lp2380
sg53
(lp2381
sg55
(lp2382
sg57
I0
sg58
g24
sg59
S'C'
p2383
sg61
F0.0
sg62
F0.0
sg63
I2
sg64
g1953
sg29
S'A'
p2384
sg66
F0.0
sg67
(lp2385
sg69
F0.0
sg70
I0
sg71
g24
sg9
S'C2'
p2386
sg73
F0.0
sg74
(lp2387
sg76
g24
sg77
g24
sg78
F0.0
sg79
S'ATOM  '
p2388
sg81
S' '
p2389
sg83
g24
sg84
(lp2390
I0
aI0
aI0
asg31
S'DC'
p2391
sg86
(lp2392
F3.038
aF-1.283
aF-15.01
asg33
g1307
sg88
F1.0
sba(ipmx.atom
Atom
p2393
(dp2394
g38
(lp2395
sg40
I0
sg22
g1950
sg41
F0.0
sg42
g24
sg43
S' O  '
p2396
sg45
S' '
p2397
sg47
g24
sg48
I57
sg25
I57
sg49
F0.0
sg26
S'B'
p2398
sg51
(lp2399
sg53
(lp2400
sg55
(lp2401
sg57
I0
sg58
g24
sg59
S'O'
p2402
sg61
F0.0
sg62
F0.0
sg63
I2
sg64
g1953
sg29
S'A'
p2403
sg66
F0.0
sg67
(lp2404
sg69
F0.0
sg70
I0
sg71
g24
sg9
g557
sg73
F0.0
sg74
(lp2405
sg76
g24
sg77
g24
sg78
F0.0
sg79
S'ATOM  '
p2406
sg81
S' '
p2407
sg83
g24
sg84
(lp2408
I0
aI0
aI0
asg31
S'DC'
p2409
sg86
(lp2410
F3.253
aF-0.071
aF-14.932
asg33
g1307
sg88
F1.0
sba(ipmx.atom
Atom
p2411
(dp2412
g38
(lp2413
sg40
I0
sg22
g1950
sg41
F0.0
sg42
g24
sg43
S" C3'"
p2414
sg45
S' '
p2415
sg47
g24
sg48
I58
sg25
I58
sg49
F0.0
sg26
S'B'
p2416
sg51
(lp2417
sg53
(lp2418
sg55
(lp2419
sg57
I0
sg58
g24
sg59
S'C'
p2420
sg61
F0.0
sg62
F0.0
sg63
I2
sg64
g1953
sg29
S'A'
p2421
sg66
F0.0
sg67
(lp2422
sg69
F0.0
sg70
I0
sg71
g24
sg9
S"C3'"
p2423
sg73
F0.0
sg74
(lp2424
sg76
g24
sg77
g24
sg78
F0.0
sg79
S'ATOM  '
p2425
sg81
S' '
p2426
sg83
g24
sg84
(lp2427
I0
aI0
aI0
asg31
S'DC'
p2428
sg86
(lp2429
F7.776
aF-2.56
aF-14.811
asg33
g1307
sg88
F1.0
sba(ipmx.atom
Atom
p2430
(dp2431
g38
(lp2432
sg40
I0
sg22
g1950
sg41
F0.0
sg42
g24
sg43
S" H3'"
p2433
sg45
S' '
p2434
sg47
g24
sg48
I59
sg25
I59
sg49
F0.0
sg26
S'B'
p2435
sg51
(lp2436
sg53
(lp2437
sg55
(lp2438
sg57
I0
sg58
g24
sg59
S'H'
p2439
sg61
F0.0
sg62
F0.0
sg63
I2
sg64
g1953
sg29
S'A'
p2440
sg66
F0.0
sg67
(lp2441
sg69
F0.0
sg70
I0
sg71
g24
sg9
S"H3'"
p2442
sg73
F0.0
sg74
(lp2443
sg76
g24
sg77
g24
sg78
F0.0
sg79
S'ATOM  '
p2444
sg81
S' '
p2445
sg83
g24
sg84
(lp2446
I0
aI0
aI0
asg31
S'DC'
p2447
sg86
(lp2448
F8.325
aF-3.488
aF-14.671
asg33
g1307
sg88
F1.0
sba(ipmx.atom
Atom
p2449
(dp2450
g38
(lp2451
sg40
I0
sg22
g1950
sg41
F0.0
sg42
g24
sg43
S" C2'"
p2452
sg45
S' '
p2453
sg47
g24
sg48
I60
sg25
I60
sg49
F0.0
sg26
S'B'
p2454
sg51
(lp2455
sg53
(lp2456
sg55
(lp2457
sg57
I0
sg58
g24
sg59
S'C'
p2458
sg61
F0.0
sg62
F0.0
sg63
I2
sg64
g1953
sg29
S'A'
p2459
sg66
F0.0
sg67
(lp2460
sg69
F0.0
sg70
I0
sg71
g24
sg9
S"C2'"
p2461
sg73
F0.0
sg74
(lp2462
sg76
g24
sg77
g24
sg78
F0.0
sg79
S'ATOM  '
p2463
sg81
S' '
p2464
sg83
g24
sg84
(lp2465
I0
aI0
aI0
asg31
S'DC'
p2466
sg86
(lp2467
F6.422
aF-2.641
aF-14.101
asg33
g1307
sg88
F1.0
sba(ipmx.atom
Atom
p2468
(dp2469
g38
(lp2470
sg40
I0
sg22
g1950
sg41
F0.0
sg42
g24
sg43
S"1H2'"
p2471
sg45
S' '
p2472
sg47
g24
sg48
I61
sg25
I61
sg49
F0.0
sg26
S'B'
p2473
sg51
(lp2474
sg53
(lp2475
sg55
(lp2476
sg57
I0
sg58
g24
sg59
S'H'
p2477
sg61
F0.0
sg62
F0.0
sg63
I2
sg64
g1953
sg29
S'A'
p2478
sg66
F0.0
sg67
(lp2479
sg69
F0.0
sg70
I0
sg71
g24
sg9
g633
sg73
F0.0
sg74
(lp2480
sg76
g24
sg77
g24
sg78
F0.0
sg79
S'ATOM  '
p2481
sg81
S' '
p2482
sg83
g24
sg84
(lp2483
I0
aI0
aI0
asg31
S'DC'
p2484
sg86
(lp2485
F6.099
aF-3.676
aF-14.046
asg33
g1307
sg88
F1.0
sba(ipmx.atom
Atom
p2486
(dp2487
g38
(lp2488
sg40
I0
sg22
g1950
sg41
F0.0
sg42
g24
sg43
S"2H2'"
p2489
sg45
S' '
p2490
sg47
g24
sg48
I62
sg25
I62
sg49
F0.0
sg26
S'B'
p2491
sg51
(lp2492
sg53
(lp2493
sg55
(lp2494
sg57
I0
sg58
g24
sg59
S'H'
p2495
sg61
F0.0
sg62
F0.0
sg63
I2
sg64
g1953
sg29
S'A'
p2496
sg66
F0.0
sg67
(lp2497
sg69
F0.0
sg70
I0
sg71
g24
sg9
g652
sg73
F0.0
sg74
(lp2498
sg76
g24
sg77
g24
sg78
F0.0
sg79
S'ATOM  '
p2499
sg81
S' '
p2500
sg83
g24
sg84
(lp2501
I0
aI0
aI0
asg31
S'DC'
p2502
sg86
(lp2503
F6.461
aF-2.322
aF-13.079
asg33
g1307
sg88
F1.0
sba(ipmx.atom
Atom
p2504
(dp2505
g38
(lp2506
sg40
I0
sg22
g1950
sg41
F0.0
sg42
g24
sg43
S" O3'"
p2507
sg45
S' '
p2508
sg47
g24
sg48
I63
sg25
I63
sg49
F0.0
sg26
S'B'
p2509
sg51
(lp2510
sg53
(lp2511
sg55
(lp2512
sg57
I0
sg58
g24
sg59
S'O'
p2513
sg61
F0.0
sg62
F0.0
sg63
I2
sg64
g1953
sg29
S'A'
p2514
sg66
F0.0
sg67
(lp2515
sg69
F0.0
sg70
I0
sg71
g24
sg9
S"O3'"
p2516
sg73
F0.0
sg74
(lp2517
sg76
g24
sg77
g24
sg78
F0.0
sg79
S'ATOM  '
p2518
sg81
S' '
p2519
sg83
g24
sg84
(lp2520
I0
aI0
aI0
asg31
S'DC'
p2521
sg86
(lp2522
F8.644
aF-1.464
aF-14.459
asg33
g1307
sg88
F1.0
sbasg48
I2
sg678
Nsbasg34
(lp2523
g1959
ag1977
ag1996
ag2015
ag2034
ag2053
ag2071
ag2089
ag2108
ag2127
ag2146
ag2165
ag2184
ag2203
ag2222
ag2241
ag2260
ag2279
ag2298
ag2317
ag2336
ag2355
ag2374
ag2393
ag2411
ag2430
ag2449
ag2468
ag2486
ag2504
asg680
I0
sg29
S'A'
p2524
sg33
g1307
sg682
I00
sg48
S'B'
p2525
sbssg17
(lp2526
g1318
ag1953
asg34
(lp2527
g1324
ag1342
ag1361
ag1380
ag1399
ag1418
ag1436
ag1454
ag1473
ag1492
ag1511
ag1530
ag1549
ag1568
ag1587
ag1606
ag1625
ag1644
ag1663
ag1682
ag1701
ag1720
ag1739
ag1758
ag1777
ag1796
ag1815
ag1834
ag1853
ag1872
ag1891
ag1909
ag1927
ag1959
ag1977
ag1996
ag2015
ag2034
ag2053
ag2071
ag2089
ag2108
ag2127
ag2146
ag2165
ag2184
ag2203
ag2222
ag2241
ag2260
ag2279
ag2298
ag2317
ag2336
ag2355
ag2374
ag2393
ag2411
ag2430
ag2449
ag2468
ag2486
ag2504
asg29
S'A'
p2528
sg1303
(lp2529
g1315
ag1950
asg48
I0
sg1305
I0
sbsS't'
p2530
(ipmx.model
Model
p2531
(dp2532
g4
(lp2533
(lp2534
I0
aI0
aI0
aa(lp2535
I0
aI0
aI0
aa(lp2536
I0
aI0
aI0
aasg9
Nsg10
g11
sg12
(dp2537
S'A'
p2538
(ipmx.chain
Chain
p2539
(dp2540
g17
(lp2541
(ipmx.molecule
Molecule
p2542
(dp2543
g21
I0
sg22
g2539
sg23
g24
sg25
I1
sg26
S'A'
p2544
sg28
Nsg29
S'A'
p2545
sg31
S'DA'
p2546
sg33
g2531
sg34
(lp2547
(ipmx.atom
Atom
p2548
(dp2549
g38
(lp2550
sg40
I0
sg22
g2539
sg41
F0.0
sg42
g24
sg43
S' P  '
p2551
sg45
S' '
p2552
sg47
g24
sg48
I1
sg25
I1
sg49
F0.0
sg26
S'A'
p2553
sg51
(lp2554
sg53
(lp2555
sg55
(lp2556
sg57
I0
sg58
g24
sg59
S'P'
p2557
sg61
F0.0
sg62
F0.0
sg63
I1
sg64
g2542
sg29
S'A'
p2558
sg66
F0.0
sg67
(lp2559
sg69
F0.0
sg70
I0
sg71
g24
sg9
S'P'
p2560
sg73
F0.0
sg74
(lp2561
sg76
g24
sg77
g24
sg78
F0.0
sg79
S'ATOM  '
p2562
sg81
S' '
p2563
sg83
g24
sg84
(lp2564
I0
aI0
aI0
asg31
g2546
sg86
(lp2565
F-8.182
aF3.77
aF-13.833
asg33
g2531
sg88
F1.0
sba(ipmx.atom
Atom
p2566
(dp2567
g38
(lp2568
sg40
I0
sg22
g2539
sg41
F0.0
sg42
g24
sg43
S' O1P'
p2569
sg45
S' '
p2570
sg47
g24
sg48
I2
sg25
I2
sg49
F0.0
sg26
S'A'
p2571
sg51
(lp2572
sg53
(lp2573
sg55
(lp2574
sg57
I0
sg58
g24
sg59
S'O'
p2575
sg61
F0.0
sg62
F0.0
sg63
I1
sg64
g2542
sg29
S'A'
p2576
sg66
F0.0
sg67
(lp2577
sg69
F0.0
sg70
I0
sg71
g24
sg9
S'O1P'
p2578
sg73
F0.0
sg74
(lp2579
sg76
g24
sg77
g24
sg78
F0.0
sg79
S'ATOM  '
p2580
sg81
S' '
p2581
sg83
g24
sg84
(lp2582
I0
aI0
aI0
asg31
S'DA'
p2583
sg86
(lp2584
F-8.881
aF5.069
aF-13.998
asg33
g2531
sg88
F1.0
sba(ipmx.atom
Atom
p2585
(dp2586
g38
(lp2587
sg40
I0
sg22
g2539
sg41
F0.0
sg42
g24
sg43
S' O2P'
p2588
sg45
S' '
p2589
sg47
g24
sg48
I3
sg25
I3
sg49
F0.0
sg26
S'A'
p2590
sg51
(lp2591
sg53
(lp2592
sg55
(lp2593
sg57
I0
sg58
g24
sg59
S'O'
p2594
sg61
F0.0
sg62
F0.0
sg63
I1
sg64
g2542
sg29
S'A'
p2595
sg66
F0.0
sg67
(lp2596
sg69
F0.0
sg70
I0
sg71
g24
sg9
S'O2P'
p2597
sg73
F0.0
sg74
(lp2598
sg76
g24
sg77
g24
sg78
F0.0
sg79
S'ATOM  '
p2599
sg81
S' '
p2600
sg83
g24
sg84
(lp2601
I0
aI0
aI0
asg31
S'DA'
p2602
sg86
(lp2603
F-8.532
aF2.613
aF-14.674
asg33
g2531
sg88
F1.0
sba(ipmx.atom
Atom
p2604
(dp2605
g38
(lp2606
sg40
I0
sg22
g2539
sg41
F0.0
sg42
g24
sg43
S" O5'"
p2607
sg45
S' '
p2608
sg47
g24
sg48
I4
sg25
I4
sg49
F0.0
sg26
S'A'
p2609
sg51
(lp2610
sg53
(lp2611
sg55
(lp2612
sg57
I0
sg58
g24
sg59
S'O'
p2613
sg61
F0.0
sg62
F0.0
sg63
I1
sg64
g2542
sg29
S'A'
p2614
sg66
F0.0
sg67
(lp2615
sg69
F0.0
sg70
I0
sg71
g24
sg9
S"O5'"
p2616
sg73
F0.0
sg74
(lp2617
sg76
g24
sg77
g24
sg78
F0.0
sg79
S'ATOM  '
p2618
sg81
S' '
p2619
sg83
g24
sg84
(lp2620
I0
aI0
aI0
asg31
S'DA'
p2621
sg86
(lp2622
F-6.636
aF4.076
aF-14.015
asg33
g2531
sg88
F1.0
sba(ipmx.atom
Atom
p2623
(dp2624
g38
(lp2625
sg40
I0
sg22
g2539
sg41
F0.0
sg42
g24
sg43
S" C5'"
p2626
sg45
S' '
p2627
sg47
g24
sg48
I5
sg25
I5
sg49
F0.0
sg26
S'A'
p2628
sg51
(lp2629
sg53
(lp2630
sg55
(lp2631
sg57
I0
sg58
g24
sg59
S'C'
p2632
sg61
F0.0
sg62
F0.0
sg63
I1
sg64
g2542
sg29
S'A'
p2633
sg66
F0.0
sg67
(lp2634
sg69
F0.0
sg70
I0
sg71
g24
sg9
S"C5'"
p2635
sg73
F0.0
sg74
(lp2636
sg76
g24
sg77
g24
sg78
F0.0
sg79
S'ATOM  '
p2637
sg81
S' '
p2638
sg83
g24
sg84
(lp2639
I0
aI0
aI0
asg31
S'DA'
p2640
sg86
(lp2641
F-5.967
aF4.933
aF-13.103
asg33
g2531
sg88
F1.0
sba(ipmx.atom
Atom
p2642
(dp2643
g38
(lp2644
sg40
I0
sg22
g2539
sg41
F0.0
sg42
g24
sg43
S"1H5'"
p2645
sg45
S' '
p2646
sg47
g24
sg48
I6
sg25
I6
sg49
F0.0
sg26
S'A'
p2647
sg51
(lp2648
sg53
(lp2649
sg55
(lp2650
sg57
I0
sg58
g24
sg59
S'H'
p2651
sg61
F0.0
sg62
F0.0
sg63
I1
sg64
g2542
sg29
S'A'
p2652
sg66
F0.0
sg67
(lp2653
sg69
F0.0
sg70
I0
sg71
g24
sg9
g177
sg73
F0.0
sg74
(lp2654
sg76
g24
sg77
g24
sg78
F0.0
sg79
S'ATOM  '
p2655
sg81
S' '
p2656
sg83
g24
sg84
(lp2657
I0
aI0
aI0
asg31
S'DA'
p2658
sg86
(lp2659
F-6.688
aF5.642
aF-12.692
asg33
g2531
sg88
F1.0
sba(ipmx.atom
Atom
p2660
(dp2661
g38
(lp2662
sg40
I0
sg22
g2539
sg41
F0.0
sg42
g24
sg43
S"2H5'"
p2663
sg45
S' '
p2664
sg47
g24
sg48
I7
sg25
I7
sg49
F0.0
sg26
S'A'
p2665
sg51
(lp2666
sg53
(lp2667
sg55
(lp2668
sg57
I0
sg58
g24
sg59
S'H'
p2669
sg61
F0.0
sg62
F0.0
sg63
I1
sg64
g2542
sg29
S'A'
p2670
sg66
F0.0
sg67
(lp2671
sg69
F0.0
sg70
I0
sg71
g24
sg9
g196
sg73
F0.0
sg74
(lp2672
sg76
g24
sg77
g24
sg78
F0.0
sg79
S'ATOM  '
p2673
sg81
S' '
p2674
sg83
g24
sg84
(lp2675
I0
aI0
aI0
asg31
S'DA'
p2676
sg86
(lp2677
F-5.608
aF4.334
aF-12.262
asg33
g2531
sg88
F1.0
sba(ipmx.atom
Atom
p2678
(dp2679
g38
(lp2680
sg40
I0
sg22
g2539
sg41
F0.0
sg42
g24
sg43
S" C4'"
p2681
sg45
S' '
p2682
sg47
g24
sg48
I8
sg25
I8
sg49
F0.0
sg26
S'A'
p2683
sg51
(lp2684
sg53
(lp2685
sg55
(lp2686
sg57
I0
sg58
g24
sg59
S'C'
p2687
sg61
F0.0
sg62
F0.0
sg63
I1
sg64
g2542
sg29
S'A'
p2688
sg66
F0.0
sg67
(lp2689
sg69
F0.0
sg70
I0
sg71
g24
sg9
S"C4'"
p2690
sg73
F0.0
sg74
(lp2691
sg76
g24
sg77
g24
sg78
F0.0
sg79
S'ATOM  '
p2692
sg81
S' '
p2693
sg83
g24
sg84
(lp2694
I0
aI0
aI0
asg31
S'DA'
p2695
sg86
(lp2696
F-4.8
aF5.704
aF-13.742
asg33
g2531
sg88
F1.0
sba(ipmx.atom
Atom
p2697
(dp2698
g38
(lp2699
sg40
I0
sg22
g2539
sg41
F0.0
sg42
g24
sg43
S" H4'"
p2700
sg45
S' '
p2701
sg47
g24
sg48
I9
sg25
I9
sg49
F0.0
sg26
S'A'
p2702
sg51
(lp2703
sg53
(lp2704
sg55
(lp2705
sg57
I0
sg58
g24
sg59
S'H'
p2706
sg61
F0.0
sg62
F0.0
sg63
I1
sg64
g2542
sg29
S'A'
p2707
sg66
F0.0
sg67
(lp2708
sg69
F0.0
sg70
I0
sg71
g24
sg9
S"H4'"
p2709
sg73
F0.0
sg74
(lp2710
sg76
g24
sg77
g24
sg78
F0.0
sg79
S'ATOM  '
p2711
sg81
S' '
p2712
sg83
g24
sg84
(lp2713
I0
aI0
aI0
asg31
S'DA'
p2714
sg86
(lp2715
F-4.597
aF6.553
aF-13.093
asg33
g2531
sg88
F1.0
sba(ipmx.atom
Atom
p2716
(dp2717
g38
(lp2718
sg40
I0
sg22
g2539
sg41
F0.0
sg42
g24
sg43
S" O4'"
p2719
sg45
S' '
p2720
sg47
g24
sg48
I10
sg25
I10
sg49
F0.0
sg26
S'A'
p2721
sg51
(lp2722
sg53
(lp2723
sg55
(lp2724
sg57
I0
sg58
g24
sg59
S'O'
p2725
sg61
F0.0
sg62
F0.0
sg63
I1
sg64
g2542
sg29
S'A'
p2726
sg66
F0.0
sg67
(lp2727
sg69
F0.0
sg70
I0
sg71
g24
sg9
S"O4'"
p2728
sg73
F0.0
sg74
(lp2729
sg76
g24
sg77
g24
sg78
F0.0
sg79
S'ATOM  '
p2730
sg81
S' '
p2731
sg83
g24
sg84
(lp2732
I0
aI0
aI0
asg31
S'DA'
p2733
sg86
(lp2734
F-3.668
aF4.836
aF-13.749
asg33
g2531
sg88
F1.0
sba(ipmx.atom
Atom
p2735
(dp2736
g38
(lp2737
sg40
I0
sg22
g2539
sg41
F0.0
sg42
g24
sg43
S" C1'"
p2738
sg45
S' '
p2739
sg47
g24
sg48
I11
sg25
I11
sg49
F0.0
sg26
S'A'
p2740
sg51
(lp2741
sg53
(lp2742
sg55
(lp2743
sg57
I0
sg58
g24
sg59
S'C'
p2744
sg61
F0.0
sg62
F0.0
sg63
I1
sg64
g2542
sg29
S'A'
p2745
sg66
F0.0
sg67
(lp2746
sg69
F0.0
sg70
I0
sg71
g24
sg9
S"C1'"
p2747
sg73
F0.0
sg74
(lp2748
sg76
g24
sg77
g24
sg78
F0.0
sg79
S'ATOM  '
p2749
sg81
S' '
p2750
sg83
g24
sg84
(lp2751
I0
aI0
aI0
asg31
S'DA'
p2752
sg86
(lp2753
F-3.47
aF4.351
aF-15.068
asg33
g2531
sg88
F1.0
sba(ipmx.atom
Atom
p2754
(dp2755
g38
(lp2756
sg40
I0
sg22
g2539
sg41
F0.0
sg42
g24
sg43
S" H1'"
p2757
sg45
S' '
p2758
sg47
g24
sg48
I12
sg25
I12
sg49
F0.0
sg26
S'A'
p2759
sg51
(lp2760
sg53
(lp2761
sg55
(lp2762
sg57
I0
sg58
g24
sg59
S'H'
p2763
sg61
F0.0
sg62
F0.0
sg63
I1
sg64
g2542
sg29
S'A'
p2764
sg66
F0.0
sg67
(lp2765
sg69
F0.0
sg70
I0
sg71
g24
sg9
S"H1'"
p2766
sg73
F0.0
sg74
(lp2767
sg76
g24
sg77
g24
sg78
F0.0
sg79
S'ATOM  '
p2768
sg81
S' '
p2769
sg83
g24
sg84
(lp2770
I0
aI0
aI0
asg31
S'DA'
p2771
sg86
(lp2772
F-2.526
aF4.749
aF-15.446
asg33
g2531
sg88
F1.0
sba(ipmx.atom
Atom
p2773
(dp2774
g38
(lp2775
sg40
I0
sg22
g2539
sg41
F0.0
sg42
g24
sg43
S' N9 '
p2776
sg45
S' '
p2777
sg47
g24
sg48
I13
sg25
I13
sg49
F0.0
sg26
S'A'
p2778
sg51
(lp2779
sg53
(lp2780
sg55
(lp2781
sg57
I0
sg58
g24
sg59
S'N'
p2782
sg61
F0.0
sg62
F0.0
sg63
I1
sg64
g2542
sg29
S'A'
p2783
sg66
F0.0
sg67
(lp2784
sg69
F0.0
sg70
I0
sg71
g24
sg9
S'N9'
p2785
sg73
F0.0
sg74
(lp2786
sg76
g24
sg77
g24
sg78
F0.0
sg79
S'ATOM  '
p2787
sg81
S' '
p2788
sg83
g24
sg84
(lp2789
I0
aI0
aI0
asg31
S'DA'
p2790
sg86
(lp2791
F-3.399
aF2.87
aF-15.07
asg33
g2531
sg88
F1.0
sba(ipmx.atom
Atom
p2792
(dp2793
g38
(lp2794
sg40
I0
sg22
g2539
sg41
F0.0
sg42
g24
sg43
S' C8 '
p2795
sg45
S' '
p2796
sg47
g24
sg48
I14
sg25
I14
sg49
F0.0
sg26
S'A'
p2797
sg51
(lp2798
sg53
(lp2799
sg55
(lp2800
sg57
I0
sg58
g24
sg59
S'C'
p2801
sg61
F0.0
sg62
F0.0
sg63
I1
sg64
g2542
sg29
S'A'
p2802
sg66
F0.0
sg67
(lp2803
sg69
F0.0
sg70
I0
sg71
g24
sg9
S'C8'
p2804
sg73
F0.0
sg74
(lp2805
sg76
g24
sg77
g24
sg78
F0.0
sg79
S'ATOM  '
p2806
sg81
S' '
p2807
sg83
g24
sg84
(lp2808
I0
aI0
aI0
asg31
S'DA'
p2809
sg86
(lp2810
F-4.424
aF1.957
aF-15.105
asg33
g2531
sg88
F1.0
sba(ipmx.atom
Atom
p2811
(dp2812
g38
(lp2813
sg40
I0
sg22
g2539
sg41
F0.0
sg42
g24
sg43
S' H8 '
p2814
sg45
S' '
p2815
sg47
g24
sg48
I15
sg25
I15
sg49
F0.0
sg26
S'A'
p2816
sg51
(lp2817
sg53
(lp2818
sg55
(lp2819
sg57
I0
sg58
g24
sg59
S'H'
p2820
sg61
F0.0
sg62
F0.0
sg63
I1
sg64
g2542
sg29
S'A'
p2821
sg66
F0.0
sg67
(lp2822
sg69
F0.0
sg70
I0
sg71
g24
sg9
S'H8'
p2823
sg73
F0.0
sg74
(lp2824
sg76
g24
sg77
g24
sg78
F0.0
sg79
S'ATOM  '
p2825
sg81
S' '
p2826
sg83
g24
sg84
(lp2827
I0
aI0
aI0
asg31
S'DA'
p2828
sg86
(lp2829
F-5.461
aF2.258
aF-15.124
asg33
g2531
sg88
F1.0
sba(ipmx.atom
Atom
p2830
(dp2831
g38
(lp2832
sg40
I0
sg22
g2539
sg41
F0.0
sg42
g24
sg43
S' N7 '
p2833
sg45
S' '
p2834
sg47
g24
sg48
I16
sg25
I16
sg49
F0.0
sg26
S'A'
p2835
sg51
(lp2836
sg53
(lp2837
sg55
(lp2838
sg57
I0
sg58
g24
sg59
S'N'
p2839
sg61
F0.0
sg62
F0.0
sg63
I1
sg64
g2542
sg29
S'A'
p2840
sg66
F0.0
sg67
(lp2841
sg69
F0.0
sg70
I0
sg71
g24
sg9
S'N7'
p2842
sg73
F0.0
sg74
(lp2843
sg76
g24
sg77
g24
sg78
F0.0
sg79
S'ATOM  '
p2844
sg81
S' '
p2845
sg83
g24
sg84
(lp2846
I0
aI0
aI0
asg31
S'DA'
p2847
sg86
(lp2848
F-4.049
aF0.706
aF-15.105
asg33
g2531
sg88
F1.0
sba(ipmx.atom
Atom
p2849
(dp2850
g38
(lp2851
sg40
I0
sg22
g2539
sg41
F0.0
sg42
g24
sg43
S' C5 '
p2852
sg45
S' '
p2853
sg47
g24
sg48
I17
sg25
I17
sg49
F0.0
sg26
S'A'
p2854
sg51
(lp2855
sg53
(lp2856
sg55
(lp2857
sg57
I0
sg58
g24
sg59
S'C'
p2858
sg61
F0.0
sg62
F0.0
sg63
I1
sg64
g2542
sg29
S'A'
p2859
sg66
F0.0
sg67
(lp2860
sg69
F0.0
sg70
I0
sg71
g24
sg9
S'C5'
p2861
sg73
F0.0
sg74
(lp2862
sg76
g24
sg77
g24
sg78
F0.0
sg79
S'ATOM  '
p2863
sg81
S' '
p2864
sg83
g24
sg84
(lp2865
I0
aI0
aI0
asg31
S'DA'
p2866
sg86
(lp2867
F-2.655
aF0.814
aF-15.088
asg33
g2531
sg88
F1.0
sba(ipmx.atom
Atom
p2868
(dp2869
g38
(lp2870
sg40
I0
sg22
g2539
sg41
F0.0
sg42
g24
sg43
S' C6 '
p2871
sg45
S' '
p2872
sg47
g24
sg48
I18
sg25
I18
sg49
F0.0
sg26
S'A'
p2873
sg51
(lp2874
sg53
(lp2875
sg55
(lp2876
sg57
I0
sg58
g24
sg59
S'C'
p2877
sg61
F0.0
sg62
F0.0
sg63
I1
sg64
g2542
sg29
S'A'
p2878
sg66
F0.0
sg67
(lp2879
sg69
F0.0
sg70
I0
sg71
g24
sg9
S'C6'
p2880
sg73
F0.0
sg74
(lp2881
sg76
g24
sg77
g24
sg78
F0.0
sg79
S'ATOM  '
p2882
sg81
S' '
p2883
sg83
g24
sg84
(lp2884
I0
aI0
aI0
asg31
S'DA'
p2885
sg86
(lp2886
F-1.604
aF-0.123
aF-15.089
asg33
g2531
sg88
F1.0
sba(ipmx.atom
Atom
p2887
(dp2888
g38
(lp2889
sg40
I0
sg22
g2539
sg41
F0.0
sg42
g24
sg43
S' N6 '
p2890
sg45
S' '
p2891
sg47
g24
sg48
I19
sg25
I19
sg49
F0.0
sg26
S'A'
p2892
sg51
(lp2893
sg53
(lp2894
sg55
(lp2895
sg57
I0
sg58
g24
sg59
S'N'
p2896
sg61
F0.0
sg62
F0.0
sg63
I1
sg64
g2542
sg29
S'A'
p2897
sg66
F0.0
sg67
(lp2898
sg69
F0.0
sg70
I0
sg71
g24
sg9
S'N6'
p2899
sg73
F0.0
sg74
(lp2900
sg76
g24
sg77
g24
sg78
F0.0
sg79
S'ATOM  '
p2901
sg81
S' '
p2902
sg83
g24
sg84
(lp2903
I0
aI0
aI0
asg31
S'DA'
p2904
sg86
(lp2905
F-1.815
aF-1.423
aF-15.09
asg33
g2531
sg88
F1.0
sba(ipmx.atom
Atom
p2906
(dp2907
g38
(lp2908
sg40
I0
sg22
g2539
sg41
F0.0
sg42
g24
sg43
S' H61'
p2909
sg45
S' '
p2910
sg47
g24
sg48
I20
sg25
I20
sg49
F0.0
sg26
S'A'
p2911
sg51
(lp2912
sg53
(lp2913
sg55
(lp2914
sg57
I0
sg58
g24
sg59
S'H'
p2915
sg61
F0.0
sg62
F0.0
sg63
I1
sg64
g2542
sg29
S'A'
p2916
sg66
F0.0
sg67
(lp2917
sg69
F0.0
sg70
I0
sg71
g24
sg9
S'H61'
p2918
sg73
F0.0
sg74
(lp2919
sg76
g24
sg77
g24
sg78
F0.0
sg79
S'ATOM  '
p2920
sg81
S' '
p2921
sg83
g24
sg84
(lp2922
I0
aI0
aI0
asg31
S'DA'
p2923
sg86
(lp2924
F-2.765
aF-1.75
aF-15.112
asg33
g2531
sg88
F1.0
sba(ipmx.atom
Atom
p2925
(dp2926
g38
(lp2927
sg40
I0
sg22
g2539
sg41
F0.0
sg42
g24
sg43
S' H62'
p2928
sg45
S' '
p2929
sg47
g24
sg48
I21
sg25
I21
sg49
F0.0
sg26
S'A'
p2930
sg51
(lp2931
sg53
(lp2932
sg55
(lp2933
sg57
I0
sg58
g24
sg59
S'H'
p2934
sg61
F0.0
sg62
F0.0
sg63
I1
sg64
g2542
sg29
S'A'
p2935
sg66
F0.0
sg67
(lp2936
sg69
F0.0
sg70
I0
sg71
g24
sg9
S'H62'
p2937
sg73
F0.0
sg74
(lp2938
sg76
g24
sg77
g24
sg78
F0.0
sg79
S'ATOM  '
p2939
sg81
S' '
p2940
sg83
g24
sg84
(lp2941
I0
aI0
aI0
asg31
S'DA'
p2942
sg86
(lp2943
F-1.036
aF-2.073
aF-15.103
asg33
g2531
sg88
F1.0
sba(ipmx.atom
Atom
p2944
(dp2945
g38
(lp2946
sg40
I0
sg22
g2539
sg41
F0.0
sg42
g24
sg43
S' N1 '
p2947
sg45
S' '
p2948
sg47
g24
sg48
I22
sg25
I22
sg49
F0.0
sg26
S'A'
p2949
sg51
(lp2950
sg53
(lp2951
sg55
(lp2952
sg57
I0
sg58
g24
sg59
S'N'
p2953
sg61
F0.0
sg62
F0.0
sg63
I1
sg64
g2542
sg29
S'A'
p2954
sg66
F0.0
sg67
(lp2955
sg69
F0.0
sg70
I0
sg71
g24
sg9
S'N1'
p2956
sg73
F0.0
sg74
(lp2957
sg76
g24
sg77
g24
sg78
F0.0
sg79
S'ATOM  '
p2958
sg81
S' '
p2959
sg83
g24
sg84
(lp2960
I0
aI0
aI0
asg31
S'DA'
p2961
sg86
(lp2962
F-0.329
aF0.27
aF-15.087
asg33
g2531
sg88
F1.0
sba(ipmx.atom
Atom
p2963
(dp2964
g38
(lp2965
sg40
I0
sg22
g2539
sg41
F0.0
sg42
g24
sg43
S' C2 '
p2966
sg45
S' '
p2967
sg47
g24
sg48
I23
sg25
I23
sg49
F0.0
sg26
S'A'
p2968
sg51
(lp2969
sg53
(lp2970
sg55
(lp2971
sg57
I0
sg58
g24
sg59
S'C'
p2972
sg61
F0.0
sg62
F0.0
sg63
I1
sg64
g2542
sg29
S'A'
p2973
sg66
F0.0
sg67
(lp2974
sg69
F0.0
sg70
I0
sg71
g24
sg9
S'C2'
p2975
sg73
F0.0
sg74
(lp2976
sg76
g24
sg77
g24
sg78
F0.0
sg79
S'ATOM  '
p2977
sg81
S' '
p2978
sg83
g24
sg84
(lp2979
I0
aI0
aI0
asg31
S'DA'
p2980
sg86
(lp2981
F-0.088
aF1.579
aF-15.093
asg33
g2531
sg88
F1.0
sba(ipmx.atom
Atom
p2982
(dp2983
g38
(lp2984
sg40
I0
sg22
g2539
sg41
F0.0
sg42
g24
sg43
S' H2 '
p2985
sg45
S' '
p2986
sg47
g24
sg48
I24
sg25
I24
sg49
F0.0
sg26
S'A'
p2987
sg51
(lp2988
sg53
(lp2989
sg55
(lp2990
sg57
I0
sg58
g24
sg59
S'H'
p2991
sg61
F0.0
sg62
F0.0
sg63
I1
sg64
g2542
sg29
S'A'
p2992
sg66
F0.0
sg67
(lp2993
sg69
F0.0
sg70
I0
sg71
g24
sg9
S'H2'
p2994
sg73
F0.0
sg74
(lp2995
sg76
g24
sg77
g24
sg78
F0.0
sg79
S'ATOM  '
p2996
sg81
S' '
p2997
sg83
g24
sg84
(lp2998
I0
aI0
aI0
asg31
S'DA'
p2999
sg86
(lp3000
F0.951
aF1.878
aF-15.097
asg33
g2531
sg88
F1.0
sba(ipmx.atom
Atom
p3001
(dp3002
g38
(lp3003
sg40
I0
sg22
g2539
sg41
F0.0
sg42
g24
sg43
S' N3 '
p3004
sg45
S' '
p3005
sg47
g24
sg48
I25
sg25
I25
sg49
F0.0
sg26
S'A'
p3006
sg51
(lp3007
sg53
(lp3008
sg55
(lp3009
sg57
I0
sg58
g24
sg59
S'N'
p3010
sg61
F0.0
sg62
F0.0
sg63
I1
sg64
g2542
sg29
S'A'
p3011
sg66
F0.0
sg67
(lp3012
sg69
F0.0
sg70
I0
sg71
g24
sg9
S'N3'
p3013
sg73
F0.0
sg74
(lp3014
sg76
g24
sg77
g24
sg78
F0.0
sg79
S'ATOM  '
p3015
sg81
S' '
p3016
sg83
g24
sg84
(lp3017
I0
aI0
aI0
asg31
S'DA'
p3018
sg86
(lp3019
F-0.966
aF2.572
aF-15.094
asg33
g2531
sg88
F1.0
sba(ipmx.atom
Atom
p3020
(dp3021
g38
(lp3022
sg40
I0
sg22
g2539
sg41
F0.0
sg42
g24
sg43
S' C4 '
p3023
sg45
S' '
p3024
sg47
g24
sg48
I26
sg25
I26
sg49
F0.0
sg26
S'A'
p3025
sg51
(lp3026
sg53
(lp3027
sg55
(lp3028
sg57
I0
sg58
g24
sg59
S'C'
p3029
sg61
F0.0
sg62
F0.0
sg63
I1
sg64
g2542
sg29
S'A'
p3030
sg66
F0.0
sg67
(lp3031
sg69
F0.0
sg70
I0
sg71
g24
sg9
S'C4'
p3032
sg73
F0.0
sg74
(lp3033
sg76
g24
sg77
g24
sg78
F0.0
sg79
S'ATOM  '
p3034
sg81
S' '
p3035
sg83
g24
sg84
(lp3036
I0
aI0
aI0
asg31
S'DA'
p3037
sg86
(lp3038
F-2.248
aF2.12
aF-15.078
asg33
g2531
sg88
F1.0
sba(ipmx.atom
Atom
p3039
(dp3040
g38
(lp3041
sg40
I0
sg22
g2539
sg41
F0.0
sg42
g24
sg43
S" C3'"
p3042
sg45
S' '
p3043
sg47
g24
sg48
I27
sg25
I27
sg49
F0.0
sg26
S'A'
p3044
sg51
(lp3045
sg53
(lp3046
sg55
(lp3047
sg57
I0
sg58
g24
sg59
S'C'
p3048
sg61
F0.0
sg62
F0.0
sg63
I1
sg64
g2542
sg29
S'A'
p3049
sg66
F0.0
sg67
(lp3050
sg69
F0.0
sg70
I0
sg71
g24
sg9
S"C3'"
p3051
sg73
F0.0
sg74
(lp3052
sg76
g24
sg77
g24
sg78
F0.0
sg79
S'ATOM  '
p3053
sg81
S' '
p3054
sg83
g24
sg84
(lp3055
I0
aI0
aI0
asg31
S'DA'
p3056
sg86
(lp3057
F-5.086
aF6.168
aF-15.201
asg33
g2531
sg88
F1.0
sba(ipmx.atom
Atom
p3058
(dp3059
g38
(lp3060
sg40
I0
sg22
g2539
sg41
F0.0
sg42
g24
sg43
S" H3'"
p3061
sg45
S' '
p3062
sg47
g24
sg48
I28
sg25
I28
sg49
F0.0
sg26
S'A'
p3063
sg51
(lp3064
sg53
(lp3065
sg55
(lp3066
sg57
I0
sg58
g24
sg59
S'H'
p3067
sg61
F0.0
sg62
F0.0
sg63
I1
sg64
g2542
sg29
S'A'
p3068
sg66
F0.0
sg67
(lp3069
sg69
F0.0
sg70
I0
sg71
g24
sg9
S"H3'"
p3070
sg73
F0.0
sg74
(lp3071
sg76
g24
sg77
g24
sg78
F0.0
sg79
S'ATOM  '
p3072
sg81
S' '
p3073
sg83
g24
sg84
(lp3074
I0
aI0
aI0
asg31
S'DA'
p3075
sg86
(lp3076
F-6.156
aF6.302
aF-15.33
asg33
g2531
sg88
F1.0
sba(ipmx.atom
Atom
p3077
(dp3078
g38
(lp3079
sg40
I0
sg22
g2539
sg41
F0.0
sg42
g24
sg43
S" C2'"
p3080
sg45
S' '
p3081
sg47
g24
sg48
I29
sg25
I29
sg49
F0.0
sg26
S'A'
p3082
sg51
(lp3083
sg53
(lp3084
sg55
(lp3085
sg57
I0
sg58
g24
sg59
S'C'
p3086
sg61
F0.0
sg62
F0.0
sg63
I1
sg64
g2542
sg29
S'A'
p3087
sg66
F0.0
sg67
(lp3088
sg69
F0.0
sg70
I0
sg71
g24
sg9
S"C2'"
p3089
sg73
F0.0
sg74
(lp3090
sg76
g24
sg77
g24
sg78
F0.0
sg79
S'ATOM  '
p3091
sg81
S' '
p3092
sg83
g24
sg84
(lp3093
I0
aI0
aI0
asg31
S'DA'
p3094
sg86
(lp3095
F-4.61
aF4.907
aF-15.928
asg33
g2531
sg88
F1.0
sba(ipmx.atom
Atom
p3096
(dp3097
g38
(lp3098
sg40
I0
sg22
g2539
sg41
F0.0
sg42
g24
sg43
S"1H2'"
p3099
sg45
S' '
p3100
sg47
g24
sg48
I30
sg25
I30
sg49
F0.0
sg26
S'A'
p3101
sg51
(lp3102
sg53
(lp3103
sg55
(lp3104
sg57
I0
sg58
g24
sg59
S'H'
p3105
sg61
F0.0
sg62
F0.0
sg63
I1
sg64
g2542
sg29
S'A'
p3106
sg66
F0.0
sg67
(lp3107
sg69
F0.0
sg70
I0
sg71
g24
sg9
g633
sg73
F0.0
sg74
(lp3108
sg76
g24
sg77
g24
sg78
F0.0
sg79
S'ATOM  '
p3109
sg81
S' '
p3110
sg83
g24
sg84
(lp3111
I0
aI0
aI0
asg31
S'DA'
p3112
sg86
(lp3113
F-5.43
aF4.202
aF-16.027
asg33
g2531
sg88
F1.0
sba(ipmx.atom
Atom
p3114
(dp3115
g38
(lp3116
sg40
I0
sg22
g2539
sg41
F0.0
sg42
g24
sg43
S"2H2'"
p3117
sg45
S' '
p3118
sg47
g24
sg48
I31
sg25
I31
sg49
F0.0
sg26
S'A'
p3119
sg51
(lp3120
sg53
(lp3121
sg55
(lp3122
sg57
I0
sg58
g24
sg59
S'H'
p3123
sg61
F0.0
sg62
F0.0
sg63
I1
sg64
g2542
sg29
S'A'
p3124
sg66
F0.0
sg67
(lp3125
sg69
F0.0
sg70
I0
sg71
g24
sg9
g652
sg73
F0.0
sg74
(lp3126
sg76
g24
sg77
g24
sg78
F0.0
sg79
S'ATOM  '
p3127
sg81
S' '
p3128
sg83
g24
sg84
(lp3129
I0
aI0
aI0
asg31
S'DA'
p3130
sg86
(lp3131
F-4.275
aF5.118
aF-16.923
asg33
g2531
sg88
F1.0
sba(ipmx.atom
Atom
p3132
(dp3133
g38
(lp3134
sg40
I0
sg22
g2539
sg41
F0.0
sg42
g24
sg43
S" O3'"
p3135
sg45
S' '
p3136
sg47
g24
sg48
I32
sg25
I32
sg49
F0.0
sg26
S'A'
p3137
sg51
(lp3138
sg53
(lp3139
sg55
(lp3140
sg57
I0
sg58
g24
sg59
S'O'
p3141
sg61
F0.0
sg62
F0.0
sg63
I1
sg64
g2542
sg29
S'A'
p3142
sg66
F0.0
sg67
(lp3143
sg69
F0.0
sg70
I0
sg71
g24
sg9
S"O3'"
p3144
sg73
F0.0
sg74
(lp3145
sg76
g24
sg77
g24
sg78
F0.0
sg79
S'ATOM  '
p3146
sg81
S' '
p3147
sg83
g24
sg84
(lp3148
I0
aI0
aI0
asg31
S'DA'
p3149
sg86
(lp3150
F-4.485
aF7.405
aF-15.638
asg33
g2531
sg88
F1.0
sbasg48
I1
sg678
Nsbasg34
(lp3151
g2548
ag2566
ag2585
ag2604
ag2623
ag2642
ag2660
ag2678
ag2697
ag2716
ag2735
ag2754
ag2773
ag2792
ag2811
ag2830
ag2849
ag2868
ag2887
ag2906
ag2925
ag2944
ag2963
ag2982
ag3001
ag3020
ag3039
ag3058
ag3077
ag3096
ag3114
ag3132
asg680
I0
sg29
S'A'
p3152
sg33
g2531
sg682
I00
sg48
S'A'
p3153
sbsS'B'
p3154
(ipmx.chain
Chain
p3155
(dp3156
g17
(lp3157
(ipmx.molecule
Molecule
p3158
(dp3159
g21
I0
sg22
g3155
sg23
g24
sg25
I2
sg26
S'B'
p3160
sg28
Nsg29
S'A'
p3161
sg31
S'DT'
p3162
sg33
g2531
sg34
(lp3163
(ipmx.atom
Atom
p3164
(dp3165
g38
(lp3166
sg40
I0
sg22
g3155
sg41
F0.0
sg42
g24
sg43
S' P  '
p3167
sg45
S' '
p3168
sg47
g24
sg48
I33
sg25
I33
sg49
F0.0
sg26
S'B'
p3169
sg51
(lp3170
sg53
(lp3171
sg55
(lp3172
sg57
I0
sg58
g24
sg59
S'P'
p3173
sg61
F0.0
sg62
F0.0
sg63
I2
sg64
g3158
sg29
S'A'
p3174
sg66
F0.0
sg67
(lp3175
sg69
F0.0
sg70
I0
sg71
g24
sg9
S'P'
p3176
sg73
F0.0
sg74
(lp3177
sg76
g24
sg77
g24
sg78
F0.0
sg79
S'ATOM  '
p3178
sg81
S' '
p3179
sg83
g24
sg84
(lp3180
I0
aI0
aI0
asg31
g3162
sg86
(lp3181
F6.704
aF-6.297
aF-16.329
asg33
g2531
sg88
F1.0
sba(ipmx.atom
Atom
p3182
(dp3183
g38
(lp3184
sg40
I0
sg22
g3155
sg41
F0.0
sg42
g24
sg43
S' O1P'
p3185
sg45
S' '
p3186
sg47
g24
sg48
I34
sg25
I34
sg49
F0.0
sg26
S'B'
p3187
sg51
(lp3188
sg53
(lp3189
sg55
(lp3190
sg57
I0
sg58
g24
sg59
S'O'
p3191
sg61
F0.0
sg62
F0.0
sg63
I2
sg64
g3158
sg29
S'A'
p3192
sg66
F0.0
sg67
(lp3193
sg69
F0.0
sg70
I0
sg71
g24
sg9
S'O1P'
p3194
sg73
F0.0
sg74
(lp3195
sg76
g24
sg77
g24
sg78
F0.0
sg79
S'ATOM  '
p3196
sg81
S' '
p3197
sg83
g24
sg84
(lp3198
I0
aI0
aI0
asg31
S'DT'
p3199
sg86
(lp3200
F8.189
aF-6.476
aF-16.23
asg33
g2531
sg88
F1.0
sba(ipmx.atom
Atom
p3201
(dp3202
g38
(lp3203
sg40
I0
sg22
g3155
sg41
F0.0
sg42
g24
sg43
S' O2P'
p3204
sg45
S' '
p3205
sg47
g24
sg48
I35
sg25
I35
sg49
F0.0
sg26
S'B'
p3206
sg51
(lp3207
sg53
(lp3208
sg55
(lp3209
sg57
I0
sg58
g24
sg59
S'O'
p3210
sg61
F0.0
sg62
F0.0
sg63
I2
sg64
g3158
sg29
S'A'
p3211
sg66
F0.0
sg67
(lp3212
sg69
F0.0
sg70
I0
sg71
g24
sg9
S'O2P'
p3213
sg73
F0.0
sg74
(lp3214
sg76
g24
sg77
g24
sg78
F0.0
sg79
S'ATOM  '
p3215
sg81
S' '
p3216
sg83
g24
sg84
(lp3217
I0
aI0
aI0
asg31
S'DT'
p3218
sg86
(lp3219
F5.808
aF-7.08
aF-15.487
asg33
g2531
sg88
F1.0
sba(ipmx.atom
Atom
p3220
(dp3221
g38
(lp3222
sg40
I0
sg22
g3155
sg41
F0.0
sg42
g24
sg43
S" O5'"
p3223
sg45
S' '
p3224
sg47
g24
sg48
I36
sg25
I36
sg49
F0.0
sg26
S'B'
p3225
sg51
(lp3226
sg53
(lp3227
sg55
(lp3228
sg57
I0
sg58
g24
sg59
S'O'
p3229
sg61
F0.0
sg62
F0.0
sg63
I2
sg64
g3158
sg29
S'A'
p3230
sg66
F0.0
sg67
(lp3231
sg69
F0.0
sg70
I0
sg71
g24
sg9
S"O5'"
p3232
sg73
F0.0
sg74
(lp3233
sg76
g24
sg77
g24
sg78
F0.0
sg79
S'ATOM  '
p3234
sg81
S' '
p3235
sg83
g24
sg84
(lp3236
I0
aI0
aI0
asg31
S'DT'
p3237
sg86
(lp3238
F6.469
aF-4.739
aF-16.118
asg33
g2531
sg88
F1.0
sba(ipmx.atom
Atom
p3239
(dp3240
g38
(lp3241
sg40
I0
sg22
g3155
sg41
F0.0
sg42
g24
sg43
S" C5'"
p3242
sg45
S' '
p3243
sg47
g24
sg48
I37
sg25
I37
sg49
F0.0
sg26
S'B'
p3244
sg51
(lp3245
sg53
(lp3246
sg55
(lp3247
sg57
I0
sg58
g24
sg59
S'C'
p3248
sg61
F0.0
sg62
F0.0
sg63
I2
sg64
g3158
sg29
S'A'
p3249
sg66
F0.0
sg67
(lp3250
sg69
F0.0
sg70
I0
sg71
g24
sg9
S"C5'"
p3251
sg73
F0.0
sg74
(lp3252
sg76
g24
sg77
g24
sg78
F0.0
sg79
S'ATOM  '
p3253
sg81
S' '
p3254
sg83
g24
sg84
(lp3255
I0
aI0
aI0
asg31
S'DT'
p3256
sg86
(lp3257
F7.041
aF-3.765
aF-16.98
asg33
g2531
sg88
F1.0
sba(ipmx.atom
Atom
p3258
(dp3259
g38
(lp3260
sg40
I0
sg22
g3155
sg41
F0.0
sg42
g24
sg43
S"1H5'"
p3261
sg45
S' '
p3262
sg47
g24
sg48
I38
sg25
I38
sg49
F0.0
sg26
S'B'
p3263
sg51
(lp3264
sg53
(lp3265
sg55
(lp3266
sg57
I0
sg58
g24
sg59
S'H'
p3267
sg61
F0.0
sg62
F0.0
sg63
I2
sg64
g3158
sg29
S'A'
p3268
sg66
F0.0
sg67
(lp3269
sg69
F0.0
sg70
I0
sg71
g24
sg9
g177
sg73
F0.0
sg74
(lp3270
sg76
g24
sg77
g24
sg78
F0.0
sg79
S'ATOM  '
p3271
sg81
S' '
p3272
sg83
g24
sg84
(lp3273
I0
aI0
aI0
asg31
S'DT'
p3274
sg86
(lp3275
F7.988
aF-4.141
aF-17.376
asg33
g2531
sg88
F1.0
sba(ipmx.atom
Atom
p3276
(dp3277
g38
(lp3278
sg40
I0
sg22
g3155
sg41
F0.0
sg42
g24
sg43
S"2H5'"
p3279
sg45
S' '
p3280
sg47
g24
sg48
I39
sg25
I39
sg49
F0.0
sg26
S'B'
p3281
sg51
(lp3282
sg53
(lp3283
sg55
(lp3284
sg57
I0
sg58
g24
sg59
S'H'
p3285
sg61
F0.0
sg62
F0.0
sg63
I2
sg64
g3158
sg29
S'A'
p3286
sg66
F0.0
sg67
(lp3287
sg69
F0.0
sg70
I0
sg71
g24
sg9
g196
sg73
F0.0
sg74
(lp3288
sg76
g24
sg77
g24
sg78
F0.0
sg79
S'ATOM  '
p3289
sg81
S' '
p3290
sg83
g24
sg84
(lp3291
I0
aI0
aI0
asg31
S'DT'
p3292
sg86
(lp3293
F6.379
aF-3.603
aF-17.836
asg33
g2531
sg88
F1.0
sba(ipmx.atom
Atom
p3294
(dp3295
g38
(lp3296
sg40
I0
sg22
g3155
sg41
F0.0
sg42
g24
sg43
S" C4'"
p3297
sg45
S' '
p3298
sg47
g24
sg48
I40
sg25
I40
sg49
F0.0
sg26
S'B'
p3299
sg51
(lp3300
sg53
(lp3301
sg55
(lp3302
sg57
I0
sg58
g24
sg59
S'C'
p3303
sg61
F0.0
sg62
F0.0
sg63
I2
sg64
g3158
sg29
S'A'
p3304
sg66
F0.0
sg67
(lp3305
sg69
F0.0
sg70
I0
sg71
g24
sg9
S"C4'"
p3306
sg73
F0.0
sg74
(lp3307
sg76
g24
sg77
g24
sg78
F0.0
sg79
S'ATOM  '
p3308
sg81
S' '
p3309
sg83
g24
sg84
(lp3310
I0
aI0
aI0
asg31
S'DT'
p3311
sg86
(lp3312
F7.294
aF-2.422
aF-16.269
asg33
g2531
sg88
F1.0
sba(ipmx.atom
Atom
p3313
(dp3314
g38
(lp3315
sg40
I0
sg22
g3155
sg41
F0.0
sg42
g24
sg43
S" H4'"
p3316
sg45
S' '
p3317
sg47
g24
sg48
I41
sg25
I41
sg49
F0.0
sg26
S'B'
p3318
sg51
(lp3319
sg53
(lp3320
sg55
(lp3321
sg57
I0
sg58
g24
sg59
S'H'
p3322
sg61
F0.0
sg62
F0.0
sg63
I2
sg64
g3158
sg29
S'A'
p3323
sg66
F0.0
sg67
(lp3324
sg69
F0.0
sg70
I0
sg71
g24
sg9
S"H4'"
p3325
sg73
F0.0
sg74
(lp3326
sg76
g24
sg77
g24
sg78
F0.0
sg79
S'ATOM  '
p3327
sg81
S' '
p3328
sg83
g24
sg84
(lp3329
I0
aI0
aI0
asg31
S'DT'
p3330
sg86
(lp3331
F8.034
aF-1.876
aF-16.847
asg33
g2531
sg88
F1.0
sba(ipmx.atom
Atom
p3332
(dp3333
g38
(lp3334
sg40
I0
sg22
g3155
sg41
F0.0
sg42
g24
sg43
S" O4'"
p3335
sg45
S' '
p3336
sg47
g24
sg48
I42
sg25
I42
sg49
F0.0
sg26
S'B'
p3337
sg51
(lp3338
sg53
(lp3339
sg55
(lp3340
sg57
I0
sg58
g24
sg59
S'O'
p3341
sg61
F0.0
sg62
F0.0
sg63
I2
sg64
g3158
sg29
S'A'
p3342
sg66
F0.0
sg67
(lp3343
sg69
F0.0
sg70
I0
sg71
g24
sg9
S"O4'"
p3344
sg73
F0.0
sg74
(lp3345
sg76
g24
sg77
g24
sg78
F0.0
sg79
S'ATOM  '
p3346
sg81
S' '
p3347
sg83
g24
sg84
(lp3348
I0
aI0
aI0
asg31
S'DT'
p3349
sg86
(lp3350
F6.077
aF-1.681
aF-16.253
asg33
g2531
sg88
F1.0
sba(ipmx.atom
Atom
p3351
(dp3352
g38
(lp3353
sg40
I0
sg22
g3155
sg41
F0.0
sg42
g24
sg43
S" C1'"
p3354
sg45
S' '
p3355
sg47
g24
sg48
I43
sg25
I43
sg49
F0.0
sg26
S'B'
p3356
sg51
(lp3357
sg53
(lp3358
sg55
(lp3359
sg57
I0
sg58
g24
sg59
S'C'
p3360
sg61
F0.0
sg62
F0.0
sg63
I2
sg64
g3158
sg29
S'A'
p3361
sg66
F0.0
sg67
(lp3362
sg69
F0.0
sg70
I0
sg71
g24
sg9
S"C1'"
p3363
sg73
F0.0
sg74
(lp3364
sg76
g24
sg77
g24
sg78
F0.0
sg79
S'ATOM  '
p3365
sg81
S' '
p3366
sg83
g24
sg84
(lp3367
I0
aI0
aI0
asg31
S'DT'
p3368
sg86
(lp3369
F5.51
aF-1.757
aF-14.953
asg33
g2531
sg88
F1.0
sba(ipmx.atom
Atom
p3370
(dp3371
g38
(lp3372
sg40
I0
sg22
g3155
sg41
F0.0
sg42
g24
sg43
S" H1'"
p3373
sg45
S' '
p3374
sg47
g24
sg48
I44
sg25
I44
sg49
F0.0
sg26
S'B'
p3375
sg51
(lp3376
sg53
(lp3377
sg55
(lp3378
sg57
I0
sg58
g24
sg59
S'H'
p3379
sg61
F0.0
sg62
F0.0
sg63
I2
sg64
g3158
sg29
S'A'
p3380
sg66
F0.0
sg67
(lp3381
sg69
F0.0
sg70
I0
sg71
g24
sg9
S"H1'"
p3382
sg73
F0.0
sg74
(lp3383
sg76
g24
sg77
g24
sg78
F0.0
sg79
S'ATOM  '
p3384
sg81
S' '
p3385
sg83
g24
sg84
(lp3386
I0
aI0
aI0
asg31
S'DT'
p3387
sg86
(lp3388
F5.531
aF-0.755
aF-14.514
asg33
g2531
sg88
F1.0
sba(ipmx.atom
Atom
p3389
(dp3390
g38
(lp3391
sg40
I0
sg22
g3155
sg41
F0.0
sg42
g24
sg43
S' N1 '
p3392
sg45
S' '
p3393
sg47
g24
sg48
I45
sg25
I45
sg49
F0.0
sg26
S'B'
p3394
sg51
(lp3395
sg53
(lp3396
sg55
(lp3397
sg57
I0
sg58
g24
sg59
S'N'
p3398
sg61
F0.0
sg62
F0.0
sg63
I2
sg64
g3158
sg29
S'A'
p3399
sg66
F0.0
sg67
(lp3400
sg69
F0.0
sg70
I0
sg71
g24
sg9
S'N1'
p3401
sg73
F0.0
sg74
(lp3402
sg76
g24
sg77
g24
sg78
F0.0
sg79
S'ATOM  '
p3403
sg81
S' '
p3404
sg83
g24
sg84
(lp3405
I0
aI0
aI0
asg31
S'DT'
p3406
sg86
(lp3407
F4.095
aF-2.229
aF-15.043
asg33
g2531
sg88
F1.0
sba(ipmx.atom
Atom
p3408
(dp3409
g38
(lp3410
sg40
I0
sg22
g3155
sg41
F0.0
sg42
g24
sg43
S' C6 '
p3411
sg45
S' '
p3412
sg47
g24
sg48
I46
sg25
I46
sg49
F0.0
sg26
S'B'
p3413
sg51
(lp3414
sg53
(lp3415
sg55
(lp3416
sg57
I0
sg58
g24
sg59
S'C'
p3417
sg61
F0.0
sg62
F0.0
sg63
I2
sg64
g3158
sg29
S'A'
p3418
sg66
F0.0
sg67
(lp3419
sg69
F0.0
sg70
I0
sg71
g24
sg9
S'C6'
p3420
sg73
F0.0
sg74
(lp3421
sg76
g24
sg77
g24
sg78
F0.0
sg79
S'ATOM  '
p3422
sg81
S' '
p3423
sg83
g24
sg84
(lp3424
I0
aI0
aI0
asg31
S'DT'
p3425
sg86
(lp3426
F3.755
aF-3.572
aF-15.098
asg33
g2531
sg88
F1.0
sba(ipmx.atom
Atom
p3427
(dp3428
g38
(lp3429
sg40
I0
sg22
g3155
sg41
F0.0
sg42
g24
sg43
S' H6 '
p3430
sg45
S' '
p3431
sg47
g24
sg48
I47
sg25
I47
sg49
F0.0
sg26
S'B'
p3432
sg51
(lp3433
sg53
(lp3434
sg55
(lp3435
sg57
I0
sg58
g24
sg59
S'H'
p3436
sg61
F0.0
sg62
F0.0
sg63
I2
sg64
g3158
sg29
S'A'
p3437
sg66
F0.0
sg67
(lp3438
sg69
F0.0
sg70
I0
sg71
g24
sg9
S'H6'
p3439
sg73
F0.0
sg74
(lp3440
sg76
g24
sg77
g24
sg78
F0.0
sg79
S'ATOM  '
p3441
sg81
S' '
p3442
sg83
g24
sg84
(lp3443
I0
aI0
aI0
asg31
S'DT'
p3444
sg86
(lp3445
F4.524
aF-4.319
aF-15.095
asg33
g2531
sg88
F1.0
sba(ipmx.atom
Atom
p3446
(dp3447
g38
(lp3448
sg40
I0
sg22
g3155
sg41
F0.0
sg42
g24
sg43
S' C5 '
p3449
sg45
S' '
p3450
sg47
g24
sg48
I48
sg25
I48
sg49
F0.0
sg26
S'B'
p3451
sg51
(lp3452
sg53
(lp3453
sg55
(lp3454
sg57
I0
sg58
g24
sg59
S'C'
p3455
sg61
F0.0
sg62
F0.0
sg63
I2
sg64
g3158
sg29
S'A'
p3456
sg66
F0.0
sg67
(lp3457
sg69
F0.0
sg70
I0
sg71
g24
sg9
S'C5'
p3458
sg73
F0.0
sg74
(lp3459
sg76
g24
sg77
g24
sg78
F0.0
sg79
S'ATOM  '
p3460
sg81
S' '
p3461
sg83
g24
sg84
(lp3462
I0
aI0
aI0
asg31
S'DT'
p3463
sg86
(lp3464
F2.453
aF-3.975
aF-15.132
asg33
g2531
sg88
F1.0
sba(ipmx.atom
Atom
p3465
(dp3466
g38
(lp3467
sg40
I0
sg22
g3155
sg41
F0.0
sg42
g24
sg43
S' C7 '
p3468
sg45
S' '
p3469
sg47
g24
sg48
I49
sg25
I49
sg49
F0.0
sg26
S'B'
p3470
sg51
(lp3471
sg53
(lp3472
sg55
(lp3473
sg57
I0
sg58
g24
sg59
S'C'
p3474
sg61
F0.0
sg62
F0.0
sg63
I2
sg64
g3158
sg29
S'A'
p3475
sg66
F0.0
sg67
(lp3476
sg69
F0.0
sg70
I0
sg71
g24
sg9
g386
sg73
F0.0
sg74
(lp3477
sg76
g24
sg77
g24
sg78
F0.0
sg79
S'ATOM  '
p3478
sg81
S' '
p3479
sg83
g24
sg84
(lp3480
I0
aI0
aI0
asg31
S'DT'
p3481
sg86
(lp3482
F2.014
aF-5.438
aF-15.107
asg33
g2531
sg88
F1.0
sba(ipmx.atom
Atom
p3483
(dp3484
g38
(lp3485
sg40
I0
sg22
g3155
sg41
F0.0
sg42
g24
sg43
S' H71'
p3486
sg45
S' '
p3487
sg47
g24
sg48
I50
sg25
I50
sg49
F0.0
sg26
S'B'
p3488
sg51
(lp3489
sg53
(lp3490
sg55
(lp3491
sg57
I0
sg58
g24
sg59
S'H'
p3492
sg61
F0.0
sg62
F0.0
sg63
I2
sg64
g3158
sg29
S'A'
p3493
sg66
F0.0
sg67
(lp3494
sg69
F0.0
sg70
I0
sg71
g24
sg9
g405
sg73
F0.0
sg74
(lp3495
sg76
g24
sg77
g24
sg78
F0.0
sg79
S'ATOM  '
p3496
sg81
S' '
p3497
sg83
g24
sg84
(lp3498
I0
aI0
aI0
asg31
S'DT'
p3499
sg86
(lp3500
F2.073
aF-5.842
aF-14.108
asg33
g2531
sg88
F1.0
sba(ipmx.atom
Atom
p3501
(dp3502
g38
(lp3503
sg40
I0
sg22
g3155
sg41
F0.0
sg42
g24
sg43
S' H72'
p3504
sg45
S' '
p3505
sg47
g24
sg48
I51
sg25
I51
sg49
F0.0
sg26
S'B'
p3506
sg51
(lp3507
sg53
(lp3508
sg55
(lp3509
sg57
I0
sg58
g24
sg59
S'H'
p3510
sg61
F0.0
sg62
F0.0
sg63
I2
sg64
g3158
sg29
S'A'
p3511
sg66
F0.0
sg67
(lp3512
sg69
F0.0
sg70
I0
sg71
g24
sg9
g424
sg73
F0.0
sg74
(lp3513
sg76
g24
sg77
g24
sg78
F0.0
sg79
S'ATOM  '
p3514
sg81
S' '
p3515
sg83
g24
sg84
(lp3516
I0
aI0
aI0
asg31
S'DT'
p3517
sg86
(lp3518
F2.616
aF-6.147
aF-15.599
asg33
g2531
sg88
F1.0
sba(ipmx.atom
Atom
p3519
(dp3520
g38
(lp3521
sg40
I0
sg22
g3155
sg41
F0.0
sg42
g24
sg43
S' H73'
p3522
sg45
S' '
p3523
sg47
g24
sg48
I52
sg25
I52
sg49
F0.0
sg26
S'B'
p3524
sg51
(lp3525
sg53
(lp3526
sg55
(lp3527
sg57
I0
sg58
g24
sg59
S'H'
p3528
sg61
F0.0
sg62
F0.0
sg63
I2
sg64
g3158
sg29
S'A'
p3529
sg66
F0.0
sg67
(lp3530
sg69
F0.0
sg70
I0
sg71
g24
sg9
g443
sg73
F0.0
sg74
(lp3531
sg76
g24
sg77
g24
sg78
F0.0
sg79
S'ATOM  '
p3532
sg81
S' '
p3533
sg83
g24
sg84
(lp3534
I0
aI0
aI0
asg31
S'DT'
p3535
sg86
(lp3536
F1.042
aF-5.535
aF-15.597
asg33
g2531
sg88
F1.0
sba(ipmx.atom
Atom
p3537
(dp3538
g38
(lp3539
sg40
I0
sg22
g3155
sg41
F0.0
sg42
g24
sg43
S' C4 '
p3540
sg45
S' '
p3541
sg47
g24
sg48
I53
sg25
I53
sg49
F0.0
sg26
S'B'
p3542
sg51
(lp3543
sg53
(lp3544
sg55
(lp3545
sg57
I0
sg58
g24
sg59
S'C'
p3546
sg61
F0.0
sg62
F0.0
sg63
I2
sg64
g3158
sg29
S'A'
p3547
sg66
F0.0
sg67
(lp3548
sg69
F0.0
sg70
I0
sg71
g24
sg9
S'C4'
p3549
sg73
F0.0
sg74
(lp3550
sg76
g24
sg77
g24
sg78
F0.0
sg79
S'ATOM  '
p3551
sg81
S' '
p3552
sg83
g24
sg84
(lp3553
I0
aI0
aI0
asg31
S'DT'
p3554
sg86
(lp3555
F1.402
aF-2.986
aF-15.154
asg33
g2531
sg88
F1.0
sba(ipmx.atom
Atom
p3556
(dp3557
g38
(lp3558
sg40
I0
sg22
g3155
sg41
F0.0
sg42
g24
sg43
S' O4 '
p3559
sg45
S' '
p3560
sg47
g24
sg48
I54
sg25
I54
sg49
F0.0
sg26
S'B'
p3561
sg51
(lp3562
sg53
(lp3563
sg55
(lp3564
sg57
I0
sg58
g24
sg59
S'O'
p3565
sg61
F0.0
sg62
F0.0
sg63
I2
sg64
g3158
sg29
S'A'
p3566
sg66
F0.0
sg67
(lp3567
sg69
F0.0
sg70
I0
sg71
g24
sg9
S'O4'
p3568
sg73
F0.0
sg74
(lp3569
sg76
g24
sg77
g24
sg78
F0.0
sg79
S'ATOM  '
p3570
sg81
S' '
p3571
sg83
g24
sg84
(lp3572
I0
aI0
aI0
asg31
S'DT'
p3573
sg86
(lp3574
F0.208
aF-3.242
aF-15.203
asg33
g2531
sg88
F1.0
sba(ipmx.atom
Atom
p3575
(dp3576
g38
(lp3577
sg40
I0
sg22
g3155
sg41
F0.0
sg42
g24
sg43
S' N3 '
p3578
sg45
S' '
p3579
sg47
g24
sg48
I55
sg25
I55
sg49
F0.0
sg26
S'B'
p3580
sg51
(lp3581
sg53
(lp3582
sg55
(lp3583
sg57
I0
sg58
g24
sg59
S'N'
p3584
sg61
F0.0
sg62
F0.0
sg63
I2
sg64
g3158
sg29
S'A'
p3585
sg66
F0.0
sg67
(lp3586
sg69
F0.0
sg70
I0
sg71
g24
sg9
S'N3'
p3587
sg73
F0.0
sg74
(lp3588
sg76
g24
sg77
g24
sg78
F0.0
sg79
S'ATOM  '
p3589
sg81
S' '
p3590
sg83
g24
sg84
(lp3591
I0
aI0
aI0
asg31
S'DT'
p3592
sg86
(lp3593
F1.799
aF-1.684
aF-15.077
asg33
g2531
sg88
F1.0
sba(ipmx.atom
Atom
p3594
(dp3595
g38
(lp3596
sg40
I0
sg22
g3155
sg41
F0.0
sg42
g24
sg43
S' H3 '
p3597
sg45
S' '
p3598
sg47
g24
sg48
I56
sg25
I56
sg49
F0.0
sg26
S'B'
p3599
sg51
(lp3600
sg53
(lp3601
sg55
(lp3602
sg57
I0
sg58
g24
sg59
S'H'
p3603
sg61
F0.0
sg62
F0.0
sg63
I2
sg64
g3158
sg29
S'A'
p3604
sg66
F0.0
sg67
(lp3605
sg69
F0.0
sg70
I0
sg71
g24
sg9
S'H3'
p3606
sg73
F0.0
sg74
(lp3607
sg76
g24
sg77
g24
sg78
F0.0
sg79
S'ATOM  '
p3608
sg81
S' '
p3609
sg83
g24
sg84
(lp3610
I0
aI0
aI0
asg31
S'DT'
p3611
sg86
(lp3612
F1.079
aF-0.981
aF-15.056
asg33
g2531
sg88
F1.0
sba(ipmx.atom
Atom
p3613
(dp3614
g38
(lp3615
sg40
I0
sg22
g3155
sg41
F0.0
sg42
g24
sg43
S' C2 '
p3616
sg45
S' '
p3617
sg47
g24
sg48
I57
sg25
I57
sg49
F0.0
sg26
S'B'
p3618
sg51
(lp3619
sg53
(lp3620
sg55
(lp3621
sg57
I0
sg58
g24
sg59
S'C'
p3622
sg61
F0.0
sg62
F0.0
sg63
I2
sg64
g3158
sg29
S'A'
p3623
sg66
F0.0
sg67
(lp3624
sg69
F0.0
sg70
I0
sg71
g24
sg9
S'C2'
p3625
sg73
F0.0
sg74
(lp3626
sg76
g24
sg77
g24
sg78
F0.0
sg79
S'ATOM  '
p3627
sg81
S' '
p3628
sg83
g24
sg84
(lp3629
I0
aI0
aI0
asg31
S'DT'
p3630
sg86
(lp3631
F3.099
aF-1.248
aF-15.018
asg33
g2531
sg88
F1.0
sba(ipmx.atom
Atom
p3632
(dp3633
g38
(lp3634
sg40
I0
sg22
g3155
sg41
F0.0
sg42
g24
sg43
S' O  '
p3635
sg45
S' '
p3636
sg47
g24
sg48
I58
sg25
I58
sg49
F0.0
sg26
S'B'
p3637
sg51
(lp3638
sg53
(lp3639
sg55
(lp3640
sg57
I0
sg58
g24
sg59
S'O'
p3641
sg61
F0.0
sg62
F0.0
sg63
I2
sg64
g3158
sg29
S'A'
p3642
sg66
F0.0
sg67
(lp3643
sg69
F0.0
sg70
I0
sg71
g24
sg9
g557
sg73
F0.0
sg74
(lp3644
sg76
g24
sg77
g24
sg78
F0.0
sg79
S'ATOM  '
p3645
sg81
S' '
p3646
sg83
g24
sg84
(lp3647
I0
aI0
aI0
asg31
S'DT'
p3648
sg86
(lp3649
F3.313
aF-0.044
aF-14.916
asg33
g2531
sg88
F1.0
sba(ipmx.atom
Atom
p3650
(dp3651
g38
(lp3652
sg40
I0
sg22
g3155
sg41
F0.0
sg42
g24
sg43
S" C3'"
p3653
sg45
S' '
p3654
sg47
g24
sg48
I59
sg25
I59
sg49
F0.0
sg26
S'B'
p3655
sg51
(lp3656
sg53
(lp3657
sg55
(lp3658
sg57
I0
sg58
g24
sg59
S'C'
p3659
sg61
F0.0
sg62
F0.0
sg63
I2
sg64
g3158
sg29
S'A'
p3660
sg66
F0.0
sg67
(lp3661
sg69
F0.0
sg70
I0
sg71
g24
sg9
S"C3'"
p3662
sg73
F0.0
sg74
(lp3663
sg76
g24
sg77
g24
sg78
F0.0
sg79
S'ATOM  '
p3664
sg81
S' '
p3665
sg83
g24
sg84
(lp3666
I0
aI0
aI0
asg31
S'DT'
p3667
sg86
(lp3668
F7.794
aF-2.546
aF-14.81
asg33
g2531
sg88
F1.0
sba(ipmx.atom
Atom
p3669
(dp3670
g38
(lp3671
sg40
I0
sg22
g3155
sg41
F0.0
sg42
g24
sg43
S" H3'"
p3672
sg45
S' '
p3673
sg47
g24
sg48
I60
sg25
I60
sg49
F0.0
sg26
S'B'
p3674
sg51
(lp3675
sg53
(lp3676
sg55
(lp3677
sg57
I0
sg58
g24
sg59
S'H'
p3678
sg61
F0.0
sg62
F0.0
sg63
I2
sg64
g3158
sg29
S'A'
p3679
sg66
F0.0
sg67
(lp3680
sg69
F0.0
sg70
I0
sg71
g24
sg9
S"H3'"
p3681
sg73
F0.0
sg74
(lp3682
sg76
g24
sg77
g24
sg78
F0.0
sg79
S'ATOM  '
p3683
sg81
S' '
p3684
sg83
g24
sg84
(lp3685
I0
aI0
aI0
asg31
S'DT'
p3686
sg86
(lp3687
F8.337
aF-3.478
aF-14.671
asg33
g2531
sg88
F1.0
sba(ipmx.atom
Atom
p3688
(dp3689
g38
(lp3690
sg40
I0
sg22
g3155
sg41
F0.0
sg42
g24
sg43
S" C2'"
p3691
sg45
S' '
p3692
sg47
g24
sg48
I61
sg25
I61
sg49
F0.0
sg26
S'B'
p3693
sg51
(lp3694
sg53
(lp3695
sg55
(lp3696
sg57
I0
sg58
g24
sg59
S'C'
p3697
sg61
F0.0
sg62
F0.0
sg63
I2
sg64
g3158
sg29
S'A'
p3698
sg66
F0.0
sg67
(lp3699
sg69
F0.0
sg70
I0
sg71
g24
sg9
S"C2'"
p3700
sg73
F0.0
sg74
(lp3701
sg76
g24
sg77
g24
sg78
F0.0
sg79
S'ATOM  '
p3702
sg81
S' '
p3703
sg83
g24
sg84
(lp3704
I0
aI0
aI0
asg31
S'DT'
p3705
sg86
(lp3706
F6.441
aF-2.627
aF-14.101
asg33
g2531
sg88
F1.0
sba(ipmx.atom
Atom
p3707
(dp3708
g38
(lp3709
sg40
I0
sg22
g3155
sg41
F0.0
sg42
g24
sg43
S"1H2'"
p3710
sg45
S' '
p3711
sg47
g24
sg48
I62
sg25
I62
sg49
F0.0
sg26
S'B'
p3712
sg51
(lp3713
sg53
(lp3714
sg55
(lp3715
sg57
I0
sg58
g24
sg59
S'H'
p3716
sg61
F0.0
sg62
F0.0
sg63
I2
sg64
g3158
sg29
S'A'
p3717
sg66
F0.0
sg67
(lp3718
sg69
F0.0
sg70
I0
sg71
g24
sg9
g633
sg73
F0.0
sg74
(lp3719
sg76
g24
sg77
g24
sg78
F0.0
sg79
S'ATOM  '
p3720
sg81
S' '
p3721
sg83
g24
sg84
(lp3722
I0
aI0
aI0
asg31
S'DT'
p3723
sg86
(lp3724
F6.115
aF-3.661
aF-14.042
asg33
g2531
sg88
F1.0
sba(ipmx.atom
Atom
p3725
(dp3726
g38
(lp3727
sg40
I0
sg22
g3155
sg41
F0.0
sg42
g24
sg43
S"2H2'"
p3728
sg45
S' '
p3729
sg47
g24
sg48
I63
sg25
I63
sg49
F0.0
sg26
S'B'
p3730
sg51
(lp3731
sg53
(lp3732
sg55
(lp3733
sg57
I0
sg58
g24
sg59
S'H'
p3734
sg61
F0.0
sg62
F0.0
sg63
I2
sg64
g3158
sg29
S'A'
p3735
sg66
F0.0
sg67
(lp3736
sg69
F0.0
sg70
I0
sg71
g24
sg9
g652
sg73
F0.0
sg74
(lp3737
sg76
g24
sg77
g24
sg78
F0.0
sg79
S'ATOM  '
p3738
sg81
S' '
p3739
sg83
g24
sg84
(lp3740
I0
aI0
aI0
asg31
S'DT'
p3741
sg86
(lp3742
F6.488
aF-2.29
aF-13.086
asg33
g2531
sg88
F1.0
sba(ipmx.atom
Atom
p3743
(dp3744
g38
(lp3745
sg40
I0
sg22
g3155
sg41
F0.0
sg42
g24
sg43
S" O3'"
p3746
sg45
S' '
p3747
sg47
g24
sg48
I64
sg25
I64
sg49
F0.0
sg26
S'B'
p3748
sg51
(lp3749
sg53
(lp3750
sg55
(lp3751
sg57
I0
sg58
g24
sg59
S'O'
p3752
sg61
F0.0
sg62
F0.0
sg63
I2
sg64
g3158
sg29
S'A'
p3753
sg66
F0.0
sg67
(lp3754
sg69
F0.0
sg70
I0
sg71
g24
sg9
S"O3'"
p3755
sg73
F0.0
sg74
(lp3756
sg76
g24
sg77
g24
sg78
F0.0
sg79
S'ATOM  '
p3757
sg81
S' '
p3758
sg83
g24
sg84
(lp3759
I0
aI0
aI0
asg31
S'DT'
p3760
sg86
(lp3761
F8.662
aF-1.454
aF-14.442
asg33
g2531
sg88
F1.0
sbasg48
I2
sg678
Nsbasg34
(lp3762
g3164
ag3182
ag3201
ag3220
ag3239
ag3258
ag3276
ag3294
ag3313
ag3332
ag3351
ag3370
ag3389
ag3408
ag3427
ag3446
ag3465
ag3483
ag3501
ag3519
ag3537
ag3556
ag3575
ag3594
ag3613
ag3632
ag3650
ag3669
ag3688
ag3707
ag3725
ag3743
asg680
I0
sg29
S'A'
p3763
sg33
g2531
sg682
I00
sg48
S'B'
p3764
sbssg17
(lp3765
g2542
ag3158
asg34
(lp3766
g2548
ag2566
ag2585
ag2604
ag2623
ag2642
ag2660
ag2678
ag2697
ag2716
ag2735
ag2754
ag2773
ag2792
ag2811
ag2830
ag2849
ag2868
ag2887
ag2906
ag2925
ag2944
ag2963
ag2982
ag3001
ag3020
ag3039
ag3058
ag3077
ag3096
ag3114
ag3132
ag3164
ag3182
ag3201
ag3220
ag3239
ag3258
ag3276
ag3294
ag3313
ag3332
ag3351
ag3370
ag3389
ag3408
ag3427
ag3446
ag3465
ag3483
ag3501
ag3519
ag3537
ag3556
ag3575
ag3594
ag3613
ag3632
ag3650
ag3669
ag3688
ag3707
ag3725
ag3743
asg29
S'A'
p3767
sg1303
(lp3768
g2539
ag3155
asg48
I0
sg1305
I0
sbsS'g'
p3769
(ipmx.model
Model
p3770
(dp3771
g4
(lp3772
(lp3773
I0
aI0
aI0
aa(lp3774
I0
aI0
aI0
aa(lp3775
I0
aI0
aI0
aasg9
Nsg10
g11
sg12
(dp3776
S'A'
p3777
(ipmx.chain
Chain
p3778
(dp3779
g17
(lp3780
(ipmx.molecule
Molecule
p3781
(dp3782
g21
I0
sg22
g3778
sg23
g24
sg25
I1
sg26
S'A'
p3783
sg28
Nsg29
S'A'
p3784
sg31
S'DC'
p3785
sg33
g3770
sg34
(lp3786
(ipmx.atom
Atom
p3787
(dp3788
g38
(lp3789
sg40
I0
sg22
g3778
sg41
F0.0
sg42
g24
sg43
S' P  '
p3790
sg45
S' '
p3791
sg47
g24
sg48
I1
sg25
I1
sg49
F0.0
sg26
S'A'
p3792
sg51
(lp3793
sg53
(lp3794
sg55
(lp3795
sg57
I0
sg58
g24
sg59
S'P'
p3796
sg61
F0.0
sg62
F0.0
sg63
I1
sg64
g3781
sg29
S'A'
p3797
sg66
F0.0
sg67
(lp3798
sg69
F0.0
sg70
I0
sg71
g24
sg9
S'P'
p3799
sg73
F0.0
sg74
(lp3800
sg76
g24
sg77
g24
sg78
F0.0
sg79
S'ATOM  '
p3801
sg81
S' '
p3802
sg83
g24
sg84
(lp3803
I0
aI0
aI0
asg31
g3785
sg86
(lp3804
F-8.178
aF3.769
aF-13.832
asg33
g3770
sg88
F1.0
sba(ipmx.atom
Atom
p3805
(dp3806
g38
(lp3807
sg40
I0
sg22
g3778
sg41
F0.0
sg42
g24
sg43
S' O1P'
p3808
sg45
S' '
p3809
sg47
g24
sg48
I2
sg25
I2
sg49
F0.0
sg26
S'A'
p3810
sg51
(lp3811
sg53
(lp3812
sg55
(lp3813
sg57
I0
sg58
g24
sg59
S'O'
p3814
sg61
F0.0
sg62
F0.0
sg63
I1
sg64
g3781
sg29
S'A'
p3815
sg66
F0.0
sg67
(lp3816
sg69
F0.0
sg70
I0
sg71
g24
sg9
S'O1P'
p3817
sg73
F0.0
sg74
(lp3818
sg76
g24
sg77
g24
sg78
F0.0
sg79
S'ATOM  '
p3819
sg81
S' '
p3820
sg83
g24
sg84
(lp3821
I0
aI0
aI0
asg31
S'DC'
p3822
sg86
(lp3823
F-8.877
aF5.063
aF-13.995
asg33
g3770
sg88
F1.0
sba(ipmx.atom
Atom
p3824
(dp3825
g38
(lp3826
sg40
I0
sg22
g3778
sg41
F0.0
sg42
g24
sg43
S' O2P'
p3827
sg45
S' '
p3828
sg47
g24
sg48
I3
sg25
I3
sg49
F0.0
sg26
S'A'
p3829
sg51
(lp3830
sg53
(lp3831
sg55
(lp3832
sg57
I0
sg58
g24
sg59
S'O'
p3833
sg61
F0.0
sg62
F0.0
sg63
I1
sg64
g3781
sg29
S'A'
p3834
sg66
F0.0
sg67
(lp3835
sg69
F0.0
sg70
I0
sg71
g24
sg9
S'O2P'
p3836
sg73
F0.0
sg74
(lp3837
sg76
g24
sg77
g24
sg78
F0.0
sg79
S'ATOM  '
p3838
sg81
S' '
p3839
sg83
g24
sg84
(lp3840
I0
aI0
aI0
asg31
S'DC'
p3841
sg86
(lp3842
F-8.532
aF2.61
aF-14.673
asg33
g3770
sg88
F1.0
sba(ipmx.atom
Atom
p3843
(dp3844
g38
(lp3845
sg40
I0
sg22
g3778
sg41
F0.0
sg42
g24
sg43
S" O5'"
p3846
sg45
S' '
p3847
sg47
g24
sg48
I4
sg25
I4
sg49
F0.0
sg26
S'A'
p3848
sg51
(lp3849
sg53
(lp3850
sg55
(lp3851
sg57
I0
sg58
g24
sg59
S'O'
p3852
sg61
F0.0
sg62
F0.0
sg63
I1
sg64
g3781
sg29
S'A'
p3853
sg66
F0.0
sg67
(lp3854
sg69
F0.0
sg70
I0
sg71
g24
sg9
S"O5'"
p3855
sg73
F0.0
sg74
(lp3856
sg76
g24
sg77
g24
sg78
F0.0
sg79
S'ATOM  '
p3857
sg81
S' '
p3858
sg83
g24
sg84
(lp3859
I0
aI0
aI0
asg31
S'DC'
p3860
sg86
(lp3861
F-6.642
aF4.095
aF-14.022
asg33
g3770
sg88
F1.0
sba(ipmx.atom
Atom
p3862
(dp3863
g38
(lp3864
sg40
I0
sg22
g3778
sg41
F0.0
sg42
g24
sg43
S" C5'"
p3865
sg45
S' '
p3866
sg47
g24
sg48
I5
sg25
I5
sg49
F0.0
sg26
S'A'
p3867
sg51
(lp3868
sg53
(lp3869
sg55
(lp3870
sg57
I0
sg58
g24
sg59
S'C'
p3871
sg61
F0.0
sg62
F0.0
sg63
I1
sg64
g3781
sg29
S'A'
p3872
sg66
F0.0
sg67
(lp3873
sg69
F0.0
sg70
I0
sg71
g24
sg9
S"C5'"
p3874
sg73
F0.0
sg74
(lp3875
sg76
g24
sg77
g24
sg78
F0.0
sg79
S'ATOM  '
p3876
sg81
S' '
p3877
sg83
g24
sg84
(lp3878
I0
aI0
aI0
asg31
S'DC'
p3879
sg86
(lp3880
F-5.969
aF4.936
aF-13.103
asg33
g3770
sg88
F1.0
sba(ipmx.atom
Atom
p3881
(dp3882
g38
(lp3883
sg40
I0
sg22
g3778
sg41
F0.0
sg42
g24
sg43
S"1H5'"
p3884
sg45
S' '
p3885
sg47
g24
sg48
I6
sg25
I6
sg49
F0.0
sg26
S'A'
p3886
sg51
(lp3887
sg53
(lp3888
sg55
(lp3889
sg57
I0
sg58
g24
sg59
S'H'
p3890
sg61
F0.0
sg62
F0.0
sg63
I1
sg64
g3781
sg29
S'A'
p3891
sg66
F0.0
sg67
(lp3892
sg69
F0.0
sg70
I0
sg71
g24
sg9
g177
sg73
F0.0
sg74
(lp3893
sg76
g24
sg77
g24
sg78
F0.0
sg79
S'ATOM  '
p3894
sg81
S' '
p3895
sg83
g24
sg84
(lp3896
I0
aI0
aI0
asg31
S'DC'
p3897
sg86
(lp3898
F-6.687
aF5.644
aF-12.687
asg33
g3770
sg88
F1.0
sba(ipmx.atom
Atom
p3899
(dp3900
g38
(lp3901
sg40
I0
sg22
g3778
sg41
F0.0
sg42
g24
sg43
S"2H5'"
p3902
sg45
S' '
p3903
sg47
g24
sg48
I7
sg25
I7
sg49
F0.0
sg26
S'A'
p3904
sg51
(lp3905
sg53
(lp3906
sg55
(lp3907
sg57
I0
sg58
g24
sg59
S'H'
p3908
sg61
F0.0
sg62
F0.0
sg63
I1
sg64
g3781
sg29
S'A'
p3909
sg66
F0.0
sg67
(lp3910
sg69
F0.0
sg70
I0
sg71
g24
sg9
g196
sg73
F0.0
sg74
(lp3911
sg76
g24
sg77
g24
sg78
F0.0
sg79
S'ATOM  '
p3912
sg81
S' '
p3913
sg83
g24
sg84
(lp3914
I0
aI0
aI0
asg31
S'DC'
p3915
sg86
(lp3916
F-5.612
aF4.33
aF-12.268
asg33
g3770
sg88
F1.0
sba(ipmx.atom
Atom
p3917
(dp3918
g38
(lp3919
sg40
I0
sg22
g3778
sg41
F0.0
sg42
g24
sg43
S" C4'"
p3920
sg45
S' '
p3921
sg47
g24
sg48
I8
sg25
I8
sg49
F0.0
sg26
S'A'
p3922
sg51
(lp3923
sg53
(lp3924
sg55
(lp3925
sg57
I0
sg58
g24
sg59
S'C'
p3926
sg61
F0.0
sg62
F0.0
sg63
I1
sg64
g3781
sg29
S'A'
p3927
sg66
F0.0
sg67
(lp3928
sg69
F0.0
sg70
I0
sg71
g24
sg9
S"C4'"
p3929
sg73
F0.0
sg74
(lp3930
sg76
g24
sg77
g24
sg78
F0.0
sg79
S'ATOM  '
p3931
sg81
S' '
p3932
sg83
g24
sg84
(lp3933
I0
aI0
aI0
asg31
S'DC'
p3934
sg86
(lp3935
F-4.798
aF5.705
aF-13.741
asg33
g3770
sg88
F1.0
sba(ipmx.atom
Atom
p3936
(dp3937
g38
(lp3938
sg40
I0
sg22
g3778
sg41
F0.0
sg42
g24
sg43
S" H4'"
p3939
sg45
S' '
p3940
sg47
g24
sg48
I9
sg25
I9
sg49
F0.0
sg26
S'A'
p3941
sg51
(lp3942
sg53
(lp3943
sg55
(lp3944
sg57
I0
sg58
g24
sg59
S'H'
p3945
sg61
F0.0
sg62
F0.0
sg63
I1
sg64
g3781
sg29
S'A'
p3946
sg66
F0.0
sg67
(lp3947
sg69
F0.0
sg70
I0
sg71
g24
sg9
S"H4'"
p3948
sg73
F0.0
sg74
(lp3949
sg76
g24
sg77
g24
sg78
F0.0
sg79
S'ATOM  '
p3950
sg81
S' '
p3951
sg83
g24
sg84
(lp3952
I0
aI0
aI0
asg31
S'DC'
p3953
sg86
(lp3954
F-4.593
aF6.55
aF-13.09
asg33
g3770
sg88
F1.0
sba(ipmx.atom
Atom
p3955
(dp3956
g38
(lp3957
sg40
I0
sg22
g3778
sg41
F0.0
sg42
g24
sg43
S" O4'"
p3958
sg45
S' '
p3959
sg47
g24
sg48
I10
sg25
I10
sg49
F0.0
sg26
S'A'
p3960
sg51
(lp3961
sg53
(lp3962
sg55
(lp3963
sg57
I0
sg58
g24
sg59
S'O'
p3964
sg61
F0.0
sg62
F0.0
sg63
I1
sg64
g3781
sg29
S'A'
p3965
sg66
F0.0
sg67
(lp3966
sg69
F0.0
sg70
I0
sg71
g24
sg9
S"O4'"
p3967
sg73
F0.0
sg74
(lp3968
sg76
g24
sg77
g24
sg78
F0.0
sg79
S'ATOM  '
p3969
sg81
S' '
p3970
sg83
g24
sg84
(lp3971
I0
aI0
aI0
asg31
S'DC'
p3972
sg86
(lp3973
F-3.671
aF4.83
aF-13.748
asg33
g3770
sg88
F1.0
sba(ipmx.atom
Atom
p3974
(dp3975
g38
(lp3976
sg40
I0
sg22
g3778
sg41
F0.0
sg42
g24
sg43
S" C1'"
p3977
sg45
S' '
p3978
sg47
g24
sg48
I11
sg25
I11
sg49
F0.0
sg26
S'A'
p3979
sg51
(lp3980
sg53
(lp3981
sg55
(lp3982
sg57
I0
sg58
g24
sg59
S'C'
p3983
sg61
F0.0
sg62
F0.0
sg63
I1
sg64
g3781
sg29
S'A'
p3984
sg66
F0.0
sg67
(lp3985
sg69
F0.0
sg70
I0
sg71
g24
sg9
S"C1'"
p3986
sg73
F0.0
sg74
(lp3987
sg76
g24
sg77
g24
sg78
F0.0
sg79
S'ATOM  '
p3988
sg81
S' '
p3989
sg83
g24
sg84
(lp3990
I0
aI0
aI0
asg31
S'DC'
p3991
sg86
(lp3992
F-3.473
aF4.343
aF-15.066
asg33
g3770
sg88
F1.0
sba(ipmx.atom
Atom
p3993
(dp3994
g38
(lp3995
sg40
I0
sg22
g3778
sg41
F0.0
sg42
g24
sg43
S" H1'"
p3996
sg45
S' '
p3997
sg47
g24
sg48
I12
sg25
I12
sg49
F0.0
sg26
S'A'
p3998
sg51
(lp3999
sg53
(lp4000
sg55
(lp4001
sg57
I0
sg58
g24
sg59
S'H'
p4002
sg61
F0.0
sg62
F0.0
sg63
I1
sg64
g3781
sg29
S'A'
p4003
sg66
F0.0
sg67
(lp4004
sg69
F0.0
sg70
I0
sg71
g24
sg9
S"H1'"
p4005
sg73
F0.0
sg74
(lp4006
sg76
g24
sg77
g24
sg78
F0.0
sg79
S'ATOM  '
p4007
sg81
S' '
p4008
sg83
g24
sg84
(lp4009
I0
aI0
aI0
asg31
S'DC'
p4010
sg86
(lp4011
F-2.536
aF4.762
aF-15.442
asg33
g3770
sg88
F1.0
sba(ipmx.atom
Atom
p4012
(dp4013
g38
(lp4014
sg40
I0
sg22
g3778
sg41
F0.0
sg42
g24
sg43
S' N1 '
p4015
sg45
S' '
p4016
sg47
g24
sg48
I13
sg25
I13
sg49
F0.0
sg26
S'A'
p4017
sg51
(lp4018
sg53
(lp4019
sg55
(lp4020
sg57
I0
sg58
g24
sg59
S'N'
p4021
sg61
F0.0
sg62
F0.0
sg63
I1
sg64
g3781
sg29
S'A'
p4022
sg66
F0.0
sg67
(lp4023
sg69
F0.0
sg70
I0
sg71
g24
sg9
S'N1'
p4024
sg73
F0.0
sg74
(lp4025
sg76
g24
sg77
g24
sg78
F0.0
sg79
S'ATOM  '
p4026
sg81
S' '
p4027
sg83
g24
sg84
(lp4028
I0
aI0
aI0
asg31
S'DC'
p4029
sg86
(lp4030
F-3.379
aF2.852
aF-15.078
asg33
g3770
sg88
F1.0
sba(ipmx.atom
Atom
p4031
(dp4032
g38
(lp4033
sg40
I0
sg22
g3778
sg41
F0.0
sg42
g24
sg43
S' C6 '
p4034
sg45
S' '
p4035
sg47
g24
sg48
I14
sg25
I14
sg49
F0.0
sg26
S'A'
p4036
sg51
(lp4037
sg53
(lp4038
sg55
(lp4039
sg57
I0
sg58
g24
sg59
S'C'
p4040
sg61
F0.0
sg62
F0.0
sg63
I1
sg64
g3781
sg29
S'A'
p4041
sg66
F0.0
sg67
(lp4042
sg69
F0.0
sg70
I0
sg71
g24
sg9
S'C6'
p4043
sg73
F0.0
sg74
(lp4044
sg76
g24
sg77
g24
sg78
F0.0
sg79
S'ATOM  '
p4045
sg81
S' '
p4046
sg83
g24
sg84
(lp4047
I0
aI0
aI0
asg31
S'DC'
p4048
sg86
(lp4049
F-4.499
aF2.06
aF-15.103
asg33
g3770
sg88
F1.0
sba(ipmx.atom
Atom
p4050
(dp4051
g38
(lp4052
sg40
I0
sg22
g3778
sg41
F0.0
sg42
g24
sg43
S' H6 '
p4053
sg45
S' '
p4054
sg47
g24
sg48
I15
sg25
I15
sg49
F0.0
sg26
S'A'
p4055
sg51
(lp4056
sg53
(lp4057
sg55
(lp4058
sg57
I0
sg58
g24
sg59
S'H'
p4059
sg61
F0.0
sg62
F0.0
sg63
I1
sg64
g3781
sg29
S'A'
p4060
sg66
F0.0
sg67
(lp4061
sg69
F0.0
sg70
I0
sg71
g24
sg9
S'H6'
p4062
sg73
F0.0
sg74
(lp4063
sg76
g24
sg77
g24
sg78
F0.0
sg79
S'ATOM  '
p4064
sg81
S' '
p4065
sg83
g24
sg84
(lp4066
I0
aI0
aI0
asg31
S'DC'
p4067
sg86
(lp4068
F-5.476
aF2.505
aF-15.103
asg33
g3770
sg88
F1.0
sba(ipmx.atom
Atom
p4069
(dp4070
g38
(lp4071
sg40
I0
sg22
g3778
sg41
F0.0
sg42
g24
sg43
S' C5 '
p4072
sg45
S' '
p4073
sg47
g24
sg48
I16
sg25
I16
sg49
F0.0
sg26
S'A'
p4074
sg51
(lp4075
sg53
(lp4076
sg55
(lp4077
sg57
I0
sg58
g24
sg59
S'C'
p4078
sg61
F0.0
sg62
F0.0
sg63
I1
sg64
g3781
sg29
S'A'
p4079
sg66
F0.0
sg67
(lp4080
sg69
F0.0
sg70
I0
sg71
g24
sg9
S'C5'
p4081
sg73
F0.0
sg74
(lp4082
sg76
g24
sg77
g24
sg78
F0.0
sg79
S'ATOM  '
p4083
sg81
S' '
p4084
sg83
g24
sg84
(lp4085
I0
aI0
aI0
asg31
S'DC'
p4086
sg86
(lp4087
F-4.403
aF0.713
aF-15.105
asg33
g3770
sg88
F1.0
sba(ipmx.atom
Atom
p4088
(dp4089
g38
(lp4090
sg40
I0
sg22
g3778
sg41
F0.0
sg42
g24
sg43
S' H5 '
p4091
sg45
S' '
p4092
sg47
g24
sg48
I17
sg25
I17
sg49
F0.0
sg26
S'A'
p4093
sg51
(lp4094
sg53
(lp4095
sg55
(lp4096
sg57
I0
sg58
g24
sg59
S'H'
p4097
sg61
F0.0
sg62
F0.0
sg63
I1
sg64
g3781
sg29
S'A'
p4098
sg66
F0.0
sg67
(lp4099
sg69
F0.0
sg70
I0
sg71
g24
sg9
S'H5'
p4100
sg73
F0.0
sg74
(lp4101
sg76
g24
sg77
g24
sg78
F0.0
sg79
S'ATOM  '
p4102
sg81
S' '
p4103
sg83
g24
sg84
(lp4104
I0
aI0
aI0
asg31
S'DC'
p4105
sg86
(lp4106
F-5.302
aF0.117
aF-15.103
asg33
g3770
sg88
F1.0
sba(ipmx.atom
Atom
p4107
(dp4108
g38
(lp4109
sg40
I0
sg22
g3778
sg41
F0.0
sg42
g24
sg43
S' C4 '
p4110
sg45
S' '
p4111
sg47
g24
sg48
I18
sg25
I18
sg49
F0.0
sg26
S'A'
p4112
sg51
(lp4113
sg53
(lp4114
sg55
(lp4115
sg57
I0
sg58
g24
sg59
S'C'
p4116
sg61
F0.0
sg62
F0.0
sg63
I1
sg64
g3781
sg29
S'A'
p4117
sg66
F0.0
sg67
(lp4118
sg69
F0.0
sg70
I0
sg71
g24
sg9
S'C4'
p4119
sg73
F0.0
sg74
(lp4120
sg76
g24
sg77
g24
sg78
F0.0
sg79
S'ATOM  '
p4121
sg81
S' '
p4122
sg83
g24
sg84
(lp4123
I0
aI0
aI0
asg31
S'DC'
p4124
sg86
(lp4125
F-3.102
aF0.167
aF-15.107
asg33
g3770
sg88
F1.0
sba(ipmx.atom
Atom
p4126
(dp4127
g38
(lp4128
sg40
I0
sg22
g3778
sg41
F0.0
sg42
g24
sg43
S' N4 '
p4129
sg45
S' '
p4130
sg47
g24
sg48
I19
sg25
I19
sg49
F0.0
sg26
S'A'
p4131
sg51
(lp4132
sg53
(lp4133
sg55
(lp4134
sg57
I0
sg58
g24
sg59
S'N'
p4135
sg61
F0.0
sg62
F0.0
sg63
I1
sg64
g3781
sg29
S'A'
p4136
sg66
F0.0
sg67
(lp4137
sg69
F0.0
sg70
I0
sg71
g24
sg9
S'N4'
p4138
sg73
F0.0
sg74
(lp4139
sg76
g24
sg77
g24
sg78
F0.0
sg79
S'ATOM  '
p4140
sg81
S' '
p4141
sg83
g24
sg84
(lp4142
I0
aI0
aI0
asg31
S'DC'
p4143
sg86
(lp4144
F-2.964
aF-1.122
aF-15.087
asg33
g3770
sg88
F1.0
sba(ipmx.atom
Atom
p4145
(dp4146
g38
(lp4147
sg40
I0
sg22
g3778
sg41
F0.0
sg42
g24
sg43
S' H41'
p4148
sg45
S' '
p4149
sg47
g24
sg48
I20
sg25
I20
sg49
F0.0
sg26
S'A'
p4150
sg51
(lp4151
sg53
(lp4152
sg55
(lp4153
sg57
I0
sg58
g24
sg59
S'H'
p4154
sg61
F0.0
sg62
F0.0
sg63
I1
sg64
g3781
sg29
S'A'
p4155
sg66
F0.0
sg67
(lp4156
sg69
F0.0
sg70
I0
sg71
g24
sg9
S'H41'
p4157
sg73
F0.0
sg74
(lp4158
sg76
g24
sg77
g24
sg78
F0.0
sg79
S'ATOM  '
p4159
sg81
S' '
p4160
sg83
g24
sg84
(lp4161
I0
aI0
aI0
asg31
S'DC'
p4162
sg86
(lp4163
F-2.025
aF-1.502
aF-15.11
asg33
g3770
sg88
F1.0
sba(ipmx.atom
Atom
p4164
(dp4165
g38
(lp4166
sg40
I0
sg22
g3778
sg41
F0.0
sg42
g24
sg43
S' H42'
p4167
sg45
S' '
p4168
sg47
g24
sg48
I21
sg25
I21
sg49
F0.0
sg26
S'A'
p4169
sg51
(lp4170
sg53
(lp4171
sg55
(lp4172
sg57
I0
sg58
g24
sg59
S'H'
p4173
sg61
F0.0
sg62
F0.0
sg63
I1
sg64
g3781
sg29
S'A'
p4174
sg66
F0.0
sg67
(lp4175
sg69
F0.0
sg70
I0
sg71
g24
sg9
S'H42'
p4176
sg73
F0.0
sg74
(lp4177
sg76
g24
sg77
g24
sg78
F0.0
sg79
S'ATOM  '
p4178
sg81
S' '
p4179
sg83
g24
sg84
(lp4180
I0
aI0
aI0
asg31
S'DC'
p4181
sg86
(lp4182
F-3.761
aF-1.719
aF-15.082
asg33
g3770
sg88
F1.0
sba(ipmx.atom
Atom
p4183
(dp4184
g38
(lp4185
sg40
I0
sg22
g3778
sg41
F0.0
sg42
g24
sg43
S' N3 '
p4186
sg45
S' '
p4187
sg47
g24
sg48
I22
sg25
I22
sg49
F0.0
sg26
S'A'
p4188
sg51
(lp4189
sg53
(lp4190
sg55
(lp4191
sg57
I0
sg58
g24
sg59
S'N'
p4192
sg61
F0.0
sg62
F0.0
sg63
I1
sg64
g3781
sg29
S'A'
p4193
sg66
F0.0
sg67
(lp4194
sg69
F0.0
sg70
I0
sg71
g24
sg9
S'N3'
p4195
sg73
F0.0
sg74
(lp4196
sg76
g24
sg77
g24
sg78
F0.0
sg79
S'ATOM  '
p4197
sg81
S' '
p4198
sg83
g24
sg84
(lp4199
I0
aI0
aI0
asg31
S'DC'
p4200
sg86
(lp4201
F-2.002
aF0.888
aF-15.098
asg33
g3770
sg88
F1.0
sba(ipmx.atom
Atom
p4202
(dp4203
g38
(lp4204
sg40
I0
sg22
g3778
sg41
F0.0
sg42
g24
sg43
S' C2 '
p4205
sg45
S' '
p4206
sg47
g24
sg48
I23
sg25
I23
sg49
F0.0
sg26
S'A'
p4207
sg51
(lp4208
sg53
(lp4209
sg55
(lp4210
sg57
I0
sg58
g24
sg59
S'C'
p4211
sg61
F0.0
sg62
F0.0
sg63
I1
sg64
g3781
sg29
S'A'
p4212
sg66
F0.0
sg67
(lp4213
sg69
F0.0
sg70
I0
sg71
g24
sg9
S'C2'
p4214
sg73
F0.0
sg74
(lp4215
sg76
g24
sg77
g24
sg78
F0.0
sg79
S'ATOM  '
p4216
sg81
S' '
p4217
sg83
g24
sg84
(lp4218
I0
aI0
aI0
asg31
S'DC'
p4219
sg86
(lp4220
F-2.12
aF2.242
aF-15.082
asg33
g3770
sg88
F1.0
sba(ipmx.atom
Atom
p4221
(dp4222
g38
(lp4223
sg40
I0
sg22
g3778
sg41
F0.0
sg42
g24
sg43
S' O  '
p4224
sg45
S' '
p4225
sg47
g24
sg48
I24
sg25
I24
sg49
F0.0
sg26
S'A'
p4226
sg51
(lp4227
sg53
(lp4228
sg55
(lp4229
sg57
I0
sg58
g24
sg59
S'O'
p4230
sg61
F0.0
sg62
F0.0
sg63
I1
sg64
g3781
sg29
S'A'
p4231
sg66
F0.0
sg67
(lp4232
sg69
F0.0
sg70
I0
sg71
g24
sg9
g557
sg73
F0.0
sg74
(lp4233
sg76
g24
sg77
g24
sg78
F0.0
sg79
S'ATOM  '
p4234
sg81
S' '
p4235
sg83
g24
sg84
(lp4236
I0
aI0
aI0
asg31
S'DC'
p4237
sg86
(lp4238
F-1.074
aF2.89
aF-15.083
asg33
g3770
sg88
F1.0
sba(ipmx.atom
Atom
p4239
(dp4240
g38
(lp4241
sg40
I0
sg22
g3778
sg41
F0.0
sg42
g24
sg43
S" C3'"
p4242
sg45
S' '
p4243
sg47
g24
sg48
I25
sg25
I25
sg49
F0.0
sg26
S'A'
p4244
sg51
(lp4245
sg53
(lp4246
sg55
(lp4247
sg57
I0
sg58
g24
sg59
S'C'
p4248
sg61
F0.0
sg62
F0.0
sg63
I1
sg64
g3781
sg29
S'A'
p4249
sg66
F0.0
sg67
(lp4250
sg69
F0.0
sg70
I0
sg71
g24
sg9
S"C3'"
p4251
sg73
F0.0
sg74
(lp4252
sg76
g24
sg77
g24
sg78
F0.0
sg79
S'ATOM  '
p4253
sg81
S' '
p4254
sg83
g24
sg84
(lp4255
I0
aI0
aI0
asg31
S'DC'
p4256
sg86
(lp4257
F-5.079
aF6.172
aF-15.201
asg33
g3770
sg88
F1.0
sba(ipmx.atom
Atom
p4258
(dp4259
g38
(lp4260
sg40
I0
sg22
g3778
sg41
F0.0
sg42
g24
sg43
S" H3'"
p4261
sg45
S' '
p4262
sg47
g24
sg48
I26
sg25
I26
sg49
F0.0
sg26
S'A'
p4263
sg51
(lp4264
sg53
(lp4265
sg55
(lp4266
sg57
I0
sg58
g24
sg59
S'H'
p4267
sg61
F0.0
sg62
F0.0
sg63
I1
sg64
g3781
sg29
S'A'
p4268
sg66
F0.0
sg67
(lp4269
sg69
F0.0
sg70
I0
sg71
g24
sg9
S"H3'"
p4270
sg73
F0.0
sg74
(lp4271
sg76
g24
sg77
g24
sg78
F0.0
sg79
S'ATOM  '
p4272
sg81
S' '
p4273
sg83
g24
sg84
(lp4274
I0
aI0
aI0
asg31
S'DC'
p4275
sg86
(lp4276
F-6.149
aF6.309
aF-15.331
asg33
g3770
sg88
F1.0
sba(ipmx.atom
Atom
p4277
(dp4278
g38
(lp4279
sg40
I0
sg22
g3778
sg41
F0.0
sg42
g24
sg43
S" C2'"
p4280
sg45
S' '
p4281
sg47
g24
sg48
I27
sg25
I27
sg49
F0.0
sg26
S'A'
p4282
sg51
(lp4283
sg53
(lp4284
sg55
(lp4285
sg57
I0
sg58
g24
sg59
S'C'
p4286
sg61
F0.0
sg62
F0.0
sg63
I1
sg64
g3781
sg29
S'A'
p4287
sg66
F0.0
sg67
(lp4288
sg69
F0.0
sg70
I0
sg71
g24
sg9
S"C2'"
p4289
sg73
F0.0
sg74
(lp4290
sg76
g24
sg77
g24
sg78
F0.0
sg79
S'ATOM  '
p4291
sg81
S' '
p4292
sg83
g24
sg84
(lp4293
I0
aI0
aI0
asg31
S'DC'
p4294
sg86
(lp4295
F-4.6
aF4.92
aF-15.935
asg33
g3770
sg88
F1.0
sba(ipmx.atom
Atom
p4296
(dp4297
g38
(lp4298
sg40
I0
sg22
g3778
sg41
F0.0
sg42
g24
sg43
S"1H2'"
p4299
sg45
S' '
p4300
sg47
g24
sg48
I28
sg25
I28
sg49
F0.0
sg26
S'A'
p4301
sg51
(lp4302
sg53
(lp4303
sg55
(lp4304
sg57
I0
sg58
g24
sg59
S'H'
p4305
sg61
F0.0
sg62
F0.0
sg63
I1
sg64
g3781
sg29
S'A'
p4306
sg66
F0.0
sg67
(lp4307
sg69
F0.0
sg70
I0
sg71
g24
sg9
g633
sg73
F0.0
sg74
(lp4308
sg76
g24
sg77
g24
sg78
F0.0
sg79
S'ATOM  '
p4309
sg81
S' '
p4310
sg83
g24
sg84
(lp4311
I0
aI0
aI0
asg31
S'DC'
p4312
sg86
(lp4313
F-5.439
aF4.247
aF-16.067
asg33
g3770
sg88
F1.0
sba(ipmx.atom
Atom
p4314
(dp4315
g38
(lp4316
sg40
I0
sg22
g3778
sg41
F0.0
sg42
g24
sg43
S"2H2'"
p4317
sg45
S' '
p4318
sg47
g24
sg48
I29
sg25
I29
sg49
F0.0
sg26
S'A'
p4319
sg51
(lp4320
sg53
(lp4321
sg55
(lp4322
sg57
I0
sg58
g24
sg59
S'H'
p4323
sg61
F0.0
sg62
F0.0
sg63
I1
sg64
g3781
sg29
S'A'
p4324
sg66
F0.0
sg67
(lp4325
sg69
F0.0
sg70
I0
sg71
g24
sg9
g652
sg73
F0.0
sg74
(lp4326
sg76
g24
sg77
g24
sg78
F0.0
sg79
S'ATOM  '
p4327
sg81
S' '
p4328
sg83
g24
sg84
(lp4329
I0
aI0
aI0
asg31
S'DC'
p4330
sg86
(lp4331
F-4.252
aF5.125
aF-16.925
asg33
g3770
sg88
F1.0
sba(ipmx.atom
Atom
p4332
(dp4333
g38
(lp4334
sg40
I0
sg22
g3778
sg41
F0.0
sg42
g24
sg43
S" O3'"
p4335
sg45
S' '
p4336
sg47
g24
sg48
I30
sg25
I30
sg49
F0.0
sg26
S'A'
p4337
sg51
(lp4338
sg53
(lp4339
sg55
(lp4340
sg57
I0
sg58
g24
sg59
S'O'
p4341
sg61
F0.0
sg62
F0.0
sg63
I1
sg64
g3781
sg29
S'A'
p4342
sg66
F0.0
sg67
(lp4343
sg69
F0.0
sg70
I0
sg71
g24
sg9
S"O3'"
p4344
sg73
F0.0
sg74
(lp4345
sg76
g24
sg77
g24
sg78
F0.0
sg79
S'ATOM  '
p4346
sg81
S' '
p4347
sg83
g24
sg84
(lp4348
I0
aI0
aI0
asg31
S'DC'
p4349
sg86
(lp4350
F-4.469
aF7.398
aF-15.643
asg33
g3770
sg88
F1.0
sbasg48
I1
sg678
Nsbasg34
(lp4351
g3787
ag3805
ag3824
ag3843
ag3862
ag3881
ag3899
ag3917
ag3936
ag3955
ag3974
ag3993
ag4012
ag4031
ag4050
ag4069
ag4088
ag4107
ag4126
ag4145
ag4164
ag4183
ag4202
ag4221
ag4239
ag4258
ag4277
ag4296
ag4314
ag4332
asg680
I0
sg29
S'A'
p4352
sg33
g3770
sg682
I00
sg48
S'A'
p4353
sbsS'B'
p4354
(ipmx.chain
Chain
p4355
(dp4356
g17
(lp4357
(ipmx.molecule
Molecule
p4358
(dp4359
g21
I0
sg22
g4355
sg23
g24
sg25
I2
sg26
S'B'
p4360
sg28
Nsg29
S'A'
p4361
sg31
S'DG'
p4362
sg33
g3770
sg34
(lp4363
(ipmx.atom
Atom
p4364
(dp4365
g38
(lp4366
sg40
I0
sg22
g4355
sg41
F0.0
sg42
g24
sg43
S' P  '
p4367
sg45
S' '
p4368
sg47
g24
sg48
I31
sg25
I31
sg49
F0.0
sg26
S'B'
p4369
sg51
(lp4370
sg53
(lp4371
sg55
(lp4372
sg57
I0
sg58
g24
sg59
S'P'
p4373
sg61
F0.0
sg62
F0.0
sg63
I2
sg64
g4358
sg29
S'A'
p4374
sg66
F0.0
sg67
(lp4375
sg69
F0.0
sg70
I0
sg71
g24
sg9
S'P'
p4376
sg73
F0.0
sg74
(lp4377
sg76
g24
sg77
g24
sg78
F0.0
sg79
S'ATOM  '
p4378
sg81
S' '
p4379
sg83
g24
sg84
(lp4380
I0
aI0
aI0
asg31
g4362
sg86
(lp4381
F6.714
aF-6.277
aF-16.301
asg33
g3770
sg88
F1.0
sba(ipmx.atom
Atom
p4382
(dp4383
g38
(lp4384
sg40
I0
sg22
g4355
sg41
F0.0
sg42
g24
sg43
S' O1P'
p4385
sg45
S' '
p4386
sg47
g24
sg48
I32
sg25
I32
sg49
F0.0
sg26
S'B'
p4387
sg51
(lp4388
sg53
(lp4389
sg55
(lp4390
sg57
I0
sg58
g24
sg59
S'O'
p4391
sg61
F0.0
sg62
F0.0
sg63
I2
sg64
g4358
sg29
S'A'
p4392
sg66
F0.0
sg67
(lp4393
sg69
F0.0
sg70
I0
sg71
g24
sg9
S'O1P'
p4394
sg73
F0.0
sg74
(lp4395
sg76
g24
sg77
g24
sg78
F0.0
sg79
S'ATOM  '
p4396
sg81
S' '
p4397
sg83
g24
sg84
(lp4398
I0
aI0
aI0
asg31
S'DG'
p4399
sg86
(lp4400
F8.207
aF-6.451
aF-16.209
asg33
g3770
sg88
F1.0
sba(ipmx.atom
Atom
p4401
(dp4402
g38
(lp4403
sg40
I0
sg22
g4355
sg41
F0.0
sg42
g24
sg43
S' O2P'
p4404
sg45
S' '
p4405
sg47
g24
sg48
I33
sg25
I33
sg49
F0.0
sg26
S'B'
p4406
sg51
(lp4407
sg53
(lp4408
sg55
(lp4409
sg57
I0
sg58
g24
sg59
S'O'
p4410
sg61
F0.0
sg62
F0.0
sg63
I2
sg64
g4358
sg29
S'A'
p4411
sg66
F0.0
sg67
(lp4412
sg69
F0.0
sg70
I0
sg71
g24
sg9
S'O2P'
p4413
sg73
F0.0
sg74
(lp4414
sg76
g24
sg77
g24
sg78
F0.0
sg79
S'ATOM  '
p4415
sg81
S' '
p4416
sg83
g24
sg84
(lp4417
I0
aI0
aI0
asg31
S'DG'
p4418
sg86
(lp4419
F5.823
aF-7.057
aF-15.462
asg33
g3770
sg88
F1.0
sba(ipmx.atom
Atom
p4420
(dp4421
g38
(lp4422
sg40
I0
sg22
g4355
sg41
F0.0
sg42
g24
sg43
S" O5'"
p4423
sg45
S' '
p4424
sg47
g24
sg48
I34
sg25
I34
sg49
F0.0
sg26
S'B'
p4425
sg51
(lp4426
sg53
(lp4427
sg55
(lp4428
sg57
I0
sg58
g24
sg59
S'O'
p4429
sg61
F0.0
sg62
F0.0
sg63
I2
sg64
g4358
sg29
S'A'
p4430
sg66
F0.0
sg67
(lp4431
sg69
F0.0
sg70
I0
sg71
g24
sg9
S"O5'"
p4432
sg73
F0.0
sg74
(lp4433
sg76
g24
sg77
g24
sg78
F0.0
sg79
S'ATOM  '
p4434
sg81
S' '
p4435
sg83
g24
sg84
(lp4436
I0
aI0
aI0
asg31
S'DG'
p4437
sg86
(lp4438
F6.451
aF-4.713
aF-16.12
asg33
g3770
sg88
F1.0
sba(ipmx.atom
Atom
p4439
(dp4440
g38
(lp4441
sg40
I0
sg22
g4355
sg41
F0.0
sg42
g24
sg43
S" C5'"
p4442
sg45
S' '
p4443
sg47
g24
sg48
I35
sg25
I35
sg49
F0.0
sg26
S'B'
p4444
sg51
(lp4445
sg53
(lp4446
sg55
(lp4447
sg57
I0
sg58
g24
sg59
S'C'
p4448
sg61
F0.0
sg62
F0.0
sg63
I2
sg64
g4358
sg29
S'A'
p4449
sg66
F0.0
sg67
(lp4450
sg69
F0.0
sg70
I0
sg71
g24
sg9
S"C5'"
p4451
sg73
F0.0
sg74
(lp4452
sg76
g24
sg77
g24
sg78
F0.0
sg79
S'ATOM  '
p4453
sg81
S' '
p4454
sg83
g24
sg84
(lp4455
I0
aI0
aI0
asg31
S'DG'
p4456
sg86
(lp4457
F7.053
aF-3.742
aF-16.976
asg33
g3770
sg88
F1.0
sba(ipmx.atom
Atom
p4458
(dp4459
g38
(lp4460
sg40
I0
sg22
g4355
sg41
F0.0
sg42
g24
sg43
S"1H5'"
p4461
sg45
S' '
p4462
sg47
g24
sg48
I36
sg25
I36
sg49
F0.0
sg26
S'B'
p4463
sg51
(lp4464
sg53
(lp4465
sg55
(lp4466
sg57
I0
sg58
g24
sg59
S'H'
p4467
sg61
F0.0
sg62
F0.0
sg63
I2
sg64
g4358
sg29
S'A'
p4468
sg66
F0.0
sg67
(lp4469
sg69
F0.0
sg70
I0
sg71
g24
sg9
g177
sg73
F0.0
sg74
(lp4470
sg76
g24
sg77
g24
sg78
F0.0
sg79
S'ATOM  '
p4471
sg81
S' '
p4472
sg83
g24
sg84
(lp4473
I0
aI0
aI0
asg31
S'DG'
p4474
sg86
(lp4475
F8.002
aF-4.124
aF-17.362
asg33
g3770
sg88
F1.0
sba(ipmx.atom
Atom
p4476
(dp4477
g38
(lp4478
sg40
I0
sg22
g4355
sg41
F0.0
sg42
g24
sg43
S"2H5'"
p4479
sg45
S' '
p4480
sg47
g24
sg48
I37
sg25
I37
sg49
F0.0
sg26
S'B'
p4481
sg51
(lp4482
sg53
(lp4483
sg55
(lp4484
sg57
I0
sg58
g24
sg59
S'H'
p4485
sg61
F0.0
sg62
F0.0
sg63
I2
sg64
g4358
sg29
S'A'
p4486
sg66
F0.0
sg67
(lp4487
sg69
F0.0
sg70
I0
sg71
g24
sg9
g196
sg73
F0.0
sg74
(lp4488
sg76
g24
sg77
g24
sg78
F0.0
sg79
S'ATOM  '
p4489
sg81
S' '
p4490
sg83
g24
sg84
(lp4491
I0
aI0
aI0
asg31
S'DG'
p4492
sg86
(lp4493
F6.401
aF-3.577
aF-17.835
asg33
g3770
sg88
F1.0
sba(ipmx.atom
Atom
p4494
(dp4495
g38
(lp4496
sg40
I0
sg22
g4355
sg41
F0.0
sg42
g24
sg43
S" C4'"
p4497
sg45
S' '
p4498
sg47
g24
sg48
I38
sg25
I38
sg49
F0.0
sg26
S'B'
p4499
sg51
(lp4500
sg53
(lp4501
sg55
(lp4502
sg57
I0
sg58
g24
sg59
S'C'
p4503
sg61
F0.0
sg62
F0.0
sg63
I2
sg64
g4358
sg29
S'A'
p4504
sg66
F0.0
sg67
(lp4505
sg69
F0.0
sg70
I0
sg71
g24
sg9
S"C4'"
p4506
sg73
F0.0
sg74
(lp4507
sg76
g24
sg77
g24
sg78
F0.0
sg79
S'ATOM  '
p4508
sg81
S' '
p4509
sg83
g24
sg84
(lp4510
I0
aI0
aI0
asg31
S'DG'
p4511
sg86
(lp4512
F7.316
aF-2.39
aF-16.289
asg33
g3770
sg88
F1.0
sba(ipmx.atom
Atom
p4513
(dp4514
g38
(lp4515
sg40
I0
sg22
g4355
sg41
F0.0
sg42
g24
sg43
S" H4'"
p4516
sg45
S' '
p4517
sg47
g24
sg48
I39
sg25
I39
sg49
F0.0
sg26
S'B'
p4518
sg51
(lp4519
sg53
(lp4520
sg55
(lp4521
sg57
I0
sg58
g24
sg59
S'H'
p4522
sg61
F0.0
sg62
F0.0
sg63
I2
sg64
g4358
sg29
S'A'
p4523
sg66
F0.0
sg67
(lp4524
sg69
F0.0
sg70
I0
sg71
g24
sg9
S"H4'"
p4525
sg73
F0.0
sg74
(lp4526
sg76
g24
sg77
g24
sg78
F0.0
sg79
S'ATOM  '
p4527
sg81
S' '
p4528
sg83
g24
sg84
(lp4529
I0
aI0
aI0
asg31
S'DG'
p4530
sg86
(lp4531
F8.059
aF-1.851
aF-16.865
asg33
g3770
sg88
F1.0
sba(ipmx.atom
Atom
p4532
(dp4533
g38
(lp4534
sg40
I0
sg22
g4355
sg41
F0.0
sg42
g24
sg43
S" O4'"
p4535
sg45
S' '
p4536
sg47
g24
sg48
I40
sg25
I40
sg49
F0.0
sg26
S'B'
p4537
sg51
(lp4538
sg53
(lp4539
sg55
(lp4540
sg57
I0
sg58
g24
sg59
S'O'
p4541
sg61
F0.0
sg62
F0.0
sg63
I2
sg64
g4358
sg29
S'A'
p4542
sg66
F0.0
sg67
(lp4543
sg69
F0.0
sg70
I0
sg71
g24
sg9
S"O4'"
p4544
sg73
F0.0
sg74
(lp4545
sg76
g24
sg77
g24
sg78
F0.0
sg79
S'ATOM  '
p4546
sg81
S' '
p4547
sg83
g24
sg84
(lp4548
I0
aI0
aI0
asg31
S'DG'
p4549
sg86
(lp4550
F6.1
aF-1.634
aF-16.286
asg33
g3770
sg88
F1.0
sba(ipmx.atom
Atom
p4551
(dp4552
g38
(lp4553
sg40
I0
sg22
g4355
sg41
F0.0
sg42
g24
sg43
S" C1'"
p4554
sg45
S' '
p4555
sg47
g24
sg48
I41
sg25
I41
sg49
F0.0
sg26
S'B'
p4556
sg51
(lp4557
sg53
(lp4558
sg55
(lp4559
sg57
I0
sg58
g24
sg59
S'C'
p4560
sg61
F0.0
sg62
F0.0
sg63
I2
sg64
g4358
sg29
S'A'
p4561
sg66
F0.0
sg67
(lp4562
sg69
F0.0
sg70
I0
sg71
g24
sg9
S"C1'"
p4563
sg73
F0.0
sg74
(lp4564
sg76
g24
sg77
g24
sg78
F0.0
sg79
S'ATOM  '
p4565
sg81
S' '
p4566
sg83
g24
sg84
(lp4567
I0
aI0
aI0
asg31
S'DG'
p4568
sg86
(lp4569
F5.527
aF-1.697
aF-14.998
asg33
g3770
sg88
F1.0
sba(ipmx.atom
Atom
p4570
(dp4571
g38
(lp4572
sg40
I0
sg22
g4355
sg41
F0.0
sg42
g24
sg43
S" H1'"
p4573
sg45
S' '
p4574
sg47
g24
sg48
I42
sg25
I42
sg49
F0.0
sg26
S'B'
p4575
sg51
(lp4576
sg53
(lp4577
sg55
(lp4578
sg57
I0
sg58
g24
sg59
S'H'
p4579
sg61
F0.0
sg62
F0.0
sg63
I2
sg64
g4358
sg29
S'A'
p4580
sg66
F0.0
sg67
(lp4581
sg69
F0.0
sg70
I0
sg71
g24
sg9
S"H1'"
p4582
sg73
F0.0
sg74
(lp4583
sg76
g24
sg77
g24
sg78
F0.0
sg79
S'ATOM  '
p4584
sg81
S' '
p4585
sg83
g24
sg84
(lp4586
I0
aI0
aI0
asg31
S'DG'
p4587
sg86
(lp4588
F5.527
aF-0.713
aF-14.531
asg33
g3770
sg88
F1.0
sba(ipmx.atom
Atom
p4589
(dp4590
g38
(lp4591
sg40
I0
sg22
g4355
sg41
F0.0
sg42
g24
sg43
S' N9 '
p4592
sg45
S' '
p4593
sg47
g24
sg48
I43
sg25
I43
sg49
F0.0
sg26
S'B'
p4594
sg51
(lp4595
sg53
(lp4596
sg55
(lp4597
sg57
I0
sg58
g24
sg59
S'N'
p4598
sg61
F0.0
sg62
F0.0
sg63
I2
sg64
g4358
sg29
S'A'
p4599
sg66
F0.0
sg67
(lp4600
sg69
F0.0
sg70
I0
sg71
g24
sg9
S'N9'
p4601
sg73
F0.0
sg74
(lp4602
sg76
g24
sg77
g24
sg78
F0.0
sg79
S'ATOM  '
p4603
sg81
S' '
p4604
sg83
g24
sg84
(lp4605
I0
aI0
aI0
asg31
S'DG'
p4606
sg86
(lp4607
F4.124
aF-2.185
aF-15.037
asg33
g3770
sg88
F1.0
sba(ipmx.atom
Atom
p4608
(dp4609
g38
(lp4610
sg40
I0
sg22
g4355
sg41
F0.0
sg42
g24
sg43
S' C8 '
p4611
sg45
S' '
p4612
sg47
g24
sg48
I44
sg25
I44
sg49
F0.0
sg26
S'B'
p4613
sg51
(lp4614
sg53
(lp4615
sg55
(lp4616
sg57
I0
sg58
g24
sg59
S'C'
p4617
sg61
F0.0
sg62
F0.0
sg63
I2
sg64
g4358
sg29
S'A'
p4618
sg66
F0.0
sg67
(lp4619
sg69
F0.0
sg70
I0
sg71
g24
sg9
S'C8'
p4620
sg73
F0.0
sg74
(lp4621
sg76
g24
sg77
g24
sg78
F0.0
sg79
S'ATOM  '
p4622
sg81
S' '
p4623
sg83
g24
sg84
(lp4624
I0
aI0
aI0
asg31
S'DG'
p4625
sg86
(lp4626
F3.637
aF-3.466
aF-15.084
asg33
g3770
sg88
F1.0
sba(ipmx.atom
Atom
p4627
(dp4628
g38
(lp4629
sg40
I0
sg22
g4355
sg41
F0.0
sg42
g24
sg43
S' H8 '
p4630
sg45
S' '
p4631
sg47
g24
sg48
I45
sg25
I45
sg49
F0.0
sg26
S'B'
p4632
sg51
(lp4633
sg53
(lp4634
sg55
(lp4635
sg57
I0
sg58
g24
sg59
S'H'
p4636
sg61
F0.0
sg62
F0.0
sg63
I2
sg64
g4358
sg29
S'A'
p4637
sg66
F0.0
sg67
(lp4638
sg69
F0.0
sg70
I0
sg71
g24
sg9
S'H8'
p4639
sg73
F0.0
sg74
(lp4640
sg76
g24
sg77
g24
sg78
F0.0
sg79
S'ATOM  '
p4641
sg81
S' '
p4642
sg83
g24
sg84
(lp4643
I0
aI0
aI0
asg31
S'DG'
p4644
sg86
(lp4645
F4.289
aF-4.327
aF-15.084
asg33
g3770
sg88
F1.0
sba(ipmx.atom
Atom
p4646
(dp4647
g38
(lp4648
sg40
I0
sg22
g4355
sg41
F0.0
sg42
g24
sg43
S' N7 '
p4649
sg45
S' '
p4650
sg47
g24
sg48
I46
sg25
I46
sg49
F0.0
sg26
S'B'
p4651
sg51
(lp4652
sg53
(lp4653
sg55
(lp4654
sg57
I0
sg58
g24
sg59
S'N'
p4655
sg61
F0.0
sg62
F0.0
sg63
I2
sg64
g4358
sg29
S'A'
p4656
sg66
F0.0
sg67
(lp4657
sg69
F0.0
sg70
I0
sg71
g24
sg9
S'N7'
p4658
sg73
F0.0
sg74
(lp4659
sg76
g24
sg77
g24
sg78
F0.0
sg79
S'ATOM  '
p4660
sg81
S' '
p4661
sg83
g24
sg84
(lp4662
I0
aI0
aI0
asg31
S'DG'
p4663
sg86
(lp4664
F2.336
aF-3.552
aF-15.151
asg33
g3770
sg88
F1.0
sba(ipmx.atom
Atom
p4665
(dp4666
g38
(lp4667
sg40
I0
sg22
g4355
sg41
F0.0
sg42
g24
sg43
S' C5 '
p4668
sg45
S' '
p4669
sg47
g24
sg48
I47
sg25
I47
sg49
F0.0
sg26
S'B'
p4670
sg51
(lp4671
sg53
(lp4672
sg55
(lp4673
sg57
I0
sg58
g24
sg59
S'C'
p4674
sg61
F0.0
sg62
F0.0
sg63
I2
sg64
g4358
sg29
S'A'
p4675
sg66
F0.0
sg67
(lp4676
sg69
F0.0
sg70
I0
sg71
g24
sg9
S'C5'
p4677
sg73
F0.0
sg74
(lp4678
sg76
g24
sg77
g24
sg78
F0.0
sg79
S'ATOM  '
p4679
sg81
S' '
p4680
sg83
g24
sg84
(lp4681
I0
aI0
aI0
asg31
S'DG'
p4682
sg86
(lp4683
F1.926
aF-2.218
aF-15.105
asg33
g3770
sg88
F1.0
sba(ipmx.atom
Atom
p4684
(dp4685
g38
(lp4686
sg40
I0
sg22
g4355
sg41
F0.0
sg42
g24
sg43
S' C6 '
p4687
sg45
S' '
p4688
sg47
g24
sg48
I48
sg25
I48
sg49
F0.0
sg26
S'B'
p4689
sg51
(lp4690
sg53
(lp4691
sg55
(lp4692
sg57
I0
sg58
g24
sg59
S'C'
p4693
sg61
F0.0
sg62
F0.0
sg63
I2
sg64
g4358
sg29
S'A'
p4694
sg66
F0.0
sg67
(lp4695
sg69
F0.0
sg70
I0
sg71
g24
sg9
S'C6'
p4696
sg73
F0.0
sg74
(lp4697
sg76
g24
sg77
g24
sg78
F0.0
sg79
S'ATOM  '
p4698
sg81
S' '
p4699
sg83
g24
sg84
(lp4700
I0
aI0
aI0
asg31
S'DG'
p4701
sg86
(lp4702
F0.622
aF-1.634
aF-15.117
asg33
g3770
sg88
F1.0
sba(ipmx.atom
Atom
p4703
(dp4704
g38
(lp4705
sg40
I0
sg22
g4355
sg41
F0.0
sg42
g24
sg43
S' O6 '
p4706
sg45
S' '
p4707
sg47
g24
sg48
I49
sg25
I49
sg49
F0.0
sg26
S'B'
p4708
sg51
(lp4709
sg53
(lp4710
sg55
(lp4711
sg57
I0
sg58
g24
sg59
S'O'
p4712
sg61
F0.0
sg62
F0.0
sg63
I2
sg64
g4358
sg29
S'A'
p4713
sg66
F0.0
sg67
(lp4714
sg69
F0.0
sg70
I0
sg71
g24
sg9
S'O6'
p4715
sg73
F0.0
sg74
(lp4716
sg76
g24
sg77
g24
sg78
F0.0
sg79
S'ATOM  '
p4717
sg81
S' '
p4718
sg83
g24
sg84
(lp4719
I0
aI0
aI0
asg31
S'DG'
p4720
sg86
(lp4721
F-0.467
aF-2.198
aF-15.178
asg33
g3770
sg88
F1.0
sba(ipmx.atom
Atom
p4722
(dp4723
g38
(lp4724
sg40
I0
sg22
g4355
sg41
F0.0
sg42
g24
sg43
S' N1 '
p4725
sg45
S' '
p4726
sg47
g24
sg48
I50
sg25
I50
sg49
F0.0
sg26
S'B'
p4727
sg51
(lp4728
sg53
(lp4729
sg55
(lp4730
sg57
I0
sg58
g24
sg59
S'N'
p4731
sg61
F0.0
sg62
F0.0
sg63
I2
sg64
g4358
sg29
S'A'
p4732
sg66
F0.0
sg67
(lp4733
sg69
F0.0
sg70
I0
sg71
g24
sg9
S'N1'
p4734
sg73
F0.0
sg74
(lp4735
sg76
g24
sg77
g24
sg78
F0.0
sg79
S'ATOM  '
p4736
sg81
S' '
p4737
sg83
g24
sg84
(lp4738
I0
aI0
aI0
asg31
S'DG'
p4739
sg86
(lp4740
F0.632
aF-0.254
aF-15.038
asg33
g3770
sg88
F1.0
sba(ipmx.atom
Atom
p4741
(dp4742
g38
(lp4743
sg40
I0
sg22
g4355
sg41
F0.0
sg42
g24
sg43
S' H1 '
p4744
sg45
S' '
p4745
sg47
g24
sg48
I51
sg25
I51
sg49
F0.0
sg26
S'B'
p4746
sg51
(lp4747
sg53
(lp4748
sg55
(lp4749
sg57
I0
sg58
g24
sg59
S'H'
p4750
sg61
F0.0
sg62
F0.0
sg63
I2
sg64
g4358
sg29
S'A'
p4751
sg66
F0.0
sg67
(lp4752
sg69
F0.0
sg70
I0
sg71
g24
sg9
S'H1'
p4753
sg73
F0.0
sg74
(lp4754
sg76
g24
sg77
g24
sg78
F0.0
sg79
S'ATOM  '
p4755
sg81
S' '
p4756
sg83
g24
sg84
(lp4757
I0
aI0
aI0
asg31
S'DG'
p4758
sg86
(lp4759
F-0.255
aF0.22
aF-15.048
asg33
g3770
sg88
F1.0
sba(ipmx.atom
Atom
p4760
(dp4761
g38
(lp4762
sg40
I0
sg22
g4355
sg41
F0.0
sg42
g24
sg43
S' C2 '
p4763
sg45
S' '
p4764
sg47
g24
sg48
I52
sg25
I52
sg49
F0.0
sg26
S'B'
p4765
sg51
(lp4766
sg53
(lp4767
sg55
(lp4768
sg57
I0
sg58
g24
sg59
S'C'
p4769
sg61
F0.0
sg62
F0.0
sg63
I2
sg64
g4358
sg29
S'A'
p4770
sg66
F0.0
sg67
(lp4771
sg69
F0.0
sg70
I0
sg71
g24
sg9
S'C2'
p4772
sg73
F0.0
sg74
(lp4773
sg76
g24
sg77
g24
sg78
F0.0
sg79
S'ATOM  '
p4774
sg81
S' '
p4775
sg83
g24
sg84
(lp4776
I0
aI0
aI0
asg31
S'DG'
p4777
sg86
(lp4778
F1.759
aF0.491
aF-14.946
asg33
g3770
sg88
F1.0
sba(ipmx.atom
Atom
p4779
(dp4780
g38
(lp4781
sg40
I0
sg22
g4355
sg41
F0.0
sg42
g24
sg43
S' N2 '
p4782
sg45
S' '
p4783
sg47
g24
sg48
I53
sg25
I53
sg49
F0.0
sg26
S'B'
p4784
sg51
(lp4785
sg53
(lp4786
sg55
(lp4787
sg57
I0
sg58
g24
sg59
S'N'
p4788
sg61
F0.0
sg62
F0.0
sg63
I2
sg64
g4358
sg29
S'A'
p4789
sg66
F0.0
sg67
(lp4790
sg69
F0.0
sg70
I0
sg71
g24
sg9
S'N2'
p4791
sg73
F0.0
sg74
(lp4792
sg76
g24
sg77
g24
sg78
F0.0
sg79
S'ATOM  '
p4793
sg81
S' '
p4794
sg83
g24
sg84
(lp4795
I0
aI0
aI0
asg31
S'DG'
p4796
sg86
(lp4797
F1.595
aF1.789
aF-14.858
asg33
g3770
sg88
F1.0
sba(ipmx.atom
Atom
p4798
(dp4799
g38
(lp4800
sg40
I0
sg22
g4355
sg41
F0.0
sg42
g24
sg43
S' H21'
p4801
sg45
S' '
p4802
sg47
g24
sg48
I54
sg25
I54
sg49
F0.0
sg26
S'B'
p4803
sg51
(lp4804
sg53
(lp4805
sg55
(lp4806
sg57
I0
sg58
g24
sg59
S'H'
p4807
sg61
F0.0
sg62
F0.0
sg63
I2
sg64
g4358
sg29
S'A'
p4808
sg66
F0.0
sg67
(lp4809
sg69
F0.0
sg70
I0
sg71
g24
sg9
S'H21'
p4810
sg73
F0.0
sg74
(lp4811
sg76
g24
sg77
g24
sg78
F0.0
sg79
S'ATOM  '
p4812
sg81
S' '
p4813
sg83
g24
sg84
(lp4814
I0
aI0
aI0
asg31
S'DG'
p4815
sg86
(lp4816
F2.411
aF2.366
aF-14.77
asg33
g3770
sg88
F1.0
sba(ipmx.atom
Atom
p4817
(dp4818
g38
(lp4819
sg40
I0
sg22
g4355
sg41
F0.0
sg42
g24
sg43
S' H22'
p4820
sg45
S' '
p4821
sg47
g24
sg48
I55
sg25
I55
sg49
F0.0
sg26
S'B'
p4822
sg51
(lp4823
sg53
(lp4824
sg55
(lp4825
sg57
I0
sg58
g24
sg59
S'H'
p4826
sg61
F0.0
sg62
F0.0
sg63
I2
sg64
g4358
sg29
S'A'
p4827
sg66
F0.0
sg67
(lp4828
sg69
F0.0
sg70
I0
sg71
g24
sg9
S'H22'
p4829
sg73
F0.0
sg74
(lp4830
sg76
g24
sg77
g24
sg78
F0.0
sg79
S'ATOM  '
p4831
sg81
S' '
p4832
sg83
g24
sg84
(lp4833
I0
aI0
aI0
asg31
S'DG'
p4834
sg86
(lp4835
F0.66
aF2.201
aF-14.884
asg33
g3770
sg88
F1.0
sba(ipmx.atom
Atom
p4836
(dp4837
g38
(lp4838
sg40
I0
sg22
g4355
sg41
F0.0
sg42
g24
sg43
S' N3 '
p4839
sg45
S' '
p4840
sg47
g24
sg48
I56
sg25
I56
sg49
F0.0
sg26
S'B'
p4841
sg51
(lp4842
sg53
(lp4843
sg55
(lp4844
sg57
I0
sg58
g24
sg59
S'N'
p4845
sg61
F0.0
sg62
F0.0
sg63
I2
sg64
g4358
sg29
S'A'
p4846
sg66
F0.0
sg67
(lp4847
sg69
F0.0
sg70
I0
sg71
g24
sg9
S'N3'
p4848
sg73
F0.0
sg74
(lp4849
sg76
g24
sg77
g24
sg78
F0.0
sg79
S'ATOM  '
p4850
sg81
S' '
p4851
sg83
g24
sg84
(lp4852
I0
aI0
aI0
asg31
S'DG'
p4853
sg86
(lp4854
F2.992
aF-0.007
aF-14.915
asg33
g3770
sg88
F1.0
sba(ipmx.atom
Atom
p4855
(dp4856
g38
(lp4857
sg40
I0
sg22
g4355
sg41
F0.0
sg42
g24
sg43
S' C4 '
p4858
sg45
S' '
p4859
sg47
g24
sg48
I57
sg25
I57
sg49
F0.0
sg26
S'B'
p4860
sg51
(lp4861
sg53
(lp4862
sg55
(lp4863
sg57
I0
sg58
g24
sg59
S'C'
p4864
sg61
F0.0
sg62
F0.0
sg63
I2
sg64
g4358
sg29
S'A'
p4865
sg66
F0.0
sg67
(lp4866
sg69
F0.0
sg70
I0
sg71
g24
sg9
S'C4'
p4867
sg73
F0.0
sg74
(lp4868
sg76
g24
sg77
g24
sg78
F0.0
sg79
S'ATOM  '
p4869
sg81
S' '
p4870
sg83
g24
sg84
(lp4871
I0
aI0
aI0
asg31
S'DG'
p4872
sg86
(lp4873
F3.013
aF-1.373
aF-15.015
asg33
g3770
sg88
F1.0
sba(ipmx.atom
Atom
p4874
(dp4875
g38
(lp4876
sg40
I0
sg22
g4355
sg41
F0.0
sg42
g24
sg43
S" C3'"
p4877
sg45
S' '
p4878
sg47
g24
sg48
I58
sg25
I58
sg49
F0.0
sg26
S'B'
p4879
sg51
(lp4880
sg53
(lp4881
sg55
(lp4882
sg57
I0
sg58
g24
sg59
S'C'
p4883
sg61
F0.0
sg62
F0.0
sg63
I2
sg64
g4358
sg29
S'A'
p4884
sg66
F0.0
sg67
(lp4885
sg69
F0.0
sg70
I0
sg71
g24
sg9
S"C3'"
p4886
sg73
F0.0
sg74
(lp4887
sg76
g24
sg77
g24
sg78
F0.0
sg79
S'ATOM  '
p4888
sg81
S' '
p4889
sg83
g24
sg84
(lp4890
I0
aI0
aI0
asg31
S'DG'
p4891
sg86
(lp4892
F7.853
aF-2.511
aF-14.853
asg33
g3770
sg88
F1.0
sba(ipmx.atom
Atom
p4893
(dp4894
g38
(lp4895
sg40
I0
sg22
g4355
sg41
F0.0
sg42
g24
sg43
S" H3'"
p4896
sg45
S' '
p4897
sg47
g24
sg48
I59
sg25
I59
sg49
F0.0
sg26
S'B'
p4898
sg51
(lp4899
sg53
(lp4900
sg55
(lp4901
sg57
I0
sg58
g24
sg59
S'H'
p4902
sg61
F0.0
sg62
F0.0
sg63
I2
sg64
g4358
sg29
S'A'
p4903
sg66
F0.0
sg67
(lp4904
sg69
F0.0
sg70
I0
sg71
g24
sg9
S"H3'"
p4905
sg73
F0.0
sg74
(lp4906
sg76
g24
sg77
g24
sg78
F0.0
sg79
S'ATOM  '
p4907
sg81
S' '
p4908
sg83
g24
sg84
(lp4909
I0
aI0
aI0
asg31
S'DG'
p4910
sg86
(lp4911
F8.361
aF-3.46
aF-14.677
asg33
g3770
sg88
F1.0
sba(ipmx.atom
Atom
p4912
(dp4913
g38
(lp4914
sg40
I0
sg22
g4355
sg41
F0.0
sg42
g24
sg43
S" C2'"
p4915
sg45
S' '
p4916
sg47
g24
sg48
I60
sg25
I60
sg49
F0.0
sg26
S'B'
p4917
sg51
(lp4918
sg53
(lp4919
sg55
(lp4920
sg57
I0
sg58
g24
sg59
S'C'
p4921
sg61
F0.0
sg62
F0.0
sg63
I2
sg64
g4358
sg29
S'A'
p4922
sg66
F0.0
sg67
(lp4923
sg69
F0.0
sg70
I0
sg71
g24
sg9
S"C2'"
p4924
sg73
F0.0
sg74
(lp4925
sg76
g24
sg77
g24
sg78
F0.0
sg79
S'ATOM  '
p4926
sg81
S' '
p4927
sg83
g24
sg84
(lp4928
I0
aI0
aI0
asg31
S'DG'
p4929
sg86
(lp4930
F6.497
aF-2.544
aF-14.206
asg33
g3770
sg88
F1.0
sba(ipmx.atom
Atom
p4931
(dp4932
g38
(lp4933
sg40
I0
sg22
g4355
sg41
F0.0
sg42
g24
sg43
S"1H2'"
p4934
sg45
S' '
p4935
sg47
g24
sg48
I61
sg25
I61
sg49
F0.0
sg26
S'B'
p4936
sg51
(lp4937
sg53
(lp4938
sg55
(lp4939
sg57
I0
sg58
g24
sg59
S'H'
p4940
sg61
F0.0
sg62
F0.0
sg63
I2
sg64
g4358
sg29
S'A'
p4941
sg66
F0.0
sg67
(lp4942
sg69
F0.0
sg70
I0
sg71
g24
sg9
g633
sg73
F0.0
sg74
(lp4943
sg76
g24
sg77
g24
sg78
F0.0
sg79
S'ATOM  '
p4944
sg81
S' '
p4945
sg83
g24
sg84
(lp4946
I0
aI0
aI0
asg31
S'DG'
p4947
sg86
(lp4948
F6.142
aF-3.576
aF-14.139
asg33
g3770
sg88
F1.0
sba(ipmx.atom
Atom
p4949
(dp4950
g38
(lp4951
sg40
I0
sg22
g4355
sg41
F0.0
sg42
g24
sg43
S"2H2'"
p4952
sg45
S' '
p4953
sg47
g24
sg48
I62
sg25
I62
sg49
F0.0
sg26
S'B'
p4954
sg51
(lp4955
sg53
(lp4956
sg55
(lp4957
sg57
I0
sg58
g24
sg59
S'H'
p4958
sg61
F0.0
sg62
F0.0
sg63
I2
sg64
g4358
sg29
S'A'
p4959
sg66
F0.0
sg67
(lp4960
sg69
F0.0
sg70
I0
sg71
g24
sg9
g652
sg73
F0.0
sg74
(lp4961
sg76
g24
sg77
g24
sg78
F0.0
sg79
S'ATOM  '
p4962
sg81
S' '
p4963
sg83
g24
sg84
(lp4964
I0
aI0
aI0
asg31
S'DG'
p4965
sg86
(lp4966
F6.62
aF-2.083
aF-13.255
asg33
g3770
sg88
F1.0
sba(ipmx.atom
Atom
p4967
(dp4968
g38
(lp4969
sg40
I0
sg22
g4355
sg41
F0.0
sg42
g24
sg43
S" O3'"
p4970
sg45
S' '
p4971
sg47
g24
sg48
I63
sg25
I63
sg49
F0.0
sg26
S'B'
p4972
sg51
(lp4973
sg53
(lp4974
sg55
(lp4975
sg57
I0
sg58
g24
sg59
S'O'
p4976
sg61
F0.0
sg62
F0.0
sg63
I2
sg64
g4358
sg29
S'A'
p4977
sg66
F0.0
sg67
(lp4978
sg69
F0.0
sg70
I0
sg71
g24
sg9
S"O3'"
p4979
sg73
F0.0
sg74
(lp4980
sg76
g24
sg77
g24
sg78
F0.0
sg79
S'ATOM  '
p4981
sg81
S' '
p4982
sg83
g24
sg84
(lp4983
I0
aI0
aI0
asg31
S'DG'
p4984
sg86
(lp4985
F8.714
aF-1.421
aF-14.453
asg33
g3770
sg88
F1.0
sbasg48
I2
sg678
Nsbasg34
(lp4986
g4364
ag4382
ag4401
ag4420
ag4439
ag4458
ag4476
ag4494
ag4513
ag4532
ag4551
ag4570
ag4589
ag4608
ag4627
ag4646
ag4665
ag4684
ag4703
ag4722
ag4741
ag4760
ag4779
ag4798
ag4817
ag4836
ag4855
ag4874
ag4893
ag4912
ag4931
ag4949
ag4967
asg680
I0
sg29
S'A'
p4987
sg33
g3770
sg682
I00
sg48
S'B'
p4988
sbssg17
(lp4989
g3781
ag4358
asg34
(lp4990
g3787
ag3805
ag3824
ag3843
ag3862
ag3881
ag3899
ag3917
ag3936
ag3955
ag3974
ag3993
ag4012
ag4031
ag4050
ag4069
ag4088
ag4107
ag4126
ag4145
ag4164
ag4183
ag4202
ag4221
ag4239
ag4258
ag4277
ag4296
ag4314
ag4332
ag4364
ag4382
ag4401
ag4420
ag4439
ag4458
ag4476
ag4494
ag4513
ag4532
ag4551
ag4570
ag4589
ag4608
ag4627
ag4646
ag4665
ag4684
ag4703
ag4722
ag4741
ag4760
ag4779
ag4798
ag4817
ag4836
ag4855
ag4874
ag4893
ag4912
ag4931
ag4949
ag4967
asg29
S'A'
p4991
sg1303
(lp4992
g3778
ag4355
asg48
I0
sg1305
I0
sbs.