(dp0
S'a'
p1
(ipmx.model
Model
p2
(dp3
S'box'
p4
(lp5
(lp6
I0
aI0
aI0
aa(lp7
I0
aI0
aI0
aa(lp8
I0
aI0
aI0
aasS'name'
p9
NsS'title'
p10
S'PMX MODEL'
p11
sS'chdic'
p12
(dp13
S'A'
p14
(ipmx.chain
Chain
p15
(dp16
S'residues'
p17
(lp18
(ipmx.molecule
Molecule
p19
(dp20
S'natoms'
p21
I0
sS'chain'
p22
g15
sS'real_resname'
p23
S''
p24
sS'orig_id'
p25
I2
sS'chain_id'
p26
g14
sS'next'
p27
NsS'unity'
p28
g14
sS'resname'
p29
S'RA'
p30
sS'model'
p31
g2
sS'atoms'
p32
(lp33
(ipmx.atom
Atom
p34
(dp35
S'neighbors'
p36
(lp37
sS'code'
p38
I0
sg22
g15
sS'm'
p39
F0.0
sS'ptype'
p40
g24
sS'long_name'
p41
S' P  '
p42
sS'altloc'
p43
S' '
p44
sS'atomtypeB'
p45
g24
sS'typeB'
p46
g24
sS'id'
p47
I1
sS'mB'
p48
F0.0
sS'resnr'
p49
I1
sS'occ'
p50
F1.0
sS'vdw14'
p51
F0.0
sg26
g14
sS'b14'
p52
(lp53
sS'b13'
p54
(lp55
sS'cgnr'
p56
F0.0
sS'type'
p57
g24
sS'bfac'
p58
F0.0
sS'bonds'
p59
(lp60
sS'symbol'
p61
S'P'
p62
sS'molecule'
p63
g19
sg28
g14
sS'qB'
p64
F0.0
sS'connected'
p65
(lp66
sS'boxid'
p67
I0
sS'hyb'
p68
g24
sg9
g62
sS'vdw'
p69
F0.0
sS'f'
p70
(lp71
sS'atype'
p72
g24
sS'order'
p73
I0
sS'q'
p74
F0.0
sS'race'
p75
S'ATOM  '
p76
sS'grpnr'
p77
g44
sS'atomtype'
p78
g24
sS'v'
p79
(lp80
I0
aI0
aI0
asg29
g30
sS'x'
p81
(lp82
F9.134
aF-1.112
aF-12.919
asg31
g2
sg25
I31
sba(ipmx.atom
Atom
p83
(dp84
g36
(lp85
sg38
I0
sg22
g15
sg39
F0.0
sg40
g24
sg41
S' O1P'
p86
sg43
g44
sg45
g24
sg46
g24
sg47
I2
sg48
F0.0
sg49
I1
sg50
F1.0
sg51
F0.0
sg26
g14
sg52
(lp87
sg54
(lp88
sg56
F0.0
sg57
g24
sg58
F0.0
sg59
(lp89
sg61
S'O'
p90
sg63
g19
sg28
g14
sg64
F0.0
sg65
(lp91
sg67
I0
sg68
g24
sg9
S'O1P'
p92
sg69
F0.0
sg70
(lp93
sg72
g24
sg73
I0
sg74
F0.0
sg75
S'ATOM  '
p94
sg77
g44
sg78
g24
sg79
(lp95
I0
aI0
aI0
asg29
S'RA'
p96
sg81
(lp97
F10.437
aF-0.382
aF-12.831
asg31
g2
sg25
I32
sba(ipmx.atom
Atom
p98
(dp99
g36
(lp100
sg38
I0
sg22
g15
sg39
F0.0
sg40
g24
sg41
S' O2P'
p101
sg43
g44
sg45
g24
sg46
g24
sg47
I3
sg48
F0.0
sg49
I1
sg50
F1.0
sg51
F0.0
sg26
g14
sg52
(lp102
sg54
(lp103
sg56
F0.0
sg57
g24
sg58
F0.0
sg59
(lp104
sg61
g90
sg63
g19
sg28
g14
sg64
F0.0
sg65
(lp105
sg67
I0
sg68
g24
sg9
S'O2P'
p106
sg69
F0.0
sg70
(lp107
sg72
g24
sg73
I0
sg74
F0.0
sg75
S'ATOM  '
p108
sg77
g44
sg78
g24
sg79
(lp109
I0
aI0
aI0
asg29
S'RA'
p110
sg81
(lp111
F8.878
aF-2.282
aF-12.085
asg31
g2
sg25
I33
sba(ipmx.atom
Atom
p112
(dp113
g36
(lp114
sg38
I0
sg22
g15
sg39
F0.0
sg40
g24
sg41
S" O5'"
p115
sg43
g44
sg45
g24
sg46
g24
sg47
I4
sg48
F0.0
sg49
I1
sg50
F1.0
sg51
F0.0
sg26
g14
sg52
(lp116
sg54
(lp117
sg56
F0.0
sg57
g24
sg58
F0.0
sg59
(lp118
sg61
g90
sg63
g19
sg28
g14
sg64
F0.0
sg65
(lp119
sg67
I0
sg68
g24
sg9
S"O5'"
p120
sg69
F0.0
sg70
(lp121
sg72
g24
sg73
I0
sg74
F0.0
sg75
S'ATOM  '
p122
sg77
g44
sg78
g24
sg79
(lp123
I0
aI0
aI0
asg29
S'RA'
p124
sg81
(lp125
F7.999
aF-0.011
aF-12.72
asg31
g2
sg25
I34
sba(ipmx.atom
Atom
p126
(dp127
g36
(lp128
sg38
I0
sg22
g15
sg39
F0.0
sg40
g24
sg41
S" C5'"
p129
sg43
g44
sg45
g24
sg46
g24
sg47
I5
sg48
F0.0
sg49
I1
sg50
F1.0
sg51
F0.0
sg26
g14
sg52
(lp130
sg54
(lp131
sg56
F0.0
sg57
g24
sg58
F0.0
sg59
(lp132
sg61
S'C'
p133
sg63
g19
sg28
g14
sg64
F0.0
sg65
(lp134
sg67
I0
sg68
g24
sg9
S"C5'"
p135
sg69
F0.0
sg70
(lp136
sg72
g24
sg73
I0
sg74
F0.0
sg75
S'ATOM  '
p137
sg77
g44
sg78
g24
sg79
(lp138
I0
aI0
aI0
asg29
S'RA'
p139
sg81
(lp140
F7.913
aF1.127
aF-13.573
asg31
g2
sg25
I35
sba(ipmx.atom
Atom
p141
(dp142
g36
(lp143
sg38
I0
sg22
g15
sg39
F0.0
sg40
g24
sg41
S"1H5'"
p144
sg43
g44
sg45
g24
sg46
g24
sg47
I6
sg48
F0.0
sg49
I1
sg50
F1.0
sg51
F0.0
sg26
g14
sg52
(lp145
sg54
(lp146
sg56
F0.0
sg57
g24
sg58
F0.0
sg59
(lp147
sg61
S'H'
p148
sg63
g19
sg28
g14
sg64
F0.0
sg65
(lp149
sg67
I0
sg68
g24
sg9
S"H5'1"
p150
sg69
F0.0
sg70
(lp151
sg72
g24
sg73
I0
sg74
F0.0
sg75
S'ATOM  '
p152
sg77
g44
sg78
g24
sg79
(lp153
I0
aI0
aI0
asg29
S'RA'
p154
sg81
(lp155
F7.336
aF0.867
aF-14.347
asg31
g2
sg25
I36
sba(ipmx.atom
Atom
p156
(dp157
g36
(lp158
sg38
I0
sg22
g15
sg39
F0.0
sg40
g24
sg41
S"2H5'"
p159
sg43
g44
sg45
g24
sg46
g24
sg47
I7
sg48
F0.0
sg49
I1
sg50
F1.0
sg51
F0.0
sg26
g14
sg52
(lp160
sg54
(lp161
sg56
F0.0
sg57
g24
sg58
F0.0
sg59
(lp162
sg61
g148
sg63
g19
sg28
g14
sg64
F0.0
sg65
(lp163
sg67
I0
sg68
g24
sg9
S"H5'2"
p164
sg69
F0.0
sg70
(lp165
sg72
g24
sg73
I0
sg74
F0.0
sg75
S'ATOM  '
p166
sg77
g44
sg78
g24
sg79
(lp167
I0
aI0
aI0
asg29
S'RA'
p168
sg81
(lp169
F8.839
aF1.319
aF-13.897
asg31
g2
sg25
I37
sba(ipmx.atom
Atom
p170
(dp171
g36
(lp172
sg38
I0
sg22
g15
sg39
F0.0
sg40
g24
sg41
S" C4'"
p173
sg43
g44
sg45
g24
sg46
g24
sg47
I8
sg48
F0.0
sg49
I1
sg50
F1.0
sg51
F0.0
sg26
g14
sg52
(lp174
sg54
(lp175
sg56
F0.0
sg57
g24
sg58
F0.0
sg59
(lp176
sg61
g133
sg63
g19
sg28
g14
sg64
F0.0
sg65
(lp177
sg67
I0
sg68
g24
sg9
S"C4'"
p178
sg69
F0.0
sg70
(lp179
sg72
g24
sg73
I0
sg74
F0.0
sg75
S'ATOM  '
p180
sg77
g44
sg78
g24
sg79
(lp181
I0
aI0
aI0
asg29
S'RA'
p182
sg81
(lp183
F7.329
aF2.362
aF-12.861
asg31
g2
sg25
I38
sba(ipmx.atom
Atom
p184
(dp185
g36
(lp186
sg38
I0
sg22
g15
sg39
F0.0
sg40
g24
sg41
S" H4'"
p187
sg43
g44
sg45
g24
sg46
g24
sg47
I9
sg48
F0.0
sg49
I1
sg50
F1.0
sg51
F0.0
sg26
g14
sg52
(lp188
sg54
(lp189
sg56
F0.0
sg57
g24
sg58
F0.0
sg59
(lp190
sg61
g148
sg63
g19
sg28
g14
sg64
F0.0
sg65
(lp191
sg67
I0
sg68
g24
sg9
S"H4'"
p192
sg69
F0.0
sg70
(lp193
sg72
g24
sg73
I0
sg74
F0.0
sg75
S'ATOM  '
p194
sg77
g44
sg78
g24
sg79
(lp195
I0
aI0
aI0
asg29
S'RA'
p196
sg81
(lp197
F7.58
aF3.172
aF-13.39
asg31
g2
sg25
I39
sba(ipmx.atom
Atom
p198
(dp199
g36
(lp200
sg38
I0
sg22
g15
sg39
F0.0
sg40
g24
sg41
S" O4'"
p201
sg43
g44
sg45
g24
sg46
g24
sg47
I10
sg48
F0.0
sg49
I1
sg50
F1.0
sg51
F0.0
sg26
g14
sg52
(lp202
sg54
(lp203
sg56
F0.0
sg57
g24
sg58
F0.0
sg59
(lp204
sg61
g90
sg63
g19
sg28
g14
sg64
F0.0
sg65
(lp205
sg67
I0
sg68
g24
sg9
S"O4'"
p206
sg69
F0.0
sg70
(lp207
sg72
g24
sg73
I0
sg74
F0.0
sg75
S'ATOM  '
p208
sg77
g44
sg78
g24
sg79
(lp209
I0
aI0
aI0
asg29
S'RA'
p210
sg81
(lp211
F5.909
aF2.249
aF-12.847
asg31
g2
sg25
I40
sba(ipmx.atom
Atom
p212
(dp213
g36
(lp214
sg38
I0
sg22
g15
sg39
F0.0
sg40
g24
sg41
S" C1'"
p215
sg43
g44
sg45
g24
sg46
g24
sg47
I11
sg48
F0.0
sg49
I1
sg50
F1.0
sg51
F0.0
sg26
g14
sg52
(lp216
sg54
(lp217
sg56
F0.0
sg57
g24
sg58
F0.0
sg59
(lp218
sg61
g133
sg63
g19
sg28
g14
sg64
F0.0
sg65
(lp219
sg67
I0
sg68
g24
sg9
S"C1'"
p220
sg69
F0.0
sg70
(lp221
sg72
g24
sg73
I0
sg74
F0.0
sg75
S'ATOM  '
p222
sg77
g44
sg78
g24
sg79
(lp223
I0
aI0
aI0
asg29
S'RA'
p224
sg81
(lp225
F5.487
aF1.859
aF-11.547
asg31
g2
sg25
I41
sba(ipmx.atom
Atom
p226
(dp227
g36
(lp228
sg38
I0
sg22
g15
sg39
F0.0
sg40
g24
sg41
S" H1'"
p229
sg43
g44
sg45
g24
sg46
g24
sg47
I12
sg48
F0.0
sg49
I1
sg50
F1.0
sg51
F0.0
sg26
g14
sg52
(lp230
sg54
(lp231
sg56
F0.0
sg57
g24
sg58
F0.0
sg59
(lp232
sg61
g148
sg63
g19
sg28
g14
sg64
F0.0
sg65
(lp233
sg67
I0
sg68
g24
sg9
S"H1'"
p234
sg69
F0.0
sg70
(lp235
sg72
g24
sg73
I0
sg74
F0.0
sg75
S'ATOM  '
p236
sg77
g44
sg78
g24
sg79
(lp237
I0
aI0
aI0
asg29
S'RA'
p238
sg81
(lp239
F4.896
aF2.571
aF-11.168
asg31
g2
sg25
I42
sba(ipmx.atom
Atom
p240
(dp241
g36
(lp242
sg38
I0
sg22
g15
sg39
F0.0
sg40
g24
sg41
S' N9 '
p243
sg43
g44
sg45
g24
sg46
g24
sg47
I13
sg48
F0.0
sg49
I1
sg50
F1.0
sg51
F0.0
sg26
g14
sg52
(lp244
sg54
(lp245
sg56
F0.0
sg57
g24
sg58
F0.0
sg59
(lp246
sg61
S'N'
p247
sg63
g19
sg28
g14
sg64
F0.0
sg65
(lp248
sg67
I0
sg68
g24
sg9
S'N9'
p249
sg69
F0.0
sg70
(lp250
sg72
g24
sg73
I0
sg74
F0.0
sg75
S'ATOM  '
p251
sg77
g44
sg78
g24
sg79
(lp252
I0
aI0
aI0
asg29
S'RA'
p253
sg81
(lp254
F4.636
aF0.647
aF-11.627
asg31
g2
sg25
I43
sba(ipmx.atom
Atom
p255
(dp256
g36
(lp257
sg38
I0
sg22
g15
sg39
F0.0
sg40
g24
sg41
S' C8 '
p258
sg43
g44
sg45
g24
sg46
g24
sg47
I14
sg48
F0.0
sg49
I1
sg50
F1.0
sg51
F0.0
sg26
g14
sg52
(lp259
sg54
(lp260
sg56
F0.0
sg57
g24
sg58
F0.0
sg59
(lp261
sg61
g133
sg63
g19
sg28
g14
sg64
F0.0
sg65
(lp262
sg67
I0
sg68
g24
sg9
S'C8'
p263
sg69
F0.0
sg70
(lp264
sg72
g24
sg73
I0
sg74
F0.0
sg75
S'ATOM  '
p265
sg77
g44
sg78
g24
sg79
(lp266
I0
aI0
aI0
asg29
S'RA'
p267
sg81
(lp268
F5.014
aF-0.671
aF-11.687
asg31
g2
sg25
I44
sba(ipmx.atom
Atom
p269
(dp270
g36
(lp271
sg38
I0
sg22
g15
sg39
F0.0
sg40
g24
sg41
S' H8 '
p272
sg43
g44
sg45
g24
sg46
g24
sg47
I15
sg48
F0.0
sg49
I1
sg50
F1.0
sg51
F0.0
sg26
g14
sg52
(lp273
sg54
(lp274
sg56
F0.0
sg57
g24
sg58
F0.0
sg59
(lp275
sg61
g148
sg63
g19
sg28
g14
sg64
F0.0
sg65
(lp276
sg67
I0
sg68
g24
sg9
S'H8'
p277
sg69
F0.0
sg70
(lp278
sg72
g24
sg73
I0
sg74
F0.0
sg75
S'ATOM  '
p279
sg77
g44
sg78
g24
sg79
(lp280
I0
aI0
aI0
asg29
S'RA'
p281
sg81
(lp282
F5.973
aF-0.954
aF-11.669
asg31
g2
sg25
I45
sba(ipmx.atom
Atom
p283
(dp284
g36
(lp285
sg38
I0
sg22
g15
sg39
F0.0
sg40
g24
sg41
S' N7 '
p286
sg43
g44
sg45
g24
sg46
g24
sg47
I16
sg48
F0.0
sg49
I1
sg50
F1.0
sg51
F0.0
sg26
g14
sg52
(lp287
sg54
(lp288
sg56
F0.0
sg57
g24
sg58
F0.0
sg59
(lp289
sg61
g247
sg63
g19
sg28
g14
sg64
F0.0
sg65
(lp290
sg67
I0
sg68
g24
sg9
S'N7'
p291
sg69
F0.0
sg70
(lp292
sg72
g24
sg73
I0
sg74
F0.0
sg75
S'ATOM  '
p293
sg77
g44
sg78
g24
sg79
(lp294
I0
aI0
aI0
asg29
S'RA'
p295
sg81
(lp296
F4.033
aF-1.531
aF-11.77
asg31
g2
sg25
I46
sba(ipmx.atom
Atom
p297
(dp298
g36
(lp299
sg38
I0
sg22
g15
sg39
F0.0
sg40
g24
sg41
S' C5 '
p300
sg43
g44
sg45
g24
sg46
g24
sg47
I17
sg48
F0.0
sg49
I1
sg50
F1.0
sg51
F0.0
sg26
g14
sg52
(lp301
sg54
(lp302
sg56
F0.0
sg57
g24
sg58
F0.0
sg59
(lp303
sg61
g133
sg63
g19
sg28
g14
sg64
F0.0
sg65
(lp304
sg67
I0
sg68
g24
sg9
S'C5'
p305
sg69
F0.0
sg70
(lp306
sg72
g24
sg73
I0
sg74
F0.0
sg75
S'ATOM  '
p307
sg77
g44
sg78
g24
sg79
(lp308
I0
aI0
aI0
asg29
S'RA'
p309
sg81
(lp310
F2.911
aF-0.698
aF-11.712
asg31
g2
sg25
I47
sba(ipmx.atom
Atom
p311
(dp312
g36
(lp313
sg38
I0
sg22
g15
sg39
F0.0
sg40
g24
sg41
S' C6 '
p314
sg43
g44
sg45
g24
sg46
g24
sg47
I18
sg48
F0.0
sg49
I1
sg50
F1.0
sg51
F0.0
sg26
g14
sg52
(lp315
sg54
(lp316
sg56
F0.0
sg57
g24
sg58
F0.0
sg59
(lp317
sg61
g133
sg63
g19
sg28
g14
sg64
F0.0
sg65
(lp318
sg67
I0
sg68
g24
sg9
S'C6'
p319
sg69
F0.0
sg70
(lp320
sg72
g24
sg73
I0
sg74
F0.0
sg75
S'ATOM  '
p321
sg77
g44
sg78
g24
sg79
(lp322
I0
aI0
aI0
asg29
S'RA'
p323
sg81
(lp324
F1.521
aF-0.928
aF-11.726
asg31
g2
sg25
I48
sba(ipmx.atom
Atom
p325
(dp326
g36
(lp327
sg38
I0
sg22
g15
sg39
F0.0
sg40
g24
sg41
S' N6 '
p328
sg43
g44
sg45
g24
sg46
g24
sg47
I19
sg48
F0.0
sg49
I1
sg50
F1.0
sg51
F0.0
sg26
g14
sg52
(lp329
sg54
(lp330
sg56
F0.0
sg57
g24
sg58
F0.0
sg59
(lp331
sg61
g247
sg63
g19
sg28
g14
sg64
F0.0
sg65
(lp332
sg67
I0
sg68
g24
sg9
S'N6'
p333
sg69
F0.0
sg70
(lp334
sg72
g24
sg73
I0
sg74
F0.0
sg75
S'ATOM  '
p335
sg77
g44
sg78
g24
sg79
(lp336
I0
aI0
aI0
asg29
S'RA'
p337
sg81
(lp338
F1.001
aF-2.139
aF-11.818
asg31
g2
sg25
I49
sba(ipmx.atom
Atom
p339
(dp340
g36
(lp341
sg38
I0
sg22
g15
sg39
F0.0
sg40
g24
sg41
S' H61'
p342
sg43
g44
sg45
g24
sg46
g24
sg47
I20
sg48
F0.0
sg49
I1
sg50
F1.0
sg51
F0.0
sg26
g14
sg52
(lp343
sg54
(lp344
sg56
F0.0
sg57
g24
sg58
F0.0
sg59
(lp345
sg61
g148
sg63
g19
sg28
g14
sg64
F0.0
sg65
(lp346
sg67
I0
sg68
g24
sg9
S'H61'
p347
sg69
F0.0
sg70
(lp348
sg72
g24
sg73
I0
sg74
F0.0
sg75
S'ATOM  '
p349
sg77
g44
sg78
g24
sg79
(lp350
I0
aI0
aI0
asg29
S'RA'
p351
sg81
(lp352
F1.6
aF-2.937
aF-11.881
asg31
g2
sg25
I50
sba(ipmx.atom
Atom
p353
(dp354
g36
(lp355
sg38
I0
sg22
g15
sg39
F0.0
sg40
g24
sg41
S' H62'
p356
sg43
g44
sg45
g24
sg46
g24
sg47
I21
sg48
F0.0
sg49
I1
sg50
F1.0
sg51
F0.0
sg26
g14
sg52
(lp357
sg54
(lp358
sg56
F0.0
sg57
g24
sg58
F0.0
sg59
(lp359
sg61
g148
sg63
g19
sg28
g14
sg64
F0.0
sg65
(lp360
sg67
I0
sg68
g24
sg9
S'H62'
p361
sg69
F0.0
sg70
(lp362
sg72
g24
sg73
I0
sg74
F0.0
sg75
S'ATOM  '
p363
sg77
g44
sg78
g24
sg79
(lp364
I0
aI0
aI0
asg29
S'RA'
p365
sg81
(lp366
F0.008
aF-2.258
aF-11.824
asg31
g2
sg25
I51
sba(ipmx.atom
Atom
p367
(dp368
g36
(lp369
sg38
I0
sg22
g15
sg39
F0.0
sg40
g24
sg41
S' N1 '
p370
sg43
g44
sg45
g24
sg46
g24
sg47
I22
sg48
F0.0
sg49
I1
sg50
F1.0
sg51
F0.0
sg26
g14
sg52
(lp371
sg54
(lp372
sg56
F0.0
sg57
g24
sg58
F0.0
sg59
(lp373
sg61
g247
sg63
g19
sg28
g14
sg64
F0.0
sg65
(lp374
sg67
I0
sg68
g24
sg9
S'N1'
p375
sg69
F0.0
sg70
(lp376
sg72
g24
sg73
I0
sg74
F0.0
sg75
S'ATOM  '
p377
sg77
g44
sg78
g24
sg79
(lp378
I0
aI0
aI0
asg29
S'RA'
p379
sg81
(lp380
F0.652
aF0.082
aF-11.649
asg31
g2
sg25
I52
sba(ipmx.atom
Atom
p381
(dp382
g36
(lp383
sg38
I0
sg22
g15
sg39
F0.0
sg40
g24
sg41
S' C2 '
p384
sg43
g44
sg45
g24
sg46
g24
sg47
I23
sg48
F0.0
sg49
I1
sg50
F1.0
sg51
F0.0
sg26
g14
sg52
(lp385
sg54
(lp386
sg56
F0.0
sg57
g24
sg58
F0.0
sg59
(lp387
sg61
g133
sg63
g19
sg28
g14
sg64
F0.0
sg65
(lp388
sg67
I0
sg68
g24
sg9
S'C2'
p389
sg69
F0.0
sg70
(lp390
sg72
g24
sg73
I0
sg74
F0.0
sg75
S'ATOM  '
p391
sg77
g44
sg78
g24
sg79
(lp392
I0
aI0
aI0
asg29
S'RA'
p393
sg81
(lp394
F1.146
aF1.313
aF-11.561
asg31
g2
sg25
I53
sba(ipmx.atom
Atom
p395
(dp396
g36
(lp397
sg38
I0
sg22
g15
sg39
F0.0
sg40
g24
sg41
S' H2 '
p398
sg43
g44
sg45
g24
sg46
g24
sg47
I24
sg48
F0.0
sg49
I1
sg50
F1.0
sg51
F0.0
sg26
g14
sg52
(lp399
sg54
(lp400
sg56
F0.0
sg57
g24
sg58
F0.0
sg59
(lp401
sg61
g148
sg63
g19
sg28
g14
sg64
F0.0
sg65
(lp402
sg67
I0
sg68
g24
sg9
S'H2'
p403
sg69
F0.0
sg70
(lp404
sg72
g24
sg73
I0
sg74
F0.0
sg75
S'ATOM  '
p405
sg77
g44
sg78
g24
sg79
(lp406
I0
aI0
aI0
asg29
S'RA'
p407
sg81
(lp408
F0.473
aF2.051
aF-11.506
asg31
g2
sg25
I54
sba(ipmx.atom
Atom
p409
(dp410
g36
(lp411
sg38
I0
sg22
g15
sg39
F0.0
sg40
g24
sg41
S' N3 '
p412
sg43
g44
sg45
g24
sg46
g24
sg47
I25
sg48
F0.0
sg49
I1
sg50
F1.0
sg51
F0.0
sg26
g14
sg52
(lp413
sg54
(lp414
sg56
F0.0
sg57
g24
sg58
F0.0
sg59
(lp415
sg61
g247
sg63
g19
sg28
g14
sg64
F0.0
sg65
(lp416
sg67
I0
sg68
g24
sg9
S'N3'
p417
sg69
F0.0
sg70
(lp418
sg72
g24
sg73
I0
sg74
F0.0
sg75
S'ATOM  '
p419
sg77
g44
sg78
g24
sg79
(lp420
I0
aI0
aI0
asg29
S'RA'
p421
sg81
(lp422
F2.416
aF1.685
aF-11.537
asg31
g2
sg25
I55
sba(ipmx.atom
Atom
p423
(dp424
g36
(lp425
sg38
I0
sg22
g15
sg39
F0.0
sg40
g24
sg41
S' C4 '
p426
sg43
g44
sg45
g24
sg46
g24
sg47
I26
sg48
F0.0
sg49
I1
sg50
F1.0
sg51
F0.0
sg26
g14
sg52
(lp427
sg54
(lp428
sg56
F0.0
sg57
g24
sg58
F0.0
sg59
(lp429
sg61
g133
sg63
g19
sg28
g14
sg64
F0.0
sg65
(lp430
sg67
I0
sg68
g24
sg9
S'C4'
p431
sg69
F0.0
sg70
(lp432
sg72
g24
sg73
I0
sg74
F0.0
sg75
S'ATOM  '
p433
sg77
g44
sg78
g24
sg79
(lp434
I0
aI0
aI0
asg29
S'RA'
p435
sg81
(lp436
F3.262
aF0.622
aF-11.624
asg31
g2
sg25
I56
sba(ipmx.atom
Atom
p437
(dp438
g36
(lp439
sg38
I0
sg22
g15
sg39
F0.0
sg40
g24
sg41
S" C3'"
p440
sg43
g44
sg45
g24
sg46
g24
sg47
I27
sg48
F0.0
sg49
I1
sg50
F1.0
sg51
F0.0
sg26
g14
sg52
(lp441
sg54
(lp442
sg56
F0.0
sg57
g24
sg58
F0.0
sg59
(lp443
sg61
g133
sg63
g19
sg28
g14
sg64
F0.0
sg65
(lp444
sg67
I0
sg68
g24
sg9
S"C3'"
p445
sg69
F0.0
sg70
(lp446
sg72
g24
sg73
I0
sg74
F0.0
sg75
S'ATOM  '
p447
sg77
g44
sg78
g24
sg79
(lp448
I0
aI0
aI0
asg29
S'RA'
p449
sg81
(lp450
F7.804
aF2.546
aF-11.403
asg31
g2
sg25
I57
sba(ipmx.atom
Atom
p451
(dp452
g36
(lp453
sg38
I0
sg22
g15
sg39
F0.0
sg40
g24
sg41
S" H3'"
p454
sg43
g44
sg45
g24
sg46
g24
sg47
I28
sg48
F0.0
sg49
I1
sg50
F1.0
sg51
F0.0
sg26
g14
sg52
(lp455
sg54
(lp456
sg56
F0.0
sg57
g24
sg58
F0.0
sg59
(lp457
sg61
g148
sg63
g19
sg28
g14
sg64
F0.0
sg65
(lp458
sg67
I0
sg68
g24
sg9
S"H3'"
p459
sg69
F0.0
sg70
(lp460
sg72
g24
sg73
I0
sg74
F0.0
sg75
S'ATOM  '
p461
sg77
g44
sg78
g24
sg79
(lp462
I0
aI0
aI0
asg29
S'RA'
p463
sg81
(lp464
F8.745
aF2.328
aF-11.145
asg31
g2
sg25
I58
sba(ipmx.atom
Atom
p465
(dp466
g36
(lp467
sg38
I0
sg22
g15
sg39
F0.0
sg40
g24
sg41
S" C2'"
p468
sg43
g44
sg45
g24
sg46
g24
sg47
I29
sg48
F0.0
sg49
I1
sg50
F1.0
sg51
F0.0
sg26
g14
sg52
(lp469
sg54
(lp470
sg56
F0.0
sg57
g24
sg58
F0.0
sg59
(lp471
sg61
g133
sg63
g19
sg28
g14
sg64
F0.0
sg65
(lp472
sg67
I0
sg68
g24
sg9
S"C2'"
p473
sg69
F0.0
sg70
(lp474
sg72
g24
sg73
I0
sg74
F0.0
sg75
S'ATOM  '
p475
sg77
g44
sg78
g24
sg79
(lp476
I0
aI0
aI0
asg29
S'RA'
p477
sg81
(lp478
F6.752
aF1.673
aF-10.703
asg31
g2
sg25
I59
sba(ipmx.atom
Atom
p479
(dp480
g36
(lp481
sg38
I0
sg22
g15
sg39
F0.0
sg40
g24
sg41
S"1H2'"
p482
sg43
g44
sg45
g24
sg46
g24
sg47
I30
sg48
F0.0
sg49
I1
sg50
F1.0
sg51
F0.0
sg26
g14
sg52
(lp483
sg54
(lp484
sg56
F0.0
sg57
g24
sg58
F0.0
sg59
(lp485
sg61
g148
sg63
g19
sg28
g14
sg64
F0.0
sg65
(lp486
sg67
I0
sg68
g24
sg9
S"H2'1"
p487
sg69
F0.0
sg70
(lp488
sg72
g24
sg73
I0
sg74
F0.0
sg75
S'ATOM  '
p489
sg77
g44
sg78
g24
sg79
(lp490
I0
aI0
aI0
asg29
S'RA'
p491
sg81
(lp492
F7.034
aF0.714
aF-10.695
asg31
g2
sg25
I60
sba(ipmx.atom
Atom
p493
(dp494
g36
(lp495
sg38
I0
sg22
g15
sg39
F0.0
sg40
g24
sg41
S" O2'"
p496
sg43
g44
sg45
g24
sg46
g24
sg47
I31
sg48
F0.0
sg49
I1
sg50
F1.0
sg51
F0.0
sg26
g14
sg52
(lp497
sg54
(lp498
sg56
F0.0
sg57
g24
sg58
F0.0
sg59
(lp499
sg61
g90
sg63
g19
sg28
g14
sg64
F0.0
sg65
(lp500
sg67
I0
sg68
g24
sg9
S"O2'"
p501
sg69
F0.0
sg70
(lp502
sg72
g24
sg73
I0
sg74
F0.0
sg75
S'ATOM  '
p503
sg77
g44
sg78
g24
sg79
(lp504
I0
aI0
aI0
asg29
S'RA'
p505
sg81
(lp506
F6.485
aF2.326
aF-9.494
asg31
g2
sg25
I31
sba(ipmx.atom
Atom
p507
(dp508
g36
(lp509
sg38
I0
sg22
g15
sg39
F0.0
sg40
g24
sg41
S"2HO'"
p510
sg43
g44
sg45
g24
sg46
g24
sg47
I32
sg48
F0.0
sg49
I1
sg50
F1.0
sg51
F0.0
sg26
g14
sg52
(lp511
sg54
(lp512
sg56
F0.0
sg57
g24
sg58
F0.0
sg59
(lp513
sg61
g148
sg63
g19
sg28
g14
sg64
F0.0
sg65
(lp514
sg67
I0
sg68
g24
sg9
S"HO'2"
p515
sg69
F0.0
sg70
(lp516
sg72
g24
sg73
I0
sg74
F0.0
sg75
S'ATOM  '
p517
sg77
g44
sg78
g24
sg79
(lp518
I0
aI0
aI0
asg29
S'RA'
p519
sg81
(lp520
F7.271
aF2.236
aF-8.883
asg31
g2
sg25
I32
sba(ipmx.atom
Atom
p521
(dp522
g36
(lp523
sg38
I0
sg22
g15
sg39
F0.0
sg40
g24
sg41
S" O3'"
p524
sg43
g44
sg45
g24
sg46
g24
sg47
I33
sg48
F0.0
sg49
I1
sg50
F1.0
sg51
F0.0
sg26
g14
sg52
(lp525
sg54
(lp526
sg56
F0.0
sg57
g24
sg58
F0.0
sg59
(lp527
sg61
g90
sg63
g19
sg28
g14
sg64
F0.0
sg65
(lp528
sg67
I0
sg68
g24
sg9
S"O3'"
p529
sg69
F0.0
sg70
(lp530
sg72
g24
sg73
I0
sg74
F0.0
sg75
S'ATOM  '
p531
sg77
g44
sg78
g24
sg79
(lp532
I0
aI0
aI0
asg29
S'RA'
p533
sg81
(lp534
F7.864
aF3.943
aF-11.047
asg31
g2
sg25
I62
sbasg47
I1
sS'previous'
p535
Nsbasg32
(lp536
g34
ag83
ag98
ag112
ag126
ag141
ag156
ag170
ag184
ag198
ag212
ag226
ag240
ag255
ag269
ag283
ag297
ag311
ag325
ag339
ag353
ag367
ag381
ag395
ag409
ag423
ag437
ag451
ag465
ag479
ag493
ag507
ag521
asS'nres'
p537
I0
sg28
g14
sg31
g2
sS'residue_tree_ok'
p538
I00
sg47
g14
sbssg17
(lp539
g19
asg32
(lp540
g34
ag83
ag98
ag112
ag126
ag141
ag156
ag170
ag184
ag198
ag212
ag226
ag240
ag255
ag269
ag283
ag297
ag311
ag325
ag339
ag353
ag367
ag381
ag395
ag409
ag423
ag437
ag451
ag465
ag479
ag493
ag507
ag521
asg28
g14
sS'chains'
p541
(lp542
g15
asg47
I0
sS'have_bonds'
p543
I0
sbsS'c'
p544
(ipmx.model
Model
p545
(dp546
g4
(lp547
(lp548
I0
aI0
aI0
aa(lp549
I0
aI0
aI0
aa(lp550
I0
aI0
aI0
aasg9
Nsg10
g11
sg12
(dp551
g14
(ipmx.chain
Chain
p552
(dp553
g17
(lp554
(ipmx.molecule
Molecule
p555
(dp556
g21
I0
sg22
g552
sg23
g24
sg25
I2
sg26
g14
sg27
Nsg28
g14
sg29
S'RC'
p557
sg31
g545
sg32
(lp558
(ipmx.atom
Atom
p559
(dp560
g36
(lp561
sg38
I0
sg22
g552
sg39
F0.0
sg40
g24
sg41
S' P  '
p562
sg43
g44
sg45
g24
sg46
g24
sg47
I1
sg48
F0.0
sg49
I1
sg50
F1.0
sg51
F0.0
sg26
g14
sg52
(lp563
sg54
(lp564
sg56
F0.0
sg57
g24
sg58
F0.0
sg59
(lp565
sg61
g62
sg63
g555
sg28
g14
sg64
F0.0
sg65
(lp566
sg67
I0
sg68
g24
sg9
g62
sg69
F0.0
sg70
(lp567
sg72
g24
sg73
I0
sg74
F0.0
sg75
S'ATOM  '
p568
sg77
g44
sg78
g24
sg79
(lp569
I0
aI0
aI0
asg29
g557
sg81
(lp570
F9.12
aF-1.174
aF-12.922
asg31
g545
sg25
I31
sba(ipmx.atom
Atom
p571
(dp572
g36
(lp573
sg38
I0
sg22
g552
sg39
F0.0
sg40
g24
sg41
S' O1P'
p574
sg43
g44
sg45
g24
sg46
g24
sg47
I2
sg48
F0.0
sg49
I1
sg50
F1.0
sg51
F0.0
sg26
g14
sg52
(lp575
sg54
(lp576
sg56
F0.0
sg57
g24
sg58
F0.0
sg59
(lp577
sg61
g90
sg63
g555
sg28
g14
sg64
F0.0
sg65
(lp578
sg67
I0
sg68
g24
sg9
S'O1P'
p579
sg69
F0.0
sg70
(lp580
sg72
g24
sg73
I0
sg74
F0.0
sg75
S'ATOM  '
p581
sg77
g44
sg78
g24
sg79
(lp582
I0
aI0
aI0
asg29
S'RC'
p583
sg81
(lp584
F10.432
aF-0.456
aF-12.833
asg31
g545
sg25
I32
sba(ipmx.atom
Atom
p585
(dp586
g36
(lp587
sg38
I0
sg22
g552
sg39
F0.0
sg40
g24
sg41
S' O2P'
p588
sg43
g44
sg45
g24
sg46
g24
sg47
I3
sg48
F0.0
sg49
I1
sg50
F1.0
sg51
F0.0
sg26
g14
sg52
(lp589
sg54
(lp590
sg56
F0.0
sg57
g24
sg58
F0.0
sg59
(lp591
sg61
g90
sg63
g555
sg28
g14
sg64
F0.0
sg65
(lp592
sg67
I0
sg68
g24
sg9
S'O2P'
p593
sg69
F0.0
sg70
(lp594
sg72
g24
sg73
I0
sg74
F0.0
sg75
S'ATOM  '
p595
sg77
g44
sg78
g24
sg79
(lp596
I0
aI0
aI0
asg29
S'RC'
p597
sg81
(lp598
F8.84
aF-2.326
aF-12.074
asg31
g545
sg25
I33
sba(ipmx.atom
Atom
p599
(dp600
g36
(lp601
sg38
I0
sg22
g552
sg39
F0.0
sg40
g24
sg41
S" O5'"
p602
sg43
g44
sg45
g24
sg46
g24
sg47
I4
sg48
F0.0
sg49
I1
sg50
F1.0
sg51
F0.0
sg26
g14
sg52
(lp603
sg54
(lp604
sg56
F0.0
sg57
g24
sg58
F0.0
sg59
(lp605
sg61
g90
sg63
g555
sg28
g14
sg64
F0.0
sg65
(lp606
sg67
I0
sg68
g24
sg9
S"O5'"
p607
sg69
F0.0
sg70
(lp608
sg72
g24
sg73
I0
sg74
F0.0
sg75
S'ATOM  '
p609
sg77
g44
sg78
g24
sg79
(lp610
I0
aI0
aI0
asg29
S'RC'
p611
sg81
(lp612
F8.016
aF-0.048
aF-12.721
asg31
g545
sg25
I34
sba(ipmx.atom
Atom
p613
(dp614
g36
(lp615
sg38
I0
sg22
g552
sg39
F0.0
sg40
g24
sg41
S" C5'"
p616
sg43
g44
sg45
g24
sg46
g24
sg47
I5
sg48
F0.0
sg49
I1
sg50
F1.0
sg51
F0.0
sg26
g14
sg52
(lp617
sg54
(lp618
sg56
F0.0
sg57
g24
sg58
F0.0
sg59
(lp619
sg61
g133
sg63
g555
sg28
g14
sg64
F0.0
sg65
(lp620
sg67
I0
sg68
g24
sg9
S"C5'"
p621
sg69
F0.0
sg70
(lp622
sg72
g24
sg73
I0
sg74
F0.0
sg75
S'ATOM  '
p623
sg77
g44
sg78
g24
sg79
(lp624
I0
aI0
aI0
asg29
S'RC'
p625
sg81
(lp626
F7.907
aF1.076
aF-13.583
asg31
g545
sg25
I35
sba(ipmx.atom
Atom
p627
(dp628
g36
(lp629
sg38
I0
sg22
g552
sg39
F0.0
sg40
g24
sg41
S"1H5'"
p630
sg43
g44
sg45
g24
sg46
g24
sg47
I6
sg48
F0.0
sg49
I1
sg50
F1.0
sg51
F0.0
sg26
g14
sg52
(lp631
sg54
(lp632
sg56
F0.0
sg57
g24
sg58
F0.0
sg59
(lp633
sg61
g148
sg63
g555
sg28
g14
sg64
F0.0
sg65
(lp634
sg67
I0
sg68
g24
sg9
S"H5'1"
p635
sg69
F0.0
sg70
(lp636
sg72
g24
sg73
I0
sg74
F0.0
sg75
S'ATOM  '
p637
sg77
g44
sg78
g24
sg79
(lp638
I0
aI0
aI0
asg29
S'RC'
p639
sg81
(lp640
F7.322
aF0.802
aF-14.346
asg31
g545
sg25
I36
sba(ipmx.atom
Atom
p641
(dp642
g36
(lp643
sg38
I0
sg22
g552
sg39
F0.0
sg40
g24
sg41
S"2H5'"
p644
sg43
g44
sg45
g24
sg46
g24
sg47
I7
sg48
F0.0
sg49
I1
sg50
F1.0
sg51
F0.0
sg26
g14
sg52
(lp645
sg54
(lp646
sg56
F0.0
sg57
g24
sg58
F0.0
sg59
(lp647
sg61
g148
sg63
g555
sg28
g14
sg64
F0.0
sg65
(lp648
sg67
I0
sg68
g24
sg9
S"H5'2"
p649
sg69
F0.0
sg70
(lp650
sg72
g24
sg73
I0
sg74
F0.0
sg75
S'ATOM  '
p651
sg77
g44
sg78
g24
sg79
(lp652
I0
aI0
aI0
asg29
S'RC'
p653
sg81
(lp654
F8.827
aF1.273
aF-13.922
asg31
g545
sg25
I37
sba(ipmx.atom
Atom
p655
(dp656
g36
(lp657
sg38
I0
sg22
g552
sg39
F0.0
sg40
g24
sg41
S" C4'"
p658
sg43
g44
sg45
g24
sg46
g24
sg47
I8
sg48
F0.0
sg49
I1
sg50
F1.0
sg51
F0.0
sg26
g14
sg52
(lp659
sg54
(lp660
sg56
F0.0
sg57
g24
sg58
F0.0
sg59
(lp661
sg61
g133
sg63
g555
sg28
g14
sg64
F0.0
sg65
(lp662
sg67
I0
sg68
g24
sg9
S"C4'"
p663
sg69
F0.0
sg70
(lp664
sg72
g24
sg73
I0
sg74
F0.0
sg75
S'ATOM  '
p665
sg77
g44
sg78
g24
sg79
(lp666
I0
aI0
aI0
asg29
S'RC'
p667
sg81
(lp668
F7.32
aF2.309
aF-12.869
asg31
g545
sg25
I38
sba(ipmx.atom
Atom
p669
(dp670
g36
(lp671
sg38
I0
sg22
g552
sg39
F0.0
sg40
g24
sg41
S" H4'"
p672
sg43
g44
sg45
g24
sg46
g24
sg47
I9
sg48
F0.0
sg49
I1
sg50
F1.0
sg51
F0.0
sg26
g14
sg52
(lp673
sg54
(lp674
sg56
F0.0
sg57
g24
sg58
F0.0
sg59
(lp675
sg61
g148
sg63
g555
sg28
g14
sg64
F0.0
sg65
(lp676
sg67
I0
sg68
g24
sg9
S"H4'"
p677
sg69
F0.0
sg70
(lp678
sg72
g24
sg73
I0
sg74
F0.0
sg75
S'ATOM  '
p679
sg77
g44
sg78
g24
sg79
(lp680
I0
aI0
aI0
asg29
S'RC'
p681
sg81
(lp682
F7.57
aF3.118
aF-13.401
asg31
g545
sg25
I39
sba(ipmx.atom
Atom
p683
(dp684
g36
(lp685
sg38
I0
sg22
g552
sg39
F0.0
sg40
g24
sg41
S" O4'"
p686
sg43
g44
sg45
g24
sg46
g24
sg47
I10
sg48
F0.0
sg49
I1
sg50
F1.0
sg51
F0.0
sg26
g14
sg52
(lp687
sg54
(lp688
sg56
F0.0
sg57
g24
sg58
F0.0
sg59
(lp689
sg61
g90
sg63
g555
sg28
g14
sg64
F0.0
sg65
(lp690
sg67
I0
sg68
g24
sg9
S"O4'"
p691
sg69
F0.0
sg70
(lp692
sg72
g24
sg73
I0
sg74
F0.0
sg75
S'ATOM  '
p693
sg77
g44
sg78
g24
sg79
(lp694
I0
aI0
aI0
asg29
S'RC'
p695
sg81
(lp696
F5.899
aF2.191
aF-12.85
asg31
g545
sg25
I40
sba(ipmx.atom
Atom
p697
(dp698
g36
(lp699
sg38
I0
sg22
g552
sg39
F0.0
sg40
g24
sg41
S" C1'"
p700
sg43
g44
sg45
g24
sg46
g24
sg47
I11
sg48
F0.0
sg49
I1
sg50
F1.0
sg51
F0.0
sg26
g14
sg52
(lp701
sg54
(lp702
sg56
F0.0
sg57
g24
sg58
F0.0
sg59
(lp703
sg61
g133
sg63
g555
sg28
g14
sg64
F0.0
sg65
(lp704
sg67
I0
sg68
g24
sg9
S"C1'"
p705
sg69
F0.0
sg70
(lp706
sg72
g24
sg73
I0
sg74
F0.0
sg75
S'ATOM  '
p707
sg77
g44
sg78
g24
sg79
(lp708
I0
aI0
aI0
asg29
S'RC'
p709
sg81
(lp710
F5.479
aF1.801
aF-11.55
asg31
g545
sg25
I41
sba(ipmx.atom
Atom
p711
(dp712
g36
(lp713
sg38
I0
sg22
g552
sg39
F0.0
sg40
g24
sg41
S" H1'"
p714
sg43
g44
sg45
g24
sg46
g24
sg47
I12
sg48
F0.0
sg49
I1
sg50
F1.0
sg51
F0.0
sg26
g14
sg52
(lp715
sg54
(lp716
sg56
F0.0
sg57
g24
sg58
F0.0
sg59
(lp717
sg61
g148
sg63
g555
sg28
g14
sg64
F0.0
sg65
(lp718
sg67
I0
sg68
g24
sg9
S"H1'"
p719
sg69
F0.0
sg70
(lp720
sg72
g24
sg73
I0
sg74
F0.0
sg75
S'ATOM  '
p721
sg77
g44
sg78
g24
sg79
(lp722
I0
aI0
aI0
asg29
S'RC'
p723
sg81
(lp724
F4.889
aF2.512
aF-11.168
asg31
g545
sg25
I42
sba(ipmx.atom
Atom
p725
(dp726
g36
(lp727
sg38
I0
sg22
g552
sg39
F0.0
sg40
g24
sg41
S' N1 '
p728
sg43
g44
sg45
g24
sg46
g24
sg47
I13
sg48
F0.0
sg49
I1
sg50
F1.0
sg51
F0.0
sg26
g14
sg52
(lp729
sg54
(lp730
sg56
F0.0
sg57
g24
sg58
F0.0
sg59
(lp731
sg61
g247
sg63
g555
sg28
g14
sg64
F0.0
sg65
(lp732
sg67
I0
sg68
g24
sg9
S'N1'
p733
sg69
F0.0
sg70
(lp734
sg72
g24
sg73
I0
sg74
F0.0
sg75
S'ATOM  '
p735
sg77
g44
sg78
g24
sg79
(lp736
I0
aI0
aI0
asg29
S'RC'
p737
sg81
(lp738
F4.603
aF0.593
aF-11.626
asg31
g545
sg25
I43
sba(ipmx.atom
Atom
p739
(dp740
g36
(lp741
sg38
I0
sg22
g552
sg39
F0.0
sg40
g24
sg41
S' C6 '
p742
sg43
g44
sg45
g24
sg46
g24
sg47
I14
sg48
F0.0
sg49
I1
sg50
F1.0
sg51
F0.0
sg26
g14
sg52
(lp743
sg54
(lp744
sg56
F0.0
sg57
g24
sg58
F0.0
sg59
(lp745
sg61
g133
sg63
g555
sg28
g14
sg64
F0.0
sg65
(lp746
sg67
I0
sg68
g24
sg9
S'C6'
p747
sg69
F0.0
sg70
(lp748
sg72
g24
sg73
I0
sg74
F0.0
sg75
S'ATOM  '
p749
sg77
g44
sg78
g24
sg79
(lp750
I0
aI0
aI0
asg29
S'RC'
p751
sg81
(lp752
F5.122
aF-0.674
aF-11.691
asg31
g545
sg25
I44
sba(ipmx.atom
Atom
p753
(dp754
g36
(lp755
sg38
I0
sg22
g552
sg39
F0.0
sg40
g24
sg41
S' H6 '
p756
sg43
g44
sg45
g24
sg46
g24
sg47
I15
sg48
F0.0
sg49
I1
sg50
F1.0
sg51
F0.0
sg26
g14
sg52
(lp757
sg54
(lp758
sg56
F0.0
sg57
g24
sg58
F0.0
sg59
(lp759
sg61
g148
sg63
g555
sg28
g14
sg64
F0.0
sg65
(lp760
sg67
I0
sg68
g24
sg9
S'H6'
p761
sg69
F0.0
sg70
(lp762
sg72
g24
sg73
I0
sg74
F0.0
sg75
S'ATOM  '
p763
sg77
g44
sg78
g24
sg79
(lp764
I0
aI0
aI0
asg29
S'RC'
p765
sg81
(lp766
F6.114
aF-0.799
aF-11.691
asg31
g545
sg25
I45
sba(ipmx.atom
Atom
p767
(dp768
g36
(lp769
sg38
I0
sg22
g552
sg39
F0.0
sg40
g24
sg41
S' C5 '
p770
sg43
g44
sg45
g24
sg46
g24
sg47
I16
sg48
F0.0
sg49
I1
sg50
F1.0
sg51
F0.0
sg26
g14
sg52
(lp771
sg54
(lp772
sg56
F0.0
sg57
g24
sg58
F0.0
sg59
(lp773
sg61
g133
sg63
g555
sg28
g14
sg64
F0.0
sg65
(lp774
sg67
I0
sg68
g24
sg9
S'C5'
p775
sg69
F0.0
sg70
(lp776
sg72
g24
sg73
I0
sg74
F0.0
sg75
S'ATOM  '
p777
sg77
g44
sg78
g24
sg79
(lp778
I0
aI0
aI0
asg29
S'RC'
p779
sg81
(lp780
F4.317
aF-1.758
aF-11.755
asg31
g545
sg25
I46
sba(ipmx.atom
Atom
p781
(dp782
g36
(lp783
sg38
I0
sg22
g552
sg39
F0.0
sg40
g24
sg41
S' H5 '
p784
sg43
g44
sg45
g24
sg46
g24
sg47
I17
sg48
F0.0
sg49
I1
sg50
F1.0
sg51
F0.0
sg26
g14
sg52
(lp785
sg54
(lp786
sg56
F0.0
sg57
g24
sg58
F0.0
sg59
(lp787
sg61
g148
sg63
g555
sg28
g14
sg64
F0.0
sg65
(lp788
sg67
I0
sg68
g24
sg9
S'H5'
p789
sg69
F0.0
sg70
(lp790
sg72
g24
sg73
I0
sg74
F0.0
sg75
S'ATOM  '
p791
sg77
g44
sg78
g24
sg79
(lp792
I0
aI0
aI0
asg29
S'RC'
p793
sg81
(lp794
F4.69
aF-2.684
aF-11.808
asg31
g545
sg25
I47
sba(ipmx.atom
Atom
p795
(dp796
g36
(lp797
sg38
I0
sg22
g552
sg39
F0.0
sg40
g24
sg41
S' C4 '
p798
sg43
g44
sg45
g24
sg46
g24
sg47
I18
sg48
F0.0
sg49
I1
sg50
F1.0
sg51
F0.0
sg26
g14
sg52
(lp799
sg54
(lp800
sg56
F0.0
sg57
g24
sg58
F0.0
sg59
(lp801
sg61
g133
sg63
g555
sg28
g14
sg64
F0.0
sg65
(lp802
sg67
I0
sg68
g24
sg9
S'C4'
p803
sg69
F0.0
sg70
(lp804
sg72
g24
sg73
I0
sg74
F0.0
sg75
S'ATOM  '
p805
sg77
g44
sg78
g24
sg79
(lp806
I0
aI0
aI0
asg29
S'RC'
p807
sg81
(lp808
F2.932
aF-1.524
aF-11.744
asg31
g545
sg25
I48
sba(ipmx.atom
Atom
p809
(dp810
g36
(lp811
sg38
I0
sg22
g552
sg39
F0.0
sg40
g24
sg41
S' N4 '
p812
sg43
g44
sg45
g24
sg46
g24
sg47
I19
sg48
F0.0
sg49
I1
sg50
F1.0
sg51
F0.0
sg26
g14
sg52
(lp813
sg54
(lp814
sg56
F0.0
sg57
g24
sg58
F0.0
sg59
(lp815
sg61
g247
sg63
g555
sg28
g14
sg64
F0.0
sg65
(lp816
sg67
I0
sg68
g24
sg9
S'N4'
p817
sg69
F0.0
sg70
(lp818
sg72
g24
sg73
I0
sg74
F0.0
sg75
S'ATOM  '
p819
sg77
g44
sg78
g24
sg79
(lp820
I0
aI0
aI0
asg29
S'RC'
p821
sg81
(lp822
F2.13
aF-2.541
aF-11.824
asg31
g545
sg25
I49
sba(ipmx.atom
Atom
p823
(dp824
g36
(lp825
sg38
I0
sg22
g552
sg39
F0.0
sg40
g24
sg41
S' H41'
p826
sg43
g44
sg45
g24
sg46
g24
sg47
I20
sg48
F0.0
sg49
I1
sg50
F1.0
sg51
F0.0
sg26
g14
sg52
(lp827
sg54
(lp828
sg56
F0.0
sg57
g24
sg58
F0.0
sg59
(lp829
sg61
g148
sg63
g555
sg28
g14
sg64
F0.0
sg65
(lp830
sg67
I0
sg68
g24
sg9
S'H41'
p831
sg69
F0.0
sg70
(lp832
sg72
g24
sg73
I0
sg74
F0.0
sg75
S'ATOM  '
p833
sg77
g44
sg78
g24
sg79
(lp834
I0
aI0
aI0
asg29
S'RC'
p835
sg81
(lp836
F2.502
aF-3.467
aF-11.892
asg31
g545
sg25
I50
sba(ipmx.atom
Atom
p837
(dp838
g36
(lp839
sg38
I0
sg22
g552
sg39
F0.0
sg40
g24
sg41
S' H42'
p840
sg43
g44
sg45
g24
sg46
g24
sg47
I21
sg48
F0.0
sg49
I1
sg50
F1.0
sg51
F0.0
sg26
g14
sg52
(lp841
sg54
(lp842
sg56
F0.0
sg57
g24
sg58
F0.0
sg59
(lp843
sg61
g148
sg63
g555
sg28
g14
sg64
F0.0
sg65
(lp844
sg67
I0
sg68
g24
sg9
S'H42'
p845
sg69
F0.0
sg70
(lp846
sg72
g24
sg73
I0
sg74
F0.0
sg75
S'ATOM  '
p847
sg77
g44
sg78
g24
sg79
(lp848
I0
aI0
aI0
asg29
S'RC'
p849
sg81
(lp850
F1.14
aF-2.399
aF-11.818
asg31
g545
sg25
I51
sba(ipmx.atom
Atom
p851
(dp852
g36
(lp853
sg38
I0
sg22
g552
sg39
F0.0
sg40
g24
sg41
S' N3 '
p854
sg43
g44
sg45
g24
sg46
g24
sg47
I22
sg48
F0.0
sg49
I1
sg50
F1.0
sg51
F0.0
sg26
g14
sg52
(lp855
sg54
(lp856
sg56
F0.0
sg57
g24
sg58
F0.0
sg59
(lp857
sg61
g247
sg63
g555
sg28
g14
sg64
F0.0
sg65
(lp858
sg67
I0
sg68
g24
sg9
S'N3'
p859
sg69
F0.0
sg70
(lp860
sg72
g24
sg73
I0
sg74
F0.0
sg75
S'ATOM  '
p861
sg77
g44
sg78
g24
sg79
(lp862
I0
aI0
aI0
asg29
S'RC'
p863
sg81
(lp864
F2.386
aF-0.328
aF-11.672
asg31
g545
sg25
I52
sba(ipmx.atom
Atom
p865
(dp866
g36
(lp867
sg38
I0
sg22
g552
sg39
F0.0
sg40
g24
sg41
S' C2 '
p868
sg43
g44
sg45
g24
sg46
g24
sg47
I23
sg48
F0.0
sg49
I1
sg50
F1.0
sg51
F0.0
sg26
g14
sg52
(lp869
sg54
(lp870
sg56
F0.0
sg57
g24
sg58
F0.0
sg59
(lp871
sg61
g133
sg63
g555
sg28
g14
sg64
F0.0
sg65
(lp872
sg67
I0
sg68
g24
sg9
S'C2'
p873
sg69
F0.0
sg70
(lp874
sg72
g24
sg73
I0
sg74
F0.0
sg75
S'ATOM  '
p875
sg77
g44
sg78
g24
sg79
(lp876
I0
aI0
aI0
asg29
S'RC'
p877
sg81
(lp878
F3.212
aF0.748
aF-11.61
asg31
g545
sg25
I53
sba(ipmx.atom
Atom
p879
(dp880
g36
(lp881
sg38
I0
sg22
g552
sg39
F0.0
sg40
g24
sg41
S' O2 '
p882
sg43
g44
sg45
g24
sg46
g24
sg47
I24
sg48
F0.0
sg49
I1
sg50
F1.0
sg51
F0.0
sg26
g14
sg52
(lp883
sg54
(lp884
sg56
F0.0
sg57
g24
sg58
F0.0
sg59
(lp885
sg61
g90
sg63
g555
sg28
g14
sg64
F0.0
sg65
(lp886
sg67
I0
sg68
g24
sg9
S'O2'
p887
sg69
F0.0
sg70
(lp888
sg72
g24
sg73
I0
sg74
F0.0
sg75
S'ATOM  '
p889
sg77
g44
sg78
g24
sg79
(lp890
I0
aI0
aI0
asg29
S'RC'
p891
sg81
(lp892
F2.673
aF1.855
aF-11.532
asg31
g545
sg25
I54
sba(ipmx.atom
Atom
p893
(dp894
g36
(lp895
sg38
I0
sg22
g552
sg39
F0.0
sg40
g24
sg41
S" C3'"
p896
sg43
g44
sg45
g24
sg46
g24
sg47
I25
sg48
F0.0
sg49
I1
sg50
F1.0
sg51
F0.0
sg26
g14
sg52
(lp897
sg54
(lp898
sg56
F0.0
sg57
g24
sg58
F0.0
sg59
(lp899
sg61
g133
sg63
g555
sg28
g14
sg64
F0.0
sg65
(lp900
sg67
I0
sg68
g24
sg9
S"C3'"
p901
sg69
F0.0
sg70
(lp902
sg72
g24
sg73
I0
sg74
F0.0
sg75
S'ATOM  '
p903
sg77
g44
sg78
g24
sg79
(lp904
I0
aI0
aI0
asg29
S'RC'
p905
sg81
(lp906
F7.796
aF2.5
aF-11.411
asg31
g545
sg25
I55
sba(ipmx.atom
Atom
p907
(dp908
g36
(lp909
sg38
I0
sg22
g552
sg39
F0.0
sg40
g24
sg41
S" H3'"
p910
sg43
g44
sg45
g24
sg46
g24
sg47
I26
sg48
F0.0
sg49
I1
sg50
F1.0
sg51
F0.0
sg26
g14
sg52
(lp911
sg54
(lp912
sg56
F0.0
sg57
g24
sg58
F0.0
sg59
(lp913
sg61
g148
sg63
g555
sg28
g14
sg64
F0.0
sg65
(lp914
sg67
I0
sg68
g24
sg9
S"H3'"
p915
sg69
F0.0
sg70
(lp916
sg72
g24
sg73
I0
sg74
F0.0
sg75
S'ATOM  '
p917
sg77
g44
sg78
g24
sg79
(lp918
I0
aI0
aI0
asg29
S'RC'
p919
sg81
(lp920
F8.738
aF2.28
aF-11.157
asg31
g545
sg25
I56
sba(ipmx.atom
Atom
p921
(dp922
g36
(lp923
sg38
I0
sg22
g552
sg39
F0.0
sg40
g24
sg41
S" C2'"
p924
sg43
g44
sg45
g24
sg46
g24
sg47
I27
sg48
F0.0
sg49
I1
sg50
F1.0
sg51
F0.0
sg26
g14
sg52
(lp925
sg54
(lp926
sg56
F0.0
sg57
g24
sg58
F0.0
sg59
(lp927
sg61
g133
sg63
g555
sg28
g14
sg64
F0.0
sg65
(lp928
sg67
I0
sg68
g24
sg9
S"C2'"
p929
sg69
F0.0
sg70
(lp930
sg72
g24
sg73
I0
sg74
F0.0
sg75
S'ATOM  '
p931
sg77
g44
sg78
g24
sg79
(lp932
I0
aI0
aI0
asg29
S'RC'
p933
sg81
(lp934
F6.748
aF1.638
aF-10.701
asg31
g545
sg25
I57
sba(ipmx.atom
Atom
p935
(dp936
g36
(lp937
sg38
I0
sg22
g552
sg39
F0.0
sg40
g24
sg41
S"1H2'"
p938
sg43
g44
sg45
g24
sg46
g24
sg47
I28
sg48
F0.0
sg49
I1
sg50
F1.0
sg51
F0.0
sg26
g14
sg52
(lp939
sg54
(lp940
sg56
F0.0
sg57
g24
sg58
F0.0
sg59
(lp941
sg61
g148
sg63
g555
sg28
g14
sg64
F0.0
sg65
(lp942
sg67
I0
sg68
g24
sg9
S"H2'1"
p943
sg69
F0.0
sg70
(lp944
sg72
g24
sg73
I0
sg74
F0.0
sg75
S'ATOM  '
p945
sg77
g44
sg78
g24
sg79
(lp946
I0
aI0
aI0
asg29
S'RC'
p947
sg81
(lp948
F7.037
aF0.681
aF-10.675
asg31
g545
sg25
I58
sba(ipmx.atom
Atom
p949
(dp950
g36
(lp951
sg38
I0
sg22
g552
sg39
F0.0
sg40
g24
sg41
S" O2'"
p952
sg43
g44
sg45
g24
sg46
g24
sg47
I29
sg48
F0.0
sg49
I1
sg50
F1.0
sg51
F0.0
sg26
g14
sg52
(lp953
sg54
(lp954
sg56
F0.0
sg57
g24
sg58
F0.0
sg59
(lp955
sg61
g90
sg63
g555
sg28
g14
sg64
F0.0
sg65
(lp956
sg67
I0
sg68
g24
sg9
S"O2'"
p957
sg69
F0.0
sg70
(lp958
sg72
g24
sg73
I0
sg74
F0.0
sg75
S'ATOM  '
p959
sg77
g44
sg78
g24
sg79
(lp960
I0
aI0
aI0
asg29
S'RC'
p961
sg81
(lp962
F6.485
aF2.326
aF-9.494
asg31
g545
sg25
I31
sba(ipmx.atom
Atom
p963
(dp964
g36
(lp965
sg38
I0
sg22
g552
sg39
F0.0
sg40
g24
sg41
S"2HO'"
p966
sg43
g44
sg45
g24
sg46
g24
sg47
I30
sg48
F0.0
sg49
I1
sg50
F1.0
sg51
F0.0
sg26
g14
sg52
(lp967
sg54
(lp968
sg56
F0.0
sg57
g24
sg58
F0.0
sg59
(lp969
sg61
g148
sg63
g555
sg28
g14
sg64
F0.0
sg65
(lp970
sg67
I0
sg68
g24
sg9
S"HO'2"
p971
sg69
F0.0
sg70
(lp972
sg72
g24
sg73
I0
sg74
F0.0
sg75
S'ATOM  '
p973
sg77
g44
sg78
g24
sg79
(lp974
I0
aI0
aI0
asg29
S'RC'
p975
sg81
(lp976
F7.271
aF2.236
aF-8.883
asg31
g545
sg25
I32
sba(ipmx.atom
Atom
p977
(dp978
g36
(lp979
sg38
I0
sg22
g552
sg39
F0.0
sg40
g24
sg41
S" O3'"
p980
sg43
g44
sg45
g24
sg46
g24
sg47
I31
sg48
F0.0
sg49
I1
sg50
F1.0
sg51
F0.0
sg26
g14
sg52
(lp981
sg54
(lp982
sg56
F0.0
sg57
g24
sg58
F0.0
sg59
(lp983
sg61
g90
sg63
g555
sg28
g14
sg64
F0.0
sg65
(lp984
sg67
I0
sg68
g24
sg9
S"O3'"
p985
sg69
F0.0
sg70
(lp986
sg72
g24
sg73
I0
sg74
F0.0
sg75
S'ATOM  '
p987
sg77
g44
sg78
g24
sg79
(lp988
I0
aI0
aI0
asg29
S'RC'
p989
sg81
(lp990
F7.854
aF3.896
aF-11.059
asg31
g545
sg25
I60
sbasg47
I1
sg535
Nsbasg32
(lp991
g559
ag571
ag585
ag599
ag613
ag627
ag641
ag655
ag669
ag683
ag697
ag711
ag725
ag739
ag753
ag767
ag781
ag795
ag809
ag823
ag837
ag851
ag865
ag879
ag893
ag907
ag921
ag935
ag949
ag963
ag977
asg537
I0
sg28
g14
sg31
g545
sg538
I00
sg47
g14
sbssg17
(lp992
g555
asg32
(lp993
g559
ag571
ag585
ag599
ag613
ag627
ag641
ag655
ag669
ag683
ag697
ag711
ag725
ag739
ag753
ag767
ag781
ag795
ag809
ag823
ag837
ag851
ag865
ag879
ag893
ag907
ag921
ag935
ag949
ag963
ag977
asg28
g14
sg541
(lp994
g552
asg47
I0
sg543
I0
sbsS'u'
p995
(ipmx.model
Model
p996
(dp997
g4
(lp998
(lp999
I0
aI0
aI0
aa(lp1000
I0
aI0
aI0
aa(lp1001
I0
aI0
aI0
aasg9
Nsg10
g11
sg12
(dp1002
g14
(ipmx.chain
Chain
p1003
(dp1004
g17
(lp1005
(ipmx.molecule
Molecule
p1006
(dp1007
g21
I0
sg22
g1003
sg23
g24
sg25
I2
sg26
g14
sg27
Nsg28
g14
sg29
S'RU'
p1008
sg31
g996
sg32
(lp1009
(ipmx.atom
Atom
p1010
(dp1011
g36
(lp1012
sg38
I0
sg22
g1003
sg39
F0.0
sg40
g24
sg41
S' P  '
p1013
sg43
g44
sg45
g24
sg46
g24
sg47
I1
sg48
F0.0
sg49
I1
sg50
F1.0
sg51
F0.0
sg26
g14
sg52
(lp1014
sg54
(lp1015
sg56
F0.0
sg57
g24
sg58
F0.0
sg59
(lp1016
sg61
g62
sg63
g1006
sg28
g14
sg64
F0.0
sg65
(lp1017
sg67
I0
sg68
g24
sg9
g62
sg69
F0.0
sg70
(lp1018
sg72
g24
sg73
I0
sg74
F0.0
sg75
S'ATOM  '
p1019
sg77
g44
sg78
g24
sg79
(lp1020
I0
aI0
aI0
asg29
g1008
sg81
(lp1021
F9.125
aF-1.154
aF-12.929
asg31
g996
sg25
I3
sba(ipmx.atom
Atom
p1022
(dp1023
g36
(lp1024
sg38
I0
sg22
g1003
sg39
F0.0
sg40
g24
sg41
S' O1P'
p1025
sg43
g44
sg45
g24
sg46
g24
sg47
I2
sg48
F0.0
sg49
I1
sg50
F1.0
sg51
F0.0
sg26
g14
sg52
(lp1026
sg54
(lp1027
sg56
F0.0
sg57
g24
sg58
F0.0
sg59
(lp1028
sg61
g90
sg63
g1006
sg28
g14
sg64
F0.0
sg65
(lp1029
sg67
I0
sg68
g24
sg9
S'O1P'
p1030
sg69
F0.0
sg70
(lp1031
sg72
g24
sg73
I0
sg74
F0.0
sg75
S'ATOM  '
p1032
sg77
g44
sg78
g24
sg79
(lp1033
I0
aI0
aI0
asg29
S'RU'
p1034
sg81
(lp1035
F10.432
aF-0.426
aF-12.83
asg31
g996
sg25
I4
sba(ipmx.atom
Atom
p1036
(dp1037
g36
(lp1038
sg38
I0
sg22
g1003
sg39
F0.0
sg40
g24
sg41
S' O2P'
p1039
sg43
g44
sg45
g24
sg46
g24
sg47
I3
sg48
F0.0
sg49
I1
sg50
F1.0
sg51
F0.0
sg26
g14
sg52
(lp1040
sg54
(lp1041
sg56
F0.0
sg57
g24
sg58
F0.0
sg59
(lp1042
sg61
g90
sg63
g1006
sg28
g14
sg64
F0.0
sg65
(lp1043
sg67
I0
sg68
g24
sg9
S'O2P'
p1044
sg69
F0.0
sg70
(lp1045
sg72
g24
sg73
I0
sg74
F0.0
sg75
S'ATOM  '
p1046
sg77
g44
sg78
g24
sg79
(lp1047
I0
aI0
aI0
asg29
S'RU'
p1048
sg81
(lp1049
F8.86
aF-2.314
aF-12.087
asg31
g996
sg25
I5
sba(ipmx.atom
Atom
p1050
(dp1051
g36
(lp1052
sg38
I0
sg22
g1003
sg39
F0.0
sg40
g24
sg41
S" O5'"
p1053
sg43
g44
sg45
g24
sg46
g24
sg47
I4
sg48
F0.0
sg49
I1
sg50
F1.0
sg51
F0.0
sg26
g14
sg52
(lp1054
sg54
(lp1055
sg56
F0.0
sg57
g24
sg58
F0.0
sg59
(lp1056
sg61
g90
sg63
g1006
sg28
g14
sg64
F0.0
sg65
(lp1057
sg67
I0
sg68
g24
sg9
S"O5'"
p1058
sg69
F0.0
sg70
(lp1059
sg72
g24
sg73
I0
sg74
F0.0
sg75
S'ATOM  '
p1060
sg77
g44
sg78
g24
sg79
(lp1061
I0
aI0
aI0
asg29
S'RU'
p1062
sg81
(lp1063
F8.019
aF-0.032
aF-12.718
asg31
g996
sg25
I7
sba(ipmx.atom
Atom
p1064
(dp1065
g36
(lp1066
sg38
I0
sg22
g1003
sg39
F0.0
sg40
g24
sg41
S" C5'"
p1067
sg43
g44
sg45
g24
sg46
g24
sg47
I5
sg48
F0.0
sg49
I1
sg50
F1.0
sg51
F0.0
sg26
g14
sg52
(lp1068
sg54
(lp1069
sg56
F0.0
sg57
g24
sg58
F0.0
sg59
(lp1070
sg61
g133
sg63
g1006
sg28
g14
sg64
F0.0
sg65
(lp1071
sg67
I0
sg68
g24
sg9
S"C5'"
p1072
sg69
F0.0
sg70
(lp1073
sg72
g24
sg73
I0
sg74
F0.0
sg75
S'ATOM  '
p1074
sg77
g44
sg78
g24
sg79
(lp1075
I0
aI0
aI0
asg29
S'RU'
p1076
sg81
(lp1077
F7.909
aF1.093
aF-13.58
asg31
g996
sg25
I6
sba(ipmx.atom
Atom
p1078
(dp1079
g36
(lp1080
sg38
I0
sg22
g1003
sg39
F0.0
sg40
g24
sg41
S"1H5'"
p1081
sg43
g44
sg45
g24
sg46
g24
sg47
I6
sg48
F0.0
sg49
I1
sg50
F1.0
sg51
F0.0
sg26
g14
sg52
(lp1082
sg54
(lp1083
sg56
F0.0
sg57
g24
sg58
F0.0
sg59
(lp1084
sg61
g148
sg63
g1006
sg28
g14
sg64
F0.0
sg65
(lp1085
sg67
I0
sg68
g24
sg9
S"H5'1"
p1086
sg69
F0.0
sg70
(lp1087
sg72
g24
sg73
I0
sg74
F0.0
sg75
S'ATOM  '
p1088
sg77
g44
sg78
g24
sg79
(lp1089
I0
aI0
aI0
asg29
S'RU'
p1090
sg81
(lp1091
F7.322
aF0.819
aF-14.342
asg31
g996
sg25
I29
sba(ipmx.atom
Atom
p1092
(dp1093
g36
(lp1094
sg38
I0
sg22
g1003
sg39
F0.0
sg40
g24
sg41
S"2H5'"
p1095
sg43
g44
sg45
g24
sg46
g24
sg47
I7
sg48
F0.0
sg49
I1
sg50
F1.0
sg51
F0.0
sg26
g14
sg52
(lp1096
sg54
(lp1097
sg56
F0.0
sg57
g24
sg58
F0.0
sg59
(lp1098
sg61
g148
sg63
g1006
sg28
g14
sg64
F0.0
sg65
(lp1099
sg67
I0
sg68
g24
sg9
S"H5'2"
p1100
sg69
F0.0
sg70
(lp1101
sg72
g24
sg73
I0
sg74
F0.0
sg75
S'ATOM  '
p1102
sg77
g44
sg78
g24
sg79
(lp1103
I0
aI0
aI0
asg29
S'RU'
p1104
sg81
(lp1105
F8.828
aF1.289
aF-13.921
asg31
g996
sg25
I30
sba(ipmx.atom
Atom
p1106
(dp1107
g36
(lp1108
sg38
I0
sg22
g1003
sg39
F0.0
sg40
g24
sg41
S" C4'"
p1109
sg43
g44
sg45
g24
sg46
g24
sg47
I8
sg48
F0.0
sg49
I1
sg50
F1.0
sg51
F0.0
sg26
g14
sg52
(lp1110
sg54
(lp1111
sg56
F0.0
sg57
g24
sg58
F0.0
sg59
(lp1112
sg61
g133
sg63
g1006
sg28
g14
sg64
F0.0
sg65
(lp1113
sg67
I0
sg68
g24
sg9
S"C4'"
p1114
sg69
F0.0
sg70
(lp1115
sg72
g24
sg73
I0
sg74
F0.0
sg75
S'ATOM  '
p1116
sg77
g44
sg78
g24
sg79
(lp1117
I0
aI0
aI0
asg29
S'RU'
p1118
sg81
(lp1119
F7.325
aF2.328
aF-12.869
asg31
g996
sg25
I8
sba(ipmx.atom
Atom
p1120
(dp1121
g36
(lp1122
sg38
I0
sg22
g1003
sg39
F0.0
sg40
g24
sg41
S" H4'"
p1123
sg43
g44
sg45
g24
sg46
g24
sg47
I9
sg48
F0.0
sg49
I1
sg50
F1.0
sg51
F0.0
sg26
g14
sg52
(lp1124
sg54
(lp1125
sg56
F0.0
sg57
g24
sg58
F0.0
sg59
(lp1126
sg61
g148
sg63
g1006
sg28
g14
sg64
F0.0
sg65
(lp1127
sg67
I0
sg68
g24
sg9
S"H4'"
p1128
sg69
F0.0
sg70
(lp1129
sg72
g24
sg73
I0
sg74
F0.0
sg75
S'ATOM  '
p1130
sg77
g44
sg78
g24
sg79
(lp1131
I0
aI0
aI0
asg29
S'RU'
p1132
sg81
(lp1133
F7.576
aF3.136
aF-13.402
asg31
g996
sg25
I28
sba(ipmx.atom
Atom
p1134
(dp1135
g36
(lp1136
sg38
I0
sg22
g1003
sg39
F0.0
sg40
g24
sg41
S" O4'"
p1137
sg43
g44
sg45
g24
sg46
g24
sg47
I10
sg48
F0.0
sg49
I1
sg50
F1.0
sg51
F0.0
sg26
g14
sg52
(lp1138
sg54
(lp1139
sg56
F0.0
sg57
g24
sg58
F0.0
sg59
(lp1140
sg61
g90
sg63
g1006
sg28
g14
sg64
F0.0
sg65
(lp1141
sg67
I0
sg68
g24
sg9
S"O4'"
p1142
sg69
F0.0
sg70
(lp1143
sg72
g24
sg73
I0
sg74
F0.0
sg75
S'ATOM  '
p1144
sg77
g44
sg78
g24
sg79
(lp1145
I0
aI0
aI0
asg29
S'RU'
p1146
sg81
(lp1147
F5.904
aF2.212
aF-12.853
asg31
g996
sg25
I9
sba(ipmx.atom
Atom
p1148
(dp1149
g36
(lp1150
sg38
I0
sg22
g1003
sg39
F0.0
sg40
g24
sg41
S" C1'"
p1151
sg43
g44
sg45
g24
sg46
g24
sg47
I11
sg48
F0.0
sg49
I1
sg50
F1.0
sg51
F0.0
sg26
g14
sg52
(lp1152
sg54
(lp1153
sg56
F0.0
sg57
g24
sg58
F0.0
sg59
(lp1154
sg61
g133
sg63
g1006
sg28
g14
sg64
F0.0
sg65
(lp1155
sg67
I0
sg68
g24
sg9
S"C1'"
p1156
sg69
F0.0
sg70
(lp1157
sg72
g24
sg73
I0
sg74
F0.0
sg75
S'ATOM  '
p1158
sg77
g44
sg78
g24
sg79
(lp1159
I0
aI0
aI0
asg29
S'RU'
p1160
sg81
(lp1161
F5.49
aF1.817
aF-11.553
asg31
g996
sg25
I13
sba(ipmx.atom
Atom
p1162
(dp1163
g36
(lp1164
sg38
I0
sg22
g1003
sg39
F0.0
sg40
g24
sg41
S" H1'"
p1165
sg43
g44
sg45
g24
sg46
g24
sg47
I12
sg48
F0.0
sg49
I1
sg50
F1.0
sg51
F0.0
sg26
g14
sg52
(lp1166
sg54
(lp1167
sg56
F0.0
sg57
g24
sg58
F0.0
sg59
(lp1168
sg61
g148
sg63
g1006
sg28
g14
sg64
F0.0
sg65
(lp1169
sg67
I0
sg68
g24
sg9
S"H1'"
p1170
sg69
F0.0
sg70
(lp1171
sg72
g24
sg73
I0
sg74
F0.0
sg75
S'ATOM  '
p1172
sg77
g44
sg78
g24
sg79
(lp1173
I0
aI0
aI0
asg29
S'RU'
p1174
sg81
(lp1175
F4.901
aF2.524
aF-11.162
asg31
g996
sg25
I25
sba(ipmx.atom
Atom
p1176
(dp1177
g36
(lp1178
sg38
I0
sg22
g1003
sg39
F0.0
sg40
g24
sg41
S' N1 '
p1179
sg43
g44
sg45
g24
sg46
g24
sg47
I13
sg48
F0.0
sg49
I1
sg50
F1.0
sg51
F0.0
sg26
g14
sg52
(lp1180
sg54
(lp1181
sg56
F0.0
sg57
g24
sg58
F0.0
sg59
(lp1182
sg61
g247
sg63
g1006
sg28
g14
sg64
F0.0
sg65
(lp1183
sg67
I0
sg68
g24
sg9
S'N1'
p1184
sg69
F0.0
sg70
(lp1185
sg72
g24
sg73
I0
sg74
F0.0
sg75
S'ATOM  '
p1186
sg77
g44
sg78
g24
sg79
(lp1187
I0
aI0
aI0
asg29
S'RU'
p1188
sg81
(lp1189
F4.623
aF0.604
aF-11.643
asg31
g996
sg25
I14
sba(ipmx.atom
Atom
p1190
(dp1191
g36
(lp1192
sg38
I0
sg22
g1003
sg39
F0.0
sg40
g24
sg41
S' C6 '
p1193
sg43
g44
sg45
g24
sg46
g24
sg47
I14
sg48
F0.0
sg49
I1
sg50
F1.0
sg51
F0.0
sg26
g14
sg52
(lp1194
sg54
(lp1195
sg56
F0.0
sg57
g24
sg58
F0.0
sg59
(lp1196
sg61
g133
sg63
g1006
sg28
g14
sg64
F0.0
sg65
(lp1197
sg67
I0
sg68
g24
sg9
S'C6'
p1198
sg69
F0.0
sg70
(lp1199
sg72
g24
sg73
I0
sg74
F0.0
sg75
S'ATOM  '
p1200
sg77
g44
sg78
g24
sg79
(lp1201
I0
aI0
aI0
asg29
S'RU'
p1202
sg81
(lp1203
F5.137
aF-0.683
aF-11.698
asg31
g996
sg25
I21
sba(ipmx.atom
Atom
p1204
(dp1205
g36
(lp1206
sg38
I0
sg22
g1003
sg39
F0.0
sg40
g24
sg41
S' H6 '
p1207
sg43
g44
sg45
g24
sg46
g24
sg47
I15
sg48
F0.0
sg49
I1
sg50
F1.0
sg51
F0.0
sg26
g14
sg52
(lp1208
sg54
(lp1209
sg56
F0.0
sg57
g24
sg58
F0.0
sg59
(lp1210
sg61
g148
sg63
g1006
sg28
g14
sg64
F0.0
sg65
(lp1211
sg67
I0
sg68
g24
sg9
S'H6'
p1212
sg69
F0.0
sg70
(lp1213
sg72
g24
sg73
I0
sg74
F0.0
sg75
S'ATOM  '
p1214
sg77
g44
sg78
g24
sg79
(lp1215
I0
aI0
aI0
asg29
S'RU'
p1216
sg81
(lp1217
F6.128
aF-0.813
aF-11.713
asg31
g996
sg25
I23
sba(ipmx.atom
Atom
p1218
(dp1219
g36
(lp1220
sg38
I0
sg22
g1003
sg39
F0.0
sg40
g24
sg41
S' C5 '
p1221
sg43
g44
sg45
g24
sg46
g24
sg47
I16
sg48
F0.0
sg49
I1
sg50
F1.0
sg51
F0.0
sg26
g14
sg52
(lp1222
sg54
(lp1223
sg56
F0.0
sg57
g24
sg58
F0.0
sg59
(lp1224
sg61
g133
sg63
g1006
sg28
g14
sg64
F0.0
sg65
(lp1225
sg67
I0
sg68
g24
sg9
S'C5'
p1226
sg69
F0.0
sg70
(lp1227
sg72
g24
sg73
I0
sg74
F0.0
sg75
S'ATOM  '
p1228
sg77
g44
sg78
g24
sg79
(lp1229
I0
aI0
aI0
asg29
S'RU'
p1230
sg81
(lp1231
F4.321
aF-1.774
aF-11.732
asg31
g996
sg25
I20
sba(ipmx.atom
Atom
p1232
(dp1233
g36
(lp1234
sg38
I0
sg22
g1003
sg39
F0.0
sg40
g24
sg41
S' H5 '
p1235
sg43
g44
sg45
g24
sg46
g24
sg47
I17
sg48
F0.0
sg49
I1
sg50
F1.0
sg51
F0.0
sg26
g14
sg52
(lp1236
sg54
(lp1237
sg56
F0.0
sg57
g24
sg58
F0.0
sg59
(lp1238
sg61
g148
sg63
g1006
sg28
g14
sg64
F0.0
sg65
(lp1239
sg67
I0
sg68
g24
sg9
S'H5'
p1240
sg69
F0.0
sg70
(lp1241
sg72
g24
sg73
I0
sg74
F0.0
sg75
S'ATOM  '
p1242
sg77
g44
sg78
g24
sg79
(lp1243
I0
aI0
aI0
asg29
S'RU'
p1244
sg81
(lp1245
F4.681
aF-2.803
aF-11.714
asg31
g996
sg25
I24
sba(ipmx.atom
Atom
p1246
(dp1247
g36
(lp1248
sg38
I0
sg22
g1003
sg39
F0.0
sg40
g24
sg41
S' C4 '
p1249
sg43
g44
sg45
g24
sg46
g24
sg47
I18
sg48
F0.0
sg49
I1
sg50
F1.0
sg51
F0.0
sg26
g14
sg52
(lp1250
sg54
(lp1251
sg56
F0.0
sg57
g24
sg58
F0.0
sg59
(lp1252
sg61
g133
sg63
g1006
sg28
g14
sg64
F0.0
sg65
(lp1253
sg67
I0
sg68
g24
sg9
S'C4'
p1254
sg69
F0.0
sg70
(lp1255
sg72
g24
sg73
I0
sg74
F0.0
sg75
S'ATOM  '
p1256
sg77
g44
sg78
g24
sg79
(lp1257
I0
aI0
aI0
asg29
S'RU'
p1258
sg81
(lp1259
F2.889
aF-1.592
aF-11.754
asg31
g996
sg25
I18
sba(ipmx.atom
Atom
p1260
(dp1261
g36
(lp1262
sg38
I0
sg22
g1003
sg39
F0.0
sg40
g24
sg41
S' O4 '
p1263
sg43
g44
sg45
g24
sg46
g24
sg47
I19
sg48
F0.0
sg49
I1
sg50
F1.0
sg51
F0.0
sg26
g14
sg52
(lp1264
sg54
(lp1265
sg56
F0.0
sg57
g24
sg58
F0.0
sg59
(lp1266
sg61
g90
sg63
g1006
sg28
g14
sg64
F0.0
sg65
(lp1267
sg67
I0
sg68
g24
sg9
S'O4'
p1268
sg69
F0.0
sg70
(lp1269
sg72
g24
sg73
I0
sg74
F0.0
sg75
S'ATOM  '
p1270
sg77
g44
sg78
g24
sg79
(lp1271
I0
aI0
aI0
asg29
S'RU'
p1272
sg81
(lp1273
F2.074
aF-2.501
aF-11.803
asg31
g996
sg25
I19
sba(ipmx.atom
Atom
p1274
(dp1275
g36
(lp1276
sg38
I0
sg22
g1003
sg39
F0.0
sg40
g24
sg41
S' N3 '
p1277
sg43
g44
sg45
g24
sg46
g24
sg47
I20
sg48
F0.0
sg49
I1
sg50
F1.0
sg51
F0.0
sg26
g14
sg52
(lp1278
sg54
(lp1279
sg56
F0.0
sg57
g24
sg58
F0.0
sg59
(lp1280
sg61
g247
sg63
g1006
sg28
g14
sg64
F0.0
sg65
(lp1281
sg67
I0
sg68
g24
sg9
S'N3'
p1282
sg69
F0.0
sg70
(lp1283
sg72
g24
sg73
I0
sg74
F0.0
sg75
S'ATOM  '
p1284
sg77
g44
sg78
g24
sg79
(lp1285
I0
aI0
aI0
asg29
S'RU'
p1286
sg81
(lp1287
F2.445
aF-0.305
aF-11.677
asg31
g996
sg25
I17
sba(ipmx.atom
Atom
p1288
(dp1289
g36
(lp1290
sg38
I0
sg22
g1003
sg39
F0.0
sg40
g24
sg41
S' H3 '
p1291
sg43
g44
sg45
g24
sg46
g24
sg47
I21
sg48
F0.0
sg49
I1
sg50
F1.0
sg51
F0.0
sg26
g14
sg52
(lp1292
sg54
(lp1293
sg56
F0.0
sg57
g24
sg58
F0.0
sg59
(lp1294
sg61
g148
sg63
g1006
sg28
g14
sg64
F0.0
sg65
(lp1295
sg67
I0
sg68
g24
sg9
S'H3'
p1296
sg69
F0.0
sg70
(lp1297
sg72
g24
sg73
I0
sg74
F0.0
sg75
S'ATOM  '
p1298
sg77
g44
sg78
g24
sg79
(lp1299
I0
aI0
aI0
asg29
S'RU'
p1300
sg81
(lp1301
F1.455
aF-0.163
aF-11.662
asg31
g996
sg25
I22
sba(ipmx.atom
Atom
p1302
(dp1303
g36
(lp1304
sg38
I0
sg22
g1003
sg39
F0.0
sg40
g24
sg41
S' C2 '
p1305
sg43
g44
sg45
g24
sg46
g24
sg47
I22
sg48
F0.0
sg49
I1
sg50
F1.0
sg51
F0.0
sg26
g14
sg52
(lp1306
sg54
(lp1307
sg56
F0.0
sg57
g24
sg58
F0.0
sg59
(lp1308
sg61
g133
sg63
g1006
sg28
g14
sg64
F0.0
sg65
(lp1309
sg67
I0
sg68
g24
sg9
S'C2'
p1310
sg69
F0.0
sg70
(lp1311
sg72
g24
sg73
I0
sg74
F0.0
sg75
S'ATOM  '
p1312
sg77
g44
sg78
g24
sg79
(lp1313
I0
aI0
aI0
asg29
S'RU'
p1314
sg81
(lp1315
F3.241
aF0.812
aF-11.618
asg31
g996
sg25
I15
sba(ipmx.atom
Atom
p1316
(dp1317
g36
(lp1318
sg38
I0
sg22
g1003
sg39
F0.0
sg40
g24
sg41
S' O2 '
p1319
sg43
g44
sg45
g24
sg46
g24
sg47
I23
sg48
F0.0
sg49
I1
sg50
F1.0
sg51
F0.0
sg26
g14
sg52
(lp1320
sg54
(lp1321
sg56
F0.0
sg57
g24
sg58
F0.0
sg59
(lp1322
sg61
g90
sg63
g1006
sg28
g14
sg64
F0.0
sg65
(lp1323
sg67
I0
sg68
g24
sg9
S'O2'
p1324
sg69
F0.0
sg70
(lp1325
sg72
g24
sg73
I0
sg74
F0.0
sg75
S'ATOM  '
p1326
sg77
g44
sg78
g24
sg79
(lp1327
I0
aI0
aI0
asg29
S'RU'
p1328
sg81
(lp1329
F2.706
aF1.912
aF-11.516
asg31
g996
sg25
I16
sba(ipmx.atom
Atom
p1330
(dp1331
g36
(lp1332
sg38
I0
sg22
g1003
sg39
F0.0
sg40
g24
sg41
S" C3'"
p1333
sg43
g44
sg45
g24
sg46
g24
sg47
I24
sg48
F0.0
sg49
I1
sg50
F1.0
sg51
F0.0
sg26
g14
sg52
(lp1334
sg54
(lp1335
sg56
F0.0
sg57
g24
sg58
F0.0
sg59
(lp1336
sg61
g133
sg63
g1006
sg28
g14
sg64
F0.0
sg65
(lp1337
sg67
I0
sg68
g24
sg9
S"C3'"
p1338
sg69
F0.0
sg70
(lp1339
sg72
g24
sg73
I0
sg74
F0.0
sg75
S'ATOM  '
p1340
sg77
g44
sg78
g24
sg79
(lp1341
I0
aI0
aI0
asg29
S'RU'
p1342
sg81
(lp1343
F7.802
aF2.521
aF-11.41
asg31
g996
sg25
I10
sba(ipmx.atom
Atom
p1344
(dp1345
g36
(lp1346
sg38
I0
sg22
g1003
sg39
F0.0
sg40
g24
sg41
S" H3'"
p1347
sg43
g44
sg45
g24
sg46
g24
sg47
I25
sg48
F0.0
sg49
I1
sg50
F1.0
sg51
F0.0
sg26
g14
sg52
(lp1348
sg54
(lp1349
sg56
F0.0
sg57
g24
sg58
F0.0
sg59
(lp1350
sg61
g148
sg63
g1006
sg28
g14
sg64
F0.0
sg65
(lp1351
sg67
I0
sg68
g24
sg9
S"H3'"
p1352
sg69
F0.0
sg70
(lp1353
sg72
g24
sg73
I0
sg74
F0.0
sg75
S'ATOM  '
p1354
sg77
g44
sg78
g24
sg79
(lp1355
I0
aI0
aI0
asg29
S'RU'
p1356
sg81
(lp1357
F8.746
aF2.301
aF-11.164
asg31
g996
sg25
I27
sba(ipmx.atom
Atom
p1358
(dp1359
g36
(lp1360
sg38
I0
sg22
g1003
sg39
F0.0
sg40
g24
sg41
S" C2'"
p1361
sg43
g44
sg45
g24
sg46
g24
sg47
I26
sg48
F0.0
sg49
I1
sg50
F1.0
sg51
F0.0
sg26
g14
sg52
(lp1362
sg54
(lp1363
sg56
F0.0
sg57
g24
sg58
F0.0
sg59
(lp1364
sg61
g133
sg63
g1006
sg28
g14
sg64
F0.0
sg65
(lp1365
sg67
I0
sg68
g24
sg9
S"C2'"
p1366
sg69
F0.0
sg70
(lp1367
sg72
g24
sg73
I0
sg74
F0.0
sg75
S'ATOM  '
p1368
sg77
g44
sg78
g24
sg79
(lp1369
I0
aI0
aI0
asg29
S'RU'
p1370
sg81
(lp1371
F6.755
aF1.661
aF-10.701
asg31
g996
sg25
I12
sba(ipmx.atom
Atom
p1372
(dp1373
g36
(lp1374
sg38
I0
sg22
g1003
sg39
F0.0
sg40
g24
sg41
S"1H2'"
p1375
sg43
g44
sg45
g24
sg46
g24
sg47
I27
sg48
F0.0
sg49
I1
sg50
F1.0
sg51
F0.0
sg26
g14
sg52
(lp1376
sg54
(lp1377
sg56
F0.0
sg57
g24
sg58
F0.0
sg59
(lp1378
sg61
g148
sg63
g1006
sg28
g14
sg64
F0.0
sg65
(lp1379
sg67
I0
sg68
g24
sg9
S"H2'1"
p1380
sg69
F0.0
sg70
(lp1381
sg72
g24
sg73
I0
sg74
F0.0
sg75
S'ATOM  '
p1382
sg77
g44
sg78
g24
sg79
(lp1383
I0
aI0
aI0
asg29
S'RU'
p1384
sg81
(lp1385
F7.046
aF0.705
aF-10.67
asg31
g996
sg25
I26
sba(ipmx.atom
Atom
p1386
(dp1387
g36
(lp1388
sg38
I0
sg22
g1003
sg39
F0.0
sg40
g24
sg41
S" O2'"
p1389
sg43
g44
sg45
g24
sg46
g24
sg47
I28
sg48
F0.0
sg49
I1
sg50
F1.0
sg51
F0.0
sg26
g14
sg52
(lp1390
sg54
(lp1391
sg56
F0.0
sg57
g24
sg58
F0.0
sg59
(lp1392
sg61
g90
sg63
g1006
sg28
g14
sg64
F0.0
sg65
(lp1393
sg67
I0
sg68
g24
sg9
S"O2'"
p1394
sg69
F0.0
sg70
(lp1395
sg72
g24
sg73
I0
sg74
F0.0
sg75
S'ATOM  '
p1396
sg77
g44
sg78
g24
sg79
(lp1397
I0
aI0
aI0
asg29
S'RU'
p1398
sg81
(lp1399
F6.485
aF2.326
aF-9.494
asg31
g996
sg25
I31
sba(ipmx.atom
Atom
p1400
(dp1401
g36
(lp1402
sg38
I0
sg22
g1003
sg39
F0.0
sg40
g24
sg41
S"2HO'"
p1403
sg43
g44
sg45
g24
sg46
g24
sg47
I29
sg48
F0.0
sg49
I1
sg50
F1.0
sg51
F0.0
sg26
g14
sg52
(lp1404
sg54
(lp1405
sg56
F0.0
sg57
g24
sg58
F0.0
sg59
(lp1406
sg61
g148
sg63
g1006
sg28
g14
sg64
F0.0
sg65
(lp1407
sg67
I0
sg68
g24
sg9
S"HO'2"
p1408
sg69
F0.0
sg70
(lp1409
sg72
g24
sg73
I0
sg74
F0.0
sg75
S'ATOM  '
p1410
sg77
g44
sg78
g24
sg79
(lp1411
I0
aI0
aI0
asg29
S'RU'
p1412
sg81
(lp1413
F7.271
aF2.236
aF-8.883
asg31
g996
sg25
I32
sba(ipmx.atom
Atom
p1414
(dp1415
g36
(lp1416
sg38
I0
sg22
g1003
sg39
F0.0
sg40
g24
sg41
S" O3'"
p1417
sg43
g44
sg45
g24
sg46
g24
sg47
I30
sg48
F0.0
sg49
I1
sg50
F1.0
sg51
F0.0
sg26
g14
sg52
(lp1418
sg54
(lp1419
sg56
F0.0
sg57
g24
sg58
F0.0
sg59
(lp1420
sg61
g90
sg63
g1006
sg28
g14
sg64
F0.0
sg65
(lp1421
sg67
I0
sg68
g24
sg9
S"O3'"
p1422
sg69
F0.0
sg70
(lp1423
sg72
g24
sg73
I0
sg74
F0.0
sg75
S'ATOM  '
p1424
sg77
g44
sg78
g24
sg79
(lp1425
I0
aI0
aI0
asg29
S'RU'
p1426
sg81
(lp1427
F7.862
aF3.915
aF-11.042
asg31
g996
sg25
I11
sbasg47
I1
sg535
Nsbasg32
(lp1428
g1010
ag1022
ag1036
ag1050
ag1064
ag1078
ag1092
ag1106
ag1120
ag1134
ag1148
ag1162
ag1176
ag1190
ag1204
ag1218
ag1232
ag1246
ag1260
ag1274
ag1288
ag1302
ag1316
ag1330
ag1344
ag1358
ag1372
ag1386
ag1400
ag1414
asg537
I0
sg28
g14
sg31
g996
sg538
I00
sg47
g14
sbssg17
(lp1429
g1006
asg32
(lp1430
g1010
ag1022
ag1036
ag1050
ag1064
ag1078
ag1092
ag1106
ag1120
ag1134
ag1148
ag1162
ag1176
ag1190
ag1204
ag1218
ag1232
ag1246
ag1260
ag1274
ag1288
ag1302
ag1316
ag1330
ag1344
ag1358
ag1372
ag1386
ag1400
ag1414
asg28
g14
sg541
(lp1431
g1003
asg47
I0
sg543
I0
sbsS'g'
p1432
(ipmx.model
Model
p1433
(dp1434
g4
(lp1435
(lp1436
I0
aI0
aI0
aa(lp1437
I0
aI0
aI0
aa(lp1438
I0
aI0
aI0
aasg9
Nsg10
g11
sg12
(dp1439
g14
(ipmx.chain
Chain
p1440
(dp1441
g17
(lp1442
(ipmx.molecule
Molecule
p1443
(dp1444
g21
I0
sg22
g1440
sg23
g24
sg25
I2
sg26
g14
sg27
Nsg28
g14
sg29
S'RG'
p1445
sg31
g1433
sg32
(lp1446
(ipmx.atom
Atom
p1447
(dp1448
g36
(lp1449
sg38
I0
sg22
g1440
sg39
F0.0
sg40
g24
sg41
S' P  '
p1450
sg43
g44
sg45
g24
sg46
g24
sg47
I1
sg48
F0.0
sg49
I1
sg50
F1.0
sg51
F0.0
sg26
g14
sg52
(lp1451
sg54
(lp1452
sg56
F0.0
sg57
g24
sg58
F0.0
sg59
(lp1453
sg61
g62
sg63
g1443
sg28
g14
sg64
F0.0
sg65
(lp1454
sg67
I0
sg68
g24
sg9
g62
sg69
F0.0
sg70
(lp1455
sg72
g24
sg73
I0
sg74
F0.0
sg75
S'ATOM  '
p1456
sg77
g44
sg78
g24
sg79
(lp1457
I0
aI0
aI0
asg29
g1445
sg81
(lp1458
F9.121
aF-1.132
aF-12.901
asg31
g1433
sg25
I31
sba(ipmx.atom
Atom
p1459
(dp1460
g36
(lp1461
sg38
I0
sg22
g1440
sg39
F0.0
sg40
g24
sg41
S' O1P'
p1462
sg43
g44
sg45
g24
sg46
g24
sg47
I2
sg48
F0.0
sg49
I1
sg50
F1.0
sg51
F0.0
sg26
g14
sg52
(lp1463
sg54
(lp1464
sg56
F0.0
sg57
g24
sg58
F0.0
sg59
(lp1465
sg61
g90
sg63
g1443
sg28
g14
sg64
F0.0
sg65
(lp1466
sg67
I0
sg68
g24
sg9
S'O1P'
p1467
sg69
F0.0
sg70
(lp1468
sg72
g24
sg73
I0
sg74
F0.0
sg75
S'ATOM  '
p1469
sg77
g44
sg78
g24
sg79
(lp1470
I0
aI0
aI0
asg29
S'RG'
p1471
sg81
(lp1472
F10.431
aF-0.395
aF-12.809
asg31
g1433
sg25
I32
sba(ipmx.atom
Atom
p1473
(dp1474
g36
(lp1475
sg38
I0
sg22
g1440
sg39
F0.0
sg40
g24
sg41
S' O2P'
p1476
sg43
g44
sg45
g24
sg46
g24
sg47
I3
sg48
F0.0
sg49
I1
sg50
F1.0
sg51
F0.0
sg26
g14
sg52
(lp1477
sg54
(lp1478
sg56
F0.0
sg57
g24
sg58
F0.0
sg59
(lp1479
sg61
g90
sg63
g1443
sg28
g14
sg64
F0.0
sg65
(lp1480
sg67
I0
sg68
g24
sg9
S'O2P'
p1481
sg69
F0.0
sg70
(lp1482
sg72
g24
sg73
I0
sg74
F0.0
sg75
S'ATOM  '
p1483
sg77
g44
sg78
g24
sg79
(lp1484
I0
aI0
aI0
asg29
S'RG'
p1485
sg81
(lp1486
F8.859
aF-2.287
aF-12.062
asg31
g1433
sg25
I33
sba(ipmx.atom
Atom
p1487
(dp1488
g36
(lp1489
sg38
I0
sg22
g1440
sg39
F0.0
sg40
g24
sg41
S" O5'"
p1490
sg43
g44
sg45
g24
sg46
g24
sg47
I4
sg48
F0.0
sg49
I1
sg50
F1.0
sg51
F0.0
sg26
g14
sg52
(lp1491
sg54
(lp1492
sg56
F0.0
sg57
g24
sg58
F0.0
sg59
(lp1493
sg61
g90
sg63
g1443
sg28
g14
sg64
F0.0
sg65
(lp1494
sg67
I0
sg68
g24
sg9
S"O5'"
p1495
sg69
F0.0
sg70
(lp1496
sg72
g24
sg73
I0
sg74
F0.0
sg75
S'ATOM  '
p1497
sg77
g44
sg78
g24
sg79
(lp1498
I0
aI0
aI0
asg29
S'RG'
p1499
sg81
(lp1500
F7.989
aF-0.021
aF-12.72
asg31
g1433
sg25
I34
sba(ipmx.atom
Atom
p1501
(dp1502
g36
(lp1503
sg38
I0
sg22
g1440
sg39
F0.0
sg40
g24
sg41
S" C5'"
p1504
sg43
g44
sg45
g24
sg46
g24
sg47
I5
sg48
F0.0
sg49
I1
sg50
F1.0
sg51
F0.0
sg26
g14
sg52
(lp1505
sg54
(lp1506
sg56
F0.0
sg57
g24
sg58
F0.0
sg59
(lp1507
sg61
g133
sg63
g1443
sg28
g14
sg64
F0.0
sg65
(lp1508
sg67
I0
sg68
g24
sg9
S"C5'"
p1509
sg69
F0.0
sg70
(lp1510
sg72
g24
sg73
I0
sg74
F0.0
sg75
S'ATOM  '
p1511
sg77
g44
sg78
g24
sg79
(lp1512
I0
aI0
aI0
asg29
S'RG'
p1513
sg81
(lp1514
F7.905
aF1.118
aF-13.576
asg31
g1433
sg25
I35
sba(ipmx.atom
Atom
p1515
(dp1516
g36
(lp1517
sg38
I0
sg22
g1440
sg39
F0.0
sg40
g24
sg41
S"1H5'"
p1518
sg43
g44
sg45
g24
sg46
g24
sg47
I6
sg48
F0.0
sg49
I1
sg50
F1.0
sg51
F0.0
sg26
g14
sg52
(lp1519
sg54
(lp1520
sg56
F0.0
sg57
g24
sg58
F0.0
sg59
(lp1521
sg61
g148
sg63
g1443
sg28
g14
sg64
F0.0
sg65
(lp1522
sg67
I0
sg68
g24
sg9
S"H5'1"
p1523
sg69
F0.0
sg70
(lp1524
sg72
g24
sg73
I0
sg74
F0.0
sg75
S'ATOM  '
p1525
sg77
g44
sg78
g24
sg79
(lp1526
I0
aI0
aI0
asg29
S'RG'
p1527
sg81
(lp1528
F7.33
aF0.854
aF-14.35
asg31
g1433
sg25
I36
sba(ipmx.atom
Atom
p1529
(dp1530
g36
(lp1531
sg38
I0
sg22
g1440
sg39
F0.0
sg40
g24
sg41
S"2H5'"
p1532
sg43
g44
sg45
g24
sg46
g24
sg47
I7
sg48
F0.0
sg49
I1
sg50
F1.0
sg51
F0.0
sg26
g14
sg52
(lp1533
sg54
(lp1534
sg56
F0.0
sg57
g24
sg58
F0.0
sg59
(lp1535
sg61
g148
sg63
g1443
sg28
g14
sg64
F0.0
sg65
(lp1536
sg67
I0
sg68
g24
sg9
S"H5'2"
p1537
sg69
F0.0
sg70
(lp1538
sg72
g24
sg73
I0
sg74
F0.0
sg75
S'ATOM  '
p1539
sg77
g44
sg78
g24
sg79
(lp1540
I0
aI0
aI0
asg29
S'RG'
p1541
sg81
(lp1542
F8.833
aF1.304
aF-13.898
asg31
g1433
sg25
I37
sba(ipmx.atom
Atom
p1543
(dp1544
g36
(lp1545
sg38
I0
sg22
g1440
sg39
F0.0
sg40
g24
sg41
S" C4'"
p1546
sg43
g44
sg45
g24
sg46
g24
sg47
I8
sg48
F0.0
sg49
I1
sg50
F1.0
sg51
F0.0
sg26
g14
sg52
(lp1547
sg54
(lp1548
sg56
F0.0
sg57
g24
sg58
F0.0
sg59
(lp1549
sg61
g133
sg63
g1443
sg28
g14
sg64
F0.0
sg65
(lp1550
sg67
I0
sg68
g24
sg9
S"C4'"
p1551
sg69
F0.0
sg70
(lp1552
sg72
g24
sg73
I0
sg74
F0.0
sg75
S'ATOM  '
p1553
sg77
g44
sg78
g24
sg79
(lp1554
I0
aI0
aI0
asg29
S'RG'
p1555
sg81
(lp1556
F7.324
aF2.367
aF-12.889
asg31
g1433
sg25
I38
sba(ipmx.atom
Atom
p1557
(dp1558
g36
(lp1559
sg38
I0
sg22
g1440
sg39
F0.0
sg40
g24
sg41
S" H4'"
p1560
sg43
g44
sg45
g24
sg46
g24
sg47
I9
sg48
F0.0
sg49
I1
sg50
F1.0
sg51
F0.0
sg26
g14
sg52
(lp1561
sg54
(lp1562
sg56
F0.0
sg57
g24
sg58
F0.0
sg59
(lp1563
sg61
g148
sg63
g1443
sg28
g14
sg64
F0.0
sg65
(lp1564
sg67
I0
sg68
g24
sg9
S"H4'"
p1565
sg69
F0.0
sg70
(lp1566
sg72
g24
sg73
I0
sg74
F0.0
sg75
S'ATOM  '
p1567
sg77
g44
sg78
g24
sg79
(lp1568
I0
aI0
aI0
asg29
S'RG'
p1569
sg81
(lp1570
F7.568
aF3.175
aF-13.425
asg31
g1433
sg25
I39
sba(ipmx.atom
Atom
p1571
(dp1572
g36
(lp1573
sg38
I0
sg22
g1440
sg39
F0.0
sg40
g24
sg41
S" O4'"
p1574
sg43
g44
sg45
g24
sg46
g24
sg47
I10
sg48
F0.0
sg49
I1
sg50
F1.0
sg51
F0.0
sg26
g14
sg52
(lp1575
sg54
(lp1576
sg56
F0.0
sg57
g24
sg58
F0.0
sg59
(lp1577
sg61
g90
sg63
g1443
sg28
g14
sg64
F0.0
sg65
(lp1578
sg67
I0
sg68
g24
sg9
S"O4'"
p1579
sg69
F0.0
sg70
(lp1580
sg72
g24
sg73
I0
sg74
F0.0
sg75
S'ATOM  '
p1581
sg77
g44
sg78
g24
sg79
(lp1582
I0
aI0
aI0
asg29
S'RG'
p1583
sg81
(lp1584
F5.895
aF2.264
aF-12.886
asg31
g1433
sg25
I40
sba(ipmx.atom
Atom
p1585
(dp1586
g36
(lp1587
sg38
I0
sg22
g1440
sg39
F0.0
sg40
g24
sg41
S" C1'"
p1588
sg43
g44
sg45
g24
sg46
g24
sg47
I11
sg48
F0.0
sg49
I1
sg50
F1.0
sg51
F0.0
sg26
g14
sg52
(lp1589
sg54
(lp1590
sg56
F0.0
sg57
g24
sg58
F0.0
sg59
(lp1591
sg61
g133
sg63
g1443
sg28
g14
sg64
F0.0
sg65
(lp1592
sg67
I0
sg68
g24
sg9
S"C1'"
p1593
sg69
F0.0
sg70
(lp1594
sg72
g24
sg73
I0
sg74
F0.0
sg75
S'ATOM  '
p1595
sg77
g44
sg78
g24
sg79
(lp1596
I0
aI0
aI0
asg29
S'RG'
p1597
sg81
(lp1598
F5.469
aF1.876
aF-11.598
asg31
g1433
sg25
I41
sba(ipmx.atom
Atom
p1599
(dp1600
g36
(lp1601
sg38
I0
sg22
g1440
sg39
F0.0
sg40
g24
sg41
S" H1'"
p1602
sg43
g44
sg45
g24
sg46
g24
sg47
I12
sg48
F0.0
sg49
I1
sg50
F1.0
sg51
F0.0
sg26
g14
sg52
(lp1603
sg54
(lp1604
sg56
F0.0
sg57
g24
sg58
F0.0
sg59
(lp1605
sg61
g148
sg63
g1443
sg28
g14
sg64
F0.0
sg65
(lp1606
sg67
I0
sg68
g24
sg9
S"H1'"
p1607
sg69
F0.0
sg70
(lp1608
sg72
g24
sg73
I0
sg74
F0.0
sg75
S'ATOM  '
p1609
sg77
g44
sg78
g24
sg79
(lp1610
I0
aI0
aI0
asg29
S'RG'
p1611
sg81
(lp1612
F4.848
aF2.559
aF-11.212
asg31
g1433
sg25
I42
sba(ipmx.atom
Atom
p1613
(dp1614
g36
(lp1615
sg38
I0
sg22
g1440
sg39
F0.0
sg40
g24
sg41
S' N9 '
p1616
sg43
g44
sg45
g24
sg46
g24
sg47
I13
sg48
F0.0
sg49
I1
sg50
F1.0
sg51
F0.0
sg26
g14
sg52
(lp1617
sg54
(lp1618
sg56
F0.0
sg57
g24
sg58
F0.0
sg59
(lp1619
sg61
g247
sg63
g1443
sg28
g14
sg64
F0.0
sg65
(lp1620
sg67
I0
sg68
g24
sg9
S'N9'
p1621
sg69
F0.0
sg70
(lp1622
sg72
g24
sg73
I0
sg74
F0.0
sg75
S'ATOM  '
p1623
sg77
g44
sg78
g24
sg79
(lp1624
I0
aI0
aI0
asg29
S'RG'
p1625
sg81
(lp1626
F4.621
aF0.656
aF-11.637
asg31
g1433
sg25
I43
sba(ipmx.atom
Atom
p1627
(dp1628
g36
(lp1629
sg38
I0
sg22
g1440
sg39
F0.0
sg40
g24
sg41
S' C8 '
p1630
sg43
g44
sg45
g24
sg46
g24
sg47
I14
sg48
F0.0
sg49
I1
sg50
F1.0
sg51
F0.0
sg26
g14
sg52
(lp1631
sg54
(lp1632
sg56
F0.0
sg57
g24
sg58
F0.0
sg59
(lp1633
sg61
g133
sg63
g1443
sg28
g14
sg64
F0.0
sg65
(lp1634
sg67
I0
sg68
g24
sg9
S'C8'
p1635
sg69
F0.0
sg70
(lp1636
sg72
g24
sg73
I0
sg74
F0.0
sg75
S'ATOM  '
p1637
sg77
g44
sg78
g24
sg79
(lp1638
I0
aI0
aI0
asg29
S'RG'
p1639
sg81
(lp1640
F4.98
aF-0.666
aF-11.684
asg31
g1433
sg25
I44
sba(ipmx.atom
Atom
p1641
(dp1642
g36
(lp1643
sg38
I0
sg22
g1440
sg39
F0.0
sg40
g24
sg41
S' H8 '
p1644
sg43
g44
sg45
g24
sg46
g24
sg47
I15
sg48
F0.0
sg49
I1
sg50
F1.0
sg51
F0.0
sg26
g14
sg52
(lp1645
sg54
(lp1646
sg56
F0.0
sg57
g24
sg58
F0.0
sg59
(lp1647
sg61
g148
sg63
g1443
sg28
g14
sg64
F0.0
sg65
(lp1648
sg67
I0
sg68
g24
sg9
S'H8'
p1649
sg69
F0.0
sg70
(lp1650
sg72
g24
sg73
I0
sg74
F0.0
sg75
S'ATOM  '
p1651
sg77
g44
sg78
g24
sg79
(lp1652
I0
aI0
aI0
asg29
S'RG'
p1653
sg81
(lp1654
F5.933
aF-0.967
aF-11.668
asg31
g1433
sg25
I45
sba(ipmx.atom
Atom
p1655
(dp1656
g36
(lp1657
sg38
I0
sg22
g1440
sg39
F0.0
sg40
g24
sg41
S' N7 '
p1658
sg43
g44
sg45
g24
sg46
g24
sg47
I16
sg48
F0.0
sg49
I1
sg50
F1.0
sg51
F0.0
sg26
g14
sg52
(lp1659
sg54
(lp1660
sg56
F0.0
sg57
g24
sg58
F0.0
sg59
(lp1661
sg61
g247
sg63
g1443
sg28
g14
sg64
F0.0
sg65
(lp1662
sg67
I0
sg68
g24
sg9
S'N7'
p1663
sg69
F0.0
sg70
(lp1664
sg72
g24
sg73
I0
sg74
F0.0
sg75
S'ATOM  '
p1665
sg77
g44
sg78
g24
sg79
(lp1666
I0
aI0
aI0
asg29
S'RG'
p1667
sg81
(lp1668
F3.978
aF-1.501
aF-11.751
asg31
g1433
sg25
I46
sba(ipmx.atom
Atom
p1669
(dp1670
g36
(lp1671
sg38
I0
sg22
g1440
sg39
F0.0
sg40
g24
sg41
S' C5 '
p1672
sg43
g44
sg45
g24
sg46
g24
sg47
I17
sg48
F0.0
sg49
I1
sg50
F1.0
sg51
F0.0
sg26
g14
sg52
(lp1673
sg54
(lp1674
sg56
F0.0
sg57
g24
sg58
F0.0
sg59
(lp1675
sg61
g133
sg63
g1443
sg28
g14
sg64
F0.0
sg65
(lp1676
sg67
I0
sg68
g24
sg9
S'C5'
p1677
sg69
F0.0
sg70
(lp1678
sg72
g24
sg73
I0
sg74
F0.0
sg75
S'ATOM  '
p1679
sg77
g44
sg78
g24
sg79
(lp1680
I0
aI0
aI0
asg29
S'RG'
p1681
sg81
(lp1682
F2.862
aF-0.662
aF-11.705
asg31
g1433
sg25
I47
sba(ipmx.atom
Atom
p1683
(dp1684
g36
(lp1685
sg38
I0
sg22
g1440
sg39
F0.0
sg40
g24
sg41
S' C6 '
p1686
sg43
g44
sg45
g24
sg46
g24
sg47
I18
sg48
F0.0
sg49
I1
sg50
F1.0
sg51
F0.0
sg26
g14
sg52
(lp1687
sg54
(lp1688
sg56
F0.0
sg57
g24
sg58
F0.0
sg59
(lp1689
sg61
g133
sg63
g1443
sg28
g14
sg64
F0.0
sg65
(lp1690
sg67
I0
sg68
g24
sg9
S'C6'
p1691
sg69
F0.0
sg70
(lp1692
sg72
g24
sg73
I0
sg74
F0.0
sg75
S'ATOM  '
p1693
sg77
g44
sg78
g24
sg79
(lp1694
I0
aI0
aI0
asg29
S'RG'
p1695
sg81
(lp1696
F1.464
aF-0.956
aF-11.717
asg31
g1433
sg25
I48
sba(ipmx.atom
Atom
p1697
(dp1698
g36
(lp1699
sg38
I0
sg22
g1440
sg39
F0.0
sg40
g24
sg41
S' O6 '
p1700
sg43
g44
sg45
g24
sg46
g24
sg47
I19
sg48
F0.0
sg49
I1
sg50
F1.0
sg51
F0.0
sg26
g14
sg52
(lp1701
sg54
(lp1702
sg56
F0.0
sg57
g24
sg58
F0.0
sg59
(lp1703
sg61
g90
sg63
g1443
sg28
g14
sg64
F0.0
sg65
(lp1704
sg67
I0
sg68
g24
sg9
S'O6'
p1705
sg69
F0.0
sg70
(lp1706
sg72
g24
sg73
I0
sg74
F0.0
sg75
S'ATOM  '
p1707
sg77
g44
sg78
g24
sg79
(lp1708
I0
aI0
aI0
asg29
S'RG'
p1709
sg81
(lp1710
F0.914
aF-2.053
aF-11.778
asg31
g1433
sg25
I49
sba(ipmx.atom
Atom
p1711
(dp1712
g36
(lp1713
sg38
I0
sg22
g1440
sg39
F0.0
sg40
g24
sg41
S' N1 '
p1714
sg43
g44
sg45
g24
sg46
g24
sg47
I20
sg48
F0.0
sg49
I1
sg50
F1.0
sg51
F0.0
sg26
g14
sg52
(lp1715
sg54
(lp1716
sg56
F0.0
sg57
g24
sg58
F0.0
sg59
(lp1717
sg61
g247
sg63
g1443
sg28
g14
sg64
F0.0
sg65
(lp1718
sg67
I0
sg68
g24
sg9
S'N1'
p1719
sg69
F0.0
sg70
(lp1720
sg72
g24
sg73
I0
sg74
F0.0
sg75
S'ATOM  '
p1721
sg77
g44
sg78
g24
sg79
(lp1722
I0
aI0
aI0
asg29
S'RG'
p1723
sg81
(lp1724
F0.661
aF0.166
aF-11.638
asg31
g1433
sg25
I50
sba(ipmx.atom
Atom
p1725
(dp1726
g36
(lp1727
sg38
I0
sg22
g1440
sg39
F0.0
sg40
g24
sg41
S' H1 '
p1728
sg43
g44
sg45
g24
sg46
g24
sg47
I21
sg48
F0.0
sg49
I1
sg50
F1.0
sg51
F0.0
sg26
g14
sg52
(lp1729
sg54
(lp1730
sg56
F0.0
sg57
g24
sg58
F0.0
sg59
(lp1731
sg61
g148
sg63
g1443
sg28
g14
sg64
F0.0
sg65
(lp1732
sg67
I0
sg68
g24
sg9
S'H1'
p1733
sg69
F0.0
sg70
(lp1734
sg72
g24
sg73
I0
sg74
F0.0
sg75
S'ATOM  '
p1735
sg77
g44
sg78
g24
sg79
(lp1736
I0
aI0
aI0
asg29
S'RG'
p1737
sg81
(lp1738
F-0.33
aF0.035
aF-11.65
asg31
g1433
sg25
I51
sba(ipmx.atom
Atom
p1739
(dp1740
g36
(lp1741
sg38
I0
sg22
g1440
sg39
F0.0
sg40
g24
sg41
S' C2 '
p1742
sg43
g44
sg45
g24
sg46
g24
sg47
I22
sg48
F0.0
sg49
I1
sg50
F1.0
sg51
F0.0
sg26
g14
sg52
(lp1743
sg54
(lp1744
sg56
F0.0
sg57
g24
sg58
F0.0
sg59
(lp1745
sg61
g133
sg63
g1443
sg28
g14
sg64
F0.0
sg65
(lp1746
sg67
I0
sg68
g24
sg9
S'C2'
p1747
sg69
F0.0
sg70
(lp1748
sg72
g24
sg73
I0
sg74
F0.0
sg75
S'ATOM  '
p1749
sg77
g44
sg78
g24
sg79
(lp1750
I0
aI0
aI0
asg29
S'RG'
p1751
sg81
(lp1752
F1.134
aF1.431
aF-11.546
asg31
g1433
sg25
I52
sba(ipmx.atom
Atom
p1753
(dp1754
g36
(lp1755
sg38
I0
sg22
g1440
sg39
F0.0
sg40
g24
sg41
S' N2 '
p1756
sg43
g44
sg45
g24
sg46
g24
sg47
I23
sg48
F0.0
sg49
I1
sg50
F1.0
sg51
F0.0
sg26
g14
sg52
(lp1757
sg54
(lp1758
sg56
F0.0
sg57
g24
sg58
F0.0
sg59
(lp1759
sg61
g247
sg63
g1443
sg28
g14
sg64
F0.0
sg65
(lp1760
sg67
I0
sg68
g24
sg9
S'N2'
p1761
sg69
F0.0
sg70
(lp1762
sg72
g24
sg73
I0
sg74
F0.0
sg75
S'ATOM  '
p1763
sg77
g44
sg78
g24
sg79
(lp1764
I0
aI0
aI0
asg29
S'RG'
p1765
sg81
(lp1766
F0.239
aF2.385
aF-11.458
asg31
g1433
sg25
I53
sba(ipmx.atom
Atom
p1767
(dp1768
g36
(lp1769
sg38
I0
sg22
g1440
sg39
F0.0
sg40
g24
sg41
S' H21'
p1770
sg43
g44
sg45
g24
sg46
g24
sg47
I24
sg48
F0.0
sg49
I1
sg50
F1.0
sg51
F0.0
sg26
g14
sg52
(lp1771
sg54
(lp1772
sg56
F0.0
sg57
g24
sg58
F0.0
sg59
(lp1773
sg61
g148
sg63
g1443
sg28
g14
sg64
F0.0
sg65
(lp1774
sg67
I0
sg68
g24
sg9
S'H21'
p1775
sg69
F0.0
sg70
(lp1776
sg72
g24
sg73
I0
sg74
F0.0
sg75
S'ATOM  '
p1777
sg77
g44
sg78
g24
sg79
(lp1778
I0
aI0
aI0
asg29
S'RG'
p1779
sg81
(lp1780
F-0.735
aF2.159
aF-11.461
asg31
g1433
sg25
I54
sba(ipmx.atom
Atom
p1781
(dp1782
g36
(lp1783
sg38
I0
sg22
g1440
sg39
F0.0
sg40
g24
sg41
S' H22'
p1784
sg43
g44
sg45
g24
sg46
g24
sg47
I25
sg48
F0.0
sg49
I1
sg50
F1.0
sg51
F0.0
sg26
g14
sg52
(lp1785
sg54
(lp1786
sg56
F0.0
sg57
g24
sg58
F0.0
sg59
(lp1787
sg61
g148
sg63
g1443
sg28
g14
sg64
F0.0
sg65
(lp1788
sg67
I0
sg68
g24
sg9
S'H22'
p1789
sg69
F0.0
sg70
(lp1790
sg72
g24
sg73
I0
sg74
F0.0
sg75
S'ATOM  '
p1791
sg77
g44
sg78
g24
sg79
(lp1792
I0
aI0
aI0
asg29
S'RG'
p1793
sg81
(lp1794
F0.53
aF3.339
aF-11.388
asg31
g1433
sg25
I55
sba(ipmx.atom
Atom
p1795
(dp1796
g36
(lp1797
sg38
I0
sg22
g1440
sg39
F0.0
sg40
g24
sg41
S' N3 '
p1798
sg43
g44
sg45
g24
sg46
g24
sg47
I26
sg48
F0.0
sg49
I1
sg50
F1.0
sg51
F0.0
sg26
g14
sg52
(lp1799
sg54
(lp1800
sg56
F0.0
sg57
g24
sg58
F0.0
sg59
(lp1801
sg61
g247
sg63
g1443
sg28
g14
sg64
F0.0
sg65
(lp1802
sg67
I0
sg68
g24
sg9
S'N3'
p1803
sg69
F0.0
sg70
(lp1804
sg72
g24
sg73
I0
sg74
F0.0
sg75
S'ATOM  '
p1805
sg77
g44
sg78
g24
sg79
(lp1806
I0
aI0
aI0
asg29
S'RG'
p1807
sg81
(lp1808
F2.425
aF1.753
aF-11.515
asg31
g1433
sg25
I56
sba(ipmx.atom
Atom
p1809
(dp1810
g36
(lp1811
sg38
I0
sg22
g1440
sg39
F0.0
sg40
g24
sg41
S' C4 '
p1812
sg43
g44
sg45
g24
sg46
g24
sg47
I27
sg48
F0.0
sg49
I1
sg50
F1.0
sg51
F0.0
sg26
g14
sg52
(lp1813
sg54
(lp1814
sg56
F0.0
sg57
g24
sg58
F0.0
sg59
(lp1815
sg61
g133
sg63
g1443
sg28
g14
sg64
F0.0
sg65
(lp1816
sg67
I0
sg68
g24
sg9
S'C4'
p1817
sg69
F0.0
sg70
(lp1818
sg72
g24
sg73
I0
sg74
F0.0
sg75
S'ATOM  '
p1819
sg77
g44
sg78
g24
sg79
(lp1820
I0
aI0
aI0
asg29
S'RG'
p1821
sg81
(lp1822
F3.245
aF0.66
aF-11.615
asg31
g1433
sg25
I57
sba(ipmx.atom
Atom
p1823
(dp1824
g36
(lp1825
sg38
I0
sg22
g1440
sg39
F0.0
sg40
g24
sg41
S" C3'"
p1826
sg43
g44
sg45
g24
sg46
g24
sg47
I28
sg48
F0.0
sg49
I1
sg50
F1.0
sg51
F0.0
sg26
g14
sg52
(lp1827
sg54
(lp1828
sg56
F0.0
sg57
g24
sg58
F0.0
sg59
(lp1829
sg61
g133
sg63
g1443
sg28
g14
sg64
F0.0
sg65
(lp1830
sg67
I0
sg68
g24
sg9
S"C3'"
p1831
sg69
F0.0
sg70
(lp1832
sg72
g24
sg73
I0
sg74
F0.0
sg75
S'ATOM  '
p1833
sg77
g44
sg78
g24
sg79
(lp1834
I0
aI0
aI0
asg29
S'RG'
p1835
sg81
(lp1836
F7.829
aF2.584
aF-11.453
asg31
g1433
sg25
I58
sba(ipmx.atom
Atom
p1837
(dp1838
g36
(lp1839
sg38
I0
sg22
g1440
sg39
F0.0
sg40
g24
sg41
S" H3'"
p1840
sg43
g44
sg45
g24
sg46
g24
sg47
I29
sg48
F0.0
sg49
I1
sg50
F1.0
sg51
F0.0
sg26
g14
sg52
(lp1841
sg54
(lp1842
sg56
F0.0
sg57
g24
sg58
F0.0
sg59
(lp1843
sg61
g148
sg63
g1443
sg28
g14
sg64
F0.0
sg65
(lp1844
sg67
I0
sg68
g24
sg9
S"H3'"
p1845
sg69
F0.0
sg70
(lp1846
sg72
g24
sg73
I0
sg74
F0.0
sg75
S'ATOM  '
p1847
sg77
g44
sg78
g24
sg79
(lp1848
I0
aI0
aI0
asg29
S'RG'
p1849
sg81
(lp1850
F8.775
aF2.368
aF-11.212
asg31
g1433
sg25
I59
sba(ipmx.atom
Atom
p1851
(dp1852
g36
(lp1853
sg38
I0
sg22
g1440
sg39
F0.0
sg40
g24
sg41
S" C2'"
p1854
sg43
g44
sg45
g24
sg46
g24
sg47
I30
sg48
F0.0
sg49
I1
sg50
F1.0
sg51
F0.0
sg26
g14
sg52
(lp1855
sg54
(lp1856
sg56
F0.0
sg57
g24
sg58
F0.0
sg59
(lp1857
sg61
g133
sg63
g1443
sg28
g14
sg64
F0.0
sg65
(lp1858
sg67
I0
sg68
g24
sg9
S"C2'"
p1859
sg69
F0.0
sg70
(lp1860
sg72
g24
sg73
I0
sg74
F0.0
sg75
S'ATOM  '
p1861
sg77
g44
sg78
g24
sg79
(lp1862
I0
aI0
aI0
asg29
S'RG'
p1863
sg81
(lp1864
F6.752
aF1.761
aF-10.806
asg31
g1433
sg25
I60
sba(ipmx.atom
Atom
p1865
(dp1866
g36
(lp1867
sg38
I0
sg22
g1440
sg39
F0.0
sg40
g24
sg41
S"1H2'"
p1868
sg43
g44
sg45
g24
sg46
g24
sg47
I31
sg48
F0.0
sg49
I1
sg50
F1.0
sg51
F0.0
sg26
g14
sg52
(lp1869
sg54
(lp1870
sg56
F0.0
sg57
g24
sg58
F0.0
sg59
(lp1871
sg61
g148
sg63
g1443
sg28
g14
sg64
F0.0
sg65
(lp1872
sg67
I0
sg68
g24
sg9
S"H2'1"
p1873
sg69
F0.0
sg70
(lp1874
sg72
g24
sg73
I0
sg74
F0.0
sg75
S'ATOM  '
p1875
sg77
g44
sg78
g24
sg79
(lp1876
I0
aI0
aI0
asg29
S'RG'
p1877
sg81
(lp1878
F7.042
aF0.804
aF-10.777
asg31
g1433
sg25
I61
sba(ipmx.atom
Atom
p1879
(dp1880
g36
(lp1881
sg38
I0
sg22
g1440
sg39
F0.0
sg40
g24
sg41
S" O2'"
p1882
sg43
g44
sg45
g24
sg46
g24
sg47
I32
sg48
F0.0
sg49
I1
sg50
F1.0
sg51
F0.0
sg26
g14
sg52
(lp1883
sg54
(lp1884
sg56
F0.0
sg57
g24
sg58
F0.0
sg59
(lp1885
sg61
g90
sg63
g1443
sg28
g14
sg64
F0.0
sg65
(lp1886
sg67
I0
sg68
g24
sg9
S"O2'"
p1887
sg69
F0.0
sg70
(lp1888
sg72
g24
sg73
I0
sg74
F0.0
sg75
S'ATOM  '
p1889
sg77
g44
sg78
g24
sg79
(lp1890
I0
aI0
aI0
asg29
S'RG'
p1891
sg81
(lp1892
F6.485
aF2.326
aF-9.494
asg31
g1433
sg25
I31
sba(ipmx.atom
Atom
p1893
(dp1894
g36
(lp1895
sg38
I0
sg22
g1440
sg39
F0.0
sg40
g24
sg41
S"2HO'"
p1896
sg43
g44
sg45
g24
sg46
g24
sg47
I33
sg48
F0.0
sg49
I1
sg50
F1.0
sg51
F0.0
sg26
g14
sg52
(lp1897
sg54
(lp1898
sg56
F0.0
sg57
g24
sg58
F0.0
sg59
(lp1899
sg61
g148
sg63
g1443
sg28
g14
sg64
F0.0
sg65
(lp1900
sg67
I0
sg68
g24
sg9
S"HO'2"
p1901
sg69
F0.0
sg70
(lp1902
sg72
g24
sg73
I0
sg74
F0.0
sg75
S'ATOM  '
p1903
sg77
g44
sg78
g24
sg79
(lp1904
I0
aI0
aI0
asg29
S'RG'
p1905
sg81
(lp1906
F7.271
aF2.236
aF-8.883
asg31
g1433
sg25
I32
sba(ipmx.atom
Atom
p1907
(dp1908
g36
(lp1909
sg38
I0
sg22
g1440
sg39
F0.0
sg40
g24
sg41
S" O3'"
p1910
sg43
g44
sg45
g24
sg46
g24
sg47
I34
sg48
F0.0
sg49
I1
sg50
F1.0
sg51
F0.0
sg26
g14
sg52
(lp1911
sg54
(lp1912
sg56
F0.0
sg57
g24
sg58
F0.0
sg59
(lp1913
sg61
g90
sg63
g1443
sg28
g14
sg64
F0.0
sg65
(lp1914
sg67
I0
sg68
g24
sg9
S"O3'"
p1915
sg69
F0.0
sg70
(lp1916
sg72
g24
sg73
I0
sg74
F0.0
sg75
S'ATOM  '
p1917
sg77
g44
sg78
g24
sg79
(lp1918
I0
aI0
aI0
asg29
S'RG'
p1919
sg81
(lp1920
F7.885
aF3.972
aF-11.053
asg31
g1433
sg25
I63
sbasg47
I1
sg535
Nsbasg32
(lp1921
g1447
ag1459
ag1473
ag1487
ag1501
ag1515
ag1529
ag1543
ag1557
ag1571
ag1585
ag1599
ag1613
ag1627
ag1641
ag1655
ag1669
ag1683
ag1697
ag1711
ag1725
ag1739
ag1753
ag1767
ag1781
ag1795
ag1809
ag1823
ag1837
ag1851
ag1865
ag1879
ag1893
ag1907
asg537
I0
sg28
g14
sg31
g1433
sg538
I00
sg47
g14
sbssg17
(lp1922
g1443
asg32
(lp1923
g1447
ag1459
ag1473
ag1487
ag1501
ag1515
ag1529
ag1543
ag1557
ag1571
ag1585
ag1599
ag1613
ag1627
ag1641
ag1655
ag1669
ag1683
ag1697
ag1711
ag1725
ag1739
ag1753
ag1767
ag1781
ag1795
ag1809
ag1823
ag1837
ag1851
ag1865
ag1879
ag1893
ag1907
asg28
g14
sg541
(lp1924
g1440
asg47
I0
sg543
I0
sbs.